
C:/Users/Admin/Desktop/Pico/rp2040-freertos-project/build/ProjectFiles/blink.elf:     file format elf32-littlearm

Sections:
Idx Name          Size      VMA       LMA       File off  Algn
  0 .boot2        00000100  10000000  10000000  00001000  2**0
                  CONTENTS, ALLOC, LOAD, READONLY, CODE
  1 .text         00006a00  10000100  10000100  00001100  2**4
                  CONTENTS, ALLOC, LOAD, READONLY, CODE
  2 .rodata       00000e7c  10006b00  10006b00  00007b00  2**3
                  CONTENTS, ALLOC, LOAD, READONLY, DATA
  3 .binary_info  00000024  1000797c  1000797c  0000897c  2**2
                  CONTENTS, ALLOC, LOAD, DATA
  4 .ram_vector_table 000000c0  20000000  20000000  00009ac4  2**2
                  CONTENTS
  5 .data         00000a04  200000c0  100079a0  000090c0  2**4
                  CONTENTS, ALLOC, LOAD, READONLY, CODE
  6 .uninitialized_data 00000000  20000ac4  20000ac4  00009b84  2**0
                  CONTENTS
  7 .scratch_x    00000000  20040000  20040000  00009b84  2**0
                  CONTENTS
  8 .scratch_y    00000000  20041000  20041000  00009b84  2**0
                  CONTENTS
  9 .bss          000005a0  20000ac8  20000ac8  00009ac8  2**3
                  ALLOC
 10 .heap         00000800  20001068  20001068  00009b84  2**2
                  CONTENTS, READONLY
 11 .stack_dummy  00000800  20041000  20041000  0000a3a0  2**5
                  CONTENTS, READONLY
 12 .ARM.attributes 00000028  00000000  00000000  0000aba0  2**0
                  CONTENTS, READONLY
 13 .comment      00000049  00000000  00000000  0000abc8  2**0
                  CONTENTS, READONLY
 14 .debug_info   00019158  00000000  00000000  0000ac11  2**0
                  CONTENTS, READONLY, DEBUGGING, OCTETS
 15 .debug_abbrev 00004b71  00000000  00000000  00023d69  2**0
                  CONTENTS, READONLY, DEBUGGING, OCTETS
 16 .debug_loc    00012363  00000000  00000000  000288da  2**0
                  CONTENTS, READONLY, DEBUGGING, OCTETS
 17 .debug_aranges 00000e38  00000000  00000000  0003ac40  2**3
                  CONTENTS, READONLY, DEBUGGING, OCTETS
 18 .debug_ranges 00003178  00000000  00000000  0003ba78  2**3
                  CONTENTS, READONLY, DEBUGGING, OCTETS
 19 .debug_line   00011687  00000000  00000000  0003ebf0  2**0
                  CONTENTS, READONLY, DEBUGGING, OCTETS
 20 .debug_str    00004d3f  00000000  00000000  00050277  2**0
                  CONTENTS, READONLY, DEBUGGING, OCTETS
 21 .debug_frame  00002444  00000000  00000000  00054fb8  2**2
                  CONTENTS, READONLY, DEBUGGING, OCTETS

C:/Users/Admin/Desktop/Pico/rp2040-freertos-project/build/ProjectFiles/blink.elf:     file format elf32-littlearm


Disassembly of section .boot2:

10000000 <__boot2_start__>:
10000000:	4b32b500 	.word	0x4b32b500
10000004:	60582021 	.word	0x60582021
10000008:	21026898 	.word	0x21026898
1000000c:	60984388 	.word	0x60984388
10000010:	611860d8 	.word	0x611860d8
10000014:	4b2e6158 	.word	0x4b2e6158
10000018:	60992100 	.word	0x60992100
1000001c:	61592102 	.word	0x61592102
10000020:	22f02101 	.word	0x22f02101
10000024:	492b5099 	.word	0x492b5099
10000028:	21016019 	.word	0x21016019
1000002c:	20356099 	.word	0x20356099
10000030:	f844f000 	.word	0xf844f000
10000034:	42902202 	.word	0x42902202
10000038:	2106d014 	.word	0x2106d014
1000003c:	f0006619 	.word	0xf0006619
10000040:	6e19f834 	.word	0x6e19f834
10000044:	66192101 	.word	0x66192101
10000048:	66182000 	.word	0x66182000
1000004c:	f000661a 	.word	0xf000661a
10000050:	6e19f82c 	.word	0x6e19f82c
10000054:	6e196e19 	.word	0x6e196e19
10000058:	f0002005 	.word	0xf0002005
1000005c:	2101f82f 	.word	0x2101f82f
10000060:	d1f94208 	.word	0xd1f94208
10000064:	60992100 	.word	0x60992100
10000068:	6019491b 	.word	0x6019491b
1000006c:	60592100 	.word	0x60592100
10000070:	481b491a 	.word	0x481b491a
10000074:	21016001 	.word	0x21016001
10000078:	21eb6099 	.word	0x21eb6099
1000007c:	21a06619 	.word	0x21a06619
10000080:	f0006619 	.word	0xf0006619
10000084:	2100f812 	.word	0x2100f812
10000088:	49166099 	.word	0x49166099
1000008c:	60014814 	.word	0x60014814
10000090:	60992101 	.word	0x60992101
10000094:	2800bc01 	.word	0x2800bc01
10000098:	4700d000 	.word	0x4700d000
1000009c:	49134812 	.word	0x49134812
100000a0:	c8036008 	.word	0xc8036008
100000a4:	8808f380 	.word	0x8808f380
100000a8:	b5034708 	.word	0xb5034708
100000ac:	20046a99 	.word	0x20046a99
100000b0:	d0fb4201 	.word	0xd0fb4201
100000b4:	42012001 	.word	0x42012001
100000b8:	bd03d1f8 	.word	0xbd03d1f8
100000bc:	6618b502 	.word	0x6618b502
100000c0:	f7ff6618 	.word	0xf7ff6618
100000c4:	6e18fff2 	.word	0x6e18fff2
100000c8:	bd026e18 	.word	0xbd026e18
100000cc:	40020000 	.word	0x40020000
100000d0:	18000000 	.word	0x18000000
100000d4:	00070000 	.word	0x00070000
100000d8:	005f0300 	.word	0x005f0300
100000dc:	00002221 	.word	0x00002221
100000e0:	180000f4 	.word	0x180000f4
100000e4:	a0002022 	.word	0xa0002022
100000e8:	10000100 	.word	0x10000100
100000ec:	e000ed08 	.word	0xe000ed08
	...
100000fc:	7a4eb274 	.word	0x7a4eb274

Disassembly of section .text:

10000100 <__VECTOR_TABLE>:
10000100:	20042000 	.word	0x20042000
10000104:	100001f7 	.word	0x100001f7
10000108:	100001c3 	.word	0x100001c3
1000010c:	100001c5 	.word	0x100001c5
10000110:	100001c1 	.word	0x100001c1
10000114:	100001c1 	.word	0x100001c1
10000118:	100001c1 	.word	0x100001c1
1000011c:	100001c1 	.word	0x100001c1
10000120:	100001c1 	.word	0x100001c1
10000124:	100001c1 	.word	0x100001c1
10000128:	100001c1 	.word	0x100001c1
1000012c:	10005735 	.word	0x10005735
10000130:	100001c1 	.word	0x100001c1
10000134:	100001c1 	.word	0x100001c1
10000138:	1000578b 	.word	0x1000578b
1000013c:	100057d5 	.word	0x100057d5
10000140:	100001cd 	.word	0x100001cd
10000144:	100001cd 	.word	0x100001cd
10000148:	100001cd 	.word	0x100001cd
1000014c:	100001cd 	.word	0x100001cd
10000150:	100001cd 	.word	0x100001cd
10000154:	100001cd 	.word	0x100001cd
10000158:	100001cd 	.word	0x100001cd
1000015c:	100001cd 	.word	0x100001cd
10000160:	100001cd 	.word	0x100001cd
10000164:	100001cd 	.word	0x100001cd
10000168:	100001cd 	.word	0x100001cd
1000016c:	100001cd 	.word	0x100001cd
10000170:	100001cd 	.word	0x100001cd
10000174:	100001cd 	.word	0x100001cd
10000178:	100001cd 	.word	0x100001cd
1000017c:	100001cd 	.word	0x100001cd
10000180:	100001cd 	.word	0x100001cd
10000184:	100001cd 	.word	0x100001cd
10000188:	100001cd 	.word	0x100001cd
1000018c:	100001cd 	.word	0x100001cd
10000190:	100001cd 	.word	0x100001cd
10000194:	100001cd 	.word	0x100001cd
10000198:	100001cd 	.word	0x100001cd
1000019c:	100001cd 	.word	0x100001cd
100001a0:	100001cd 	.word	0x100001cd
100001a4:	100001cd 	.word	0x100001cd
100001a8:	100001cd 	.word	0x100001cd
100001ac:	100001cd 	.word	0x100001cd
100001b0:	100001cd 	.word	0x100001cd
100001b4:	100001cd 	.word	0x100001cd
100001b8:	100001cd 	.word	0x100001cd
100001bc:	100001cd 	.word	0x100001cd

100001c0 <isr_invalid>:
100001c0:	be00      	bkpt	0x0000

100001c2 <isr_nmi>:
100001c2:	be00      	bkpt	0x0000

100001c4 <isr_hardfault>:
100001c4:	be00      	bkpt	0x0000
100001c6:	be00      	bkpt	0x0000
100001c8:	be00      	bkpt	0x0000
100001ca:	be00      	bkpt	0x0000

100001cc <__unhandled_user_irq>:
100001cc:	f000 f84b 	bl	10000266 <__get_current_exception>
100001d0:	3810      	subs	r0, #16

100001d2 <unhandled_user_irq_num_in_r0>:
100001d2:	be00      	bkpt	0x0000

100001d4 <binary_info_header>:
100001d4:	7188ebf2 	.word	0x7188ebf2
100001d8:	1000797c 	.word	0x1000797c
100001dc:	100079a0 	.word	0x100079a0
100001e0:	10000234 	.word	0x10000234
100001e4:	e71aa390 	.word	0xe71aa390

100001e8 <_entry_point>:
100001e8:	2000      	movs	r0, #0
100001ea:	4921      	ldr	r1, [pc, #132]	; (10000270 <__get_current_exception+0xa>)
100001ec:	6008      	str	r0, [r1, #0]
100001ee:	c806      	ldmia	r0!, {r1, r2}
100001f0:	f381 8808 	msr	MSP, r1
100001f4:	4710      	bx	r2

100001f6 <_reset_handler>:
100001f6:	481f      	ldr	r0, [pc, #124]	; (10000274 <__get_current_exception+0xe>)
100001f8:	6800      	ldr	r0, [r0, #0]
100001fa:	2800      	cmp	r0, #0
100001fc:	d12f      	bne.n	1000025e <hold_non_core0_in_bootrom>
100001fe:	a40d      	add	r4, pc, #52	; (adr r4, 10000234 <data_cpy_table>)
10000200:	cc0e      	ldmia	r4!, {r1, r2, r3}
10000202:	2900      	cmp	r1, #0
10000204:	d002      	beq.n	1000020c <_reset_handler+0x16>
10000206:	f000 f812 	bl	1000022e <data_cpy>
1000020a:	e7f9      	b.n	10000200 <_reset_handler+0xa>
1000020c:	491a      	ldr	r1, [pc, #104]	; (10000278 <__get_current_exception+0x12>)
1000020e:	4a1b      	ldr	r2, [pc, #108]	; (1000027c <__get_current_exception+0x16>)
10000210:	2000      	movs	r0, #0
10000212:	e000      	b.n	10000216 <bss_fill_test>

10000214 <bss_fill_loop>:
10000214:	c101      	stmia	r1!, {r0}

10000216 <bss_fill_test>:
10000216:	4291      	cmp	r1, r2
10000218:	d1fc      	bne.n	10000214 <bss_fill_loop>

1000021a <platform_entry>:
1000021a:	4919      	ldr	r1, [pc, #100]	; (10000280 <__get_current_exception+0x1a>)
1000021c:	4788      	blx	r1
1000021e:	4919      	ldr	r1, [pc, #100]	; (10000284 <__get_current_exception+0x1e>)
10000220:	4788      	blx	r1
10000222:	4919      	ldr	r1, [pc, #100]	; (10000288 <__get_current_exception+0x22>)
10000224:	4788      	blx	r1
10000226:	be00      	bkpt	0x0000
10000228:	e7fd      	b.n	10000226 <platform_entry+0xc>

1000022a <data_cpy_loop>:
1000022a:	c901      	ldmia	r1!, {r0}
1000022c:	c201      	stmia	r2!, {r0}

1000022e <data_cpy>:
1000022e:	429a      	cmp	r2, r3
10000230:	d3fb      	bcc.n	1000022a <data_cpy_loop>
10000232:	4770      	bx	lr

10000234 <data_cpy_table>:
10000234:	100079a0 	.word	0x100079a0
10000238:	200000c0 	.word	0x200000c0
1000023c:	20000ac4 	.word	0x20000ac4
10000240:	100083a4 	.word	0x100083a4
10000244:	20040000 	.word	0x20040000
10000248:	20040000 	.word	0x20040000
1000024c:	100083a4 	.word	0x100083a4
10000250:	20041000 	.word	0x20041000
10000254:	20041000 	.word	0x20041000
10000258:	00000000 	.word	0x00000000
1000025c:	4770      	bx	lr

1000025e <hold_non_core0_in_bootrom>:
1000025e:	480b      	ldr	r0, [pc, #44]	; (1000028c <__get_current_exception+0x26>)
10000260:	f002 fd52 	bl	10002d08 <rom_func_lookup>
10000264:	4700      	bx	r0

10000266 <__get_current_exception>:
10000266:	f3ef 8005 	mrs	r0, IPSR
1000026a:	b2c0      	uxtb	r0, r0
1000026c:	4770      	bx	lr
1000026e:	0000      	.short	0x0000
10000270:	e000ed08 	.word	0xe000ed08
10000274:	d0000000 	.word	0xd0000000
10000278:	20000ac8 	.word	0x20000ac8
1000027c:	20001068 	.word	0x20001068
10000280:	10001331 	.word	0x10001331
10000284:	10000339 	.word	0x10000339
10000288:	100012ed 	.word	0x100012ed
1000028c:	00005657 	.word	0x00005657

10000290 <__bi_50>:
10000290:	50520006 5360b3ab 100078b0              ..RP..`S.x..

1000029c <__bi_38>:
1000029c:	50520006 02031c86 100078c0              ..RP.....x..

100002a8 <__bi_30>:
100002a8:	50520006 9da22254 100078c8              ..RPT"...x..

100002b4 <__bi_22>:
100002b4:	50520005 68f465de 100083a4              ..RP.e.h....

100002c0 <_init>:
100002c0:	b5f8      	push	{r3, r4, r5, r6, r7, lr}
100002c2:	46c0      	nop			; (mov r8, r8)

100002c4 <__do_global_dtors_aux>:
100002c4:	b510      	push	{r4, lr}
100002c6:	4c06      	ldr	r4, [pc, #24]	; (100002e0 <__do_global_dtors_aux+0x1c>)
100002c8:	7823      	ldrb	r3, [r4, #0]
100002ca:	2b00      	cmp	r3, #0
100002cc:	d107      	bne.n	100002de <__do_global_dtors_aux+0x1a>
100002ce:	4b05      	ldr	r3, [pc, #20]	; (100002e4 <__do_global_dtors_aux+0x20>)
100002d0:	2b00      	cmp	r3, #0
100002d2:	d002      	beq.n	100002da <__do_global_dtors_aux+0x16>
100002d4:	4804      	ldr	r0, [pc, #16]	; (100002e8 <__do_global_dtors_aux+0x24>)
100002d6:	e000      	b.n	100002da <__do_global_dtors_aux+0x16>
100002d8:	bf00      	nop
100002da:	2301      	movs	r3, #1
100002dc:	7023      	strb	r3, [r4, #0]
100002de:	bd10      	pop	{r4, pc}
100002e0:	20000bc8 	.word	0x20000bc8
100002e4:	00000000 	.word	0x00000000
100002e8:	10006b00 	.word	0x10006b00

100002ec <frame_dummy>:
100002ec:	4b04      	ldr	r3, [pc, #16]	; (10000300 <frame_dummy+0x14>)
100002ee:	b510      	push	{r4, lr}
100002f0:	2b00      	cmp	r3, #0
100002f2:	d003      	beq.n	100002fc <frame_dummy+0x10>
100002f4:	4903      	ldr	r1, [pc, #12]	; (10000304 <frame_dummy+0x18>)
100002f6:	4804      	ldr	r0, [pc, #16]	; (10000308 <frame_dummy+0x1c>)
100002f8:	e000      	b.n	100002fc <frame_dummy+0x10>
100002fa:	bf00      	nop
100002fc:	bd10      	pop	{r4, pc}
100002fe:	46c0      	nop			; (mov r8, r8)
10000300:	00000000 	.word	0x00000000
10000304:	20000bcc 	.word	0x20000bcc
10000308:	10006b00 	.word	0x10006b00

1000030c <led_task>:
1000030c:	b570      	push	{r4, r5, r6, lr}
1000030e:	2019      	movs	r0, #25
10000310:	f000 f840 	bl	10000394 <gpio_init>
10000314:	23d0      	movs	r3, #208	; 0xd0
10000316:	061b      	lsls	r3, r3, #24
10000318:	2280      	movs	r2, #128	; 0x80
1000031a:	0492      	lsls	r2, r2, #18
1000031c:	625a      	str	r2, [r3, #36]	; 0x24
1000031e:	24d0      	movs	r4, #208	; 0xd0
10000320:	0624      	lsls	r4, r4, #24
10000322:	2580      	movs	r5, #128	; 0x80
10000324:	04ad      	lsls	r5, r5, #18
10000326:	6165      	str	r5, [r4, #20]
10000328:	2064      	movs	r0, #100	; 0x64
1000032a:	f004 fad3 	bl	100048d4 <vTaskDelay>
1000032e:	61a5      	str	r5, [r4, #24]
10000330:	2064      	movs	r0, #100	; 0x64
10000332:	f004 facf 	bl	100048d4 <vTaskDelay>
10000336:	e7f2      	b.n	1000031e <led_task+0x12>

10000338 <main>:
10000338:	b500      	push	{lr}
1000033a:	b083      	sub	sp, #12
1000033c:	f003 fd8e 	bl	10003e5c <stdio_init_all>
10000340:	2280      	movs	r2, #128	; 0x80
10000342:	2300      	movs	r3, #0
10000344:	9301      	str	r3, [sp, #4]
10000346:	3301      	adds	r3, #1
10000348:	9300      	str	r3, [sp, #0]
1000034a:	2300      	movs	r3, #0
1000034c:	0052      	lsls	r2, r2, #1
1000034e:	4903      	ldr	r1, [pc, #12]	; (1000035c <main+0x24>)
10000350:	4803      	ldr	r0, [pc, #12]	; (10000360 <main+0x28>)
10000352:	f003 ff7f 	bl	10004254 <xTaskCreate>
10000356:	f004 f90b 	bl	10004570 <vTaskStartScheduler>
1000035a:	e7fe      	b.n	1000035a <main+0x22>
1000035c:	10006b00 	.word	0x10006b00
10000360:	1000030d 	.word	0x1000030d

10000364 <gpio_set_function>:
10000364:	b510      	push	{r4, lr}
10000366:	0083      	lsls	r3, r0, #2
10000368:	4a08      	ldr	r2, [pc, #32]	; (1000038c <gpio_set_function+0x28>)
1000036a:	4694      	mov	ip, r2
1000036c:	4463      	add	r3, ip
1000036e:	681c      	ldr	r4, [r3, #0]
10000370:	2240      	movs	r2, #64	; 0x40
10000372:	4062      	eors	r2, r4
10000374:	24c0      	movs	r4, #192	; 0xc0
10000376:	4014      	ands	r4, r2
10000378:	2280      	movs	r2, #128	; 0x80
1000037a:	0152      	lsls	r2, r2, #5
1000037c:	4313      	orrs	r3, r2
1000037e:	601c      	str	r4, [r3, #0]
10000380:	00c0      	lsls	r0, r0, #3
10000382:	4b03      	ldr	r3, [pc, #12]	; (10000390 <gpio_set_function+0x2c>)
10000384:	469c      	mov	ip, r3
10000386:	4460      	add	r0, ip
10000388:	6041      	str	r1, [r0, #4]
1000038a:	bd10      	pop	{r4, pc}
1000038c:	4001c004 	.word	0x4001c004
10000390:	40014000 	.word	0x40014000

10000394 <gpio_init>:
10000394:	b510      	push	{r4, lr}
10000396:	2301      	movs	r3, #1
10000398:	4083      	lsls	r3, r0
1000039a:	22d0      	movs	r2, #208	; 0xd0
1000039c:	0612      	lsls	r2, r2, #24
1000039e:	6293      	str	r3, [r2, #40]	; 0x28
100003a0:	6193      	str	r3, [r2, #24]
100003a2:	2105      	movs	r1, #5
100003a4:	f7ff ffde 	bl	10000364 <gpio_set_function>
100003a8:	bd10      	pop	{r4, pc}
	...

100003ac <hw_claim_lock>:
100003ac:	f3ef 8010 	mrs	r0, PRIMASK
100003b0:	b672      	cpsid	i
100003b2:	4b03      	ldr	r3, [pc, #12]	; (100003c0 <hw_claim_lock+0x14>)
100003b4:	681b      	ldr	r3, [r3, #0]
100003b6:	2b00      	cmp	r3, #0
100003b8:	d0fb      	beq.n	100003b2 <hw_claim_lock+0x6>
100003ba:	f3bf 8f5f 	dmb	sy
100003be:	4770      	bx	lr
100003c0:	d000012c 	.word	0xd000012c

100003c4 <hw_claim_unlock>:
100003c4:	f3bf 8f5f 	dmb	sy
100003c8:	4b02      	ldr	r3, [pc, #8]	; (100003d4 <hw_claim_unlock+0x10>)
100003ca:	2200      	movs	r2, #0
100003cc:	601a      	str	r2, [r3, #0]
100003ce:	f380 8810 	msr	PRIMASK, r0
100003d2:	4770      	bx	lr
100003d4:	d000012c 	.word	0xd000012c

100003d8 <hw_claim_or_assert>:
100003d8:	b5f8      	push	{r3, r4, r5, r6, r7, lr}
100003da:	0006      	movs	r6, r0
100003dc:	000c      	movs	r4, r1
100003de:	0015      	movs	r5, r2
100003e0:	f7ff ffe4 	bl	100003ac <hw_claim_lock>
100003e4:	08e3      	lsrs	r3, r4, #3
100003e6:	18f7      	adds	r7, r6, r3
100003e8:	5cf1      	ldrb	r1, [r6, r3]
100003ea:	2207      	movs	r2, #7
100003ec:	4022      	ands	r2, r4
100003ee:	2301      	movs	r3, #1
100003f0:	4093      	lsls	r3, r2
100003f2:	420b      	tst	r3, r1
100003f4:	d105      	bne.n	10000402 <hw_claim_or_assert+0x2a>
100003f6:	b2db      	uxtb	r3, r3
100003f8:	430b      	orrs	r3, r1
100003fa:	703b      	strb	r3, [r7, #0]
100003fc:	f7ff ffe2 	bl	100003c4 <hw_claim_unlock>
10000400:	bdf8      	pop	{r3, r4, r5, r6, r7, pc}
10000402:	0021      	movs	r1, r4
10000404:	0028      	movs	r0, r5
10000406:	f001 f80f 	bl	10001428 <panic>
	...

1000040c <running_on_fpga>:
1000040c:	4b03      	ldr	r3, [pc, #12]	; (1000041c <running_on_fpga+0x10>)
1000040e:	681b      	ldr	r3, [r3, #0]
10000410:	2002      	movs	r0, #2
10000412:	4018      	ands	r0, r3
10000414:	1e43      	subs	r3, r0, #1
10000416:	4198      	sbcs	r0, r3
10000418:	b2c0      	uxtb	r0, r0
1000041a:	4770      	bx	lr
1000041c:	4006c000 	.word	0x4006c000

10000420 <spin_locks_reset>:
10000420:	2300      	movs	r3, #0
10000422:	e007      	b.n	10000434 <spin_locks_reset+0x14>
10000424:	4a05      	ldr	r2, [pc, #20]	; (1000043c <spin_locks_reset+0x1c>)
10000426:	189a      	adds	r2, r3, r2
10000428:	0092      	lsls	r2, r2, #2
1000042a:	f3bf 8f5f 	dmb	sy
1000042e:	2100      	movs	r1, #0
10000430:	6011      	str	r1, [r2, #0]
10000432:	3301      	adds	r3, #1
10000434:	2b1f      	cmp	r3, #31
10000436:	d9f5      	bls.n	10000424 <spin_locks_reset+0x4>
10000438:	4770      	bx	lr
1000043a:	46c0      	nop			; (mov r8, r8)
1000043c:	34000040 	.word	0x34000040

10000440 <next_striped_spin_lock_num>:
10000440:	4a05      	ldr	r2, [pc, #20]	; (10000458 <next_striped_spin_lock_num+0x18>)
10000442:	7810      	ldrb	r0, [r2, #0]
10000444:	1c43      	adds	r3, r0, #1
10000446:	b2db      	uxtb	r3, r3
10000448:	7013      	strb	r3, [r2, #0]
1000044a:	2b17      	cmp	r3, #23
1000044c:	d902      	bls.n	10000454 <next_striped_spin_lock_num+0x14>
1000044e:	0013      	movs	r3, r2
10000450:	2210      	movs	r2, #16
10000452:	701a      	strb	r2, [r3, #0]
10000454:	4770      	bx	lr
10000456:	46c0      	nop			; (mov r8, r8)
10000458:	200001b0 	.word	0x200001b0

1000045c <uart_set_baudrate>:
1000045c:	b570      	push	{r4, r5, r6, lr}
1000045e:	0004      	movs	r4, r0
10000460:	000d      	movs	r5, r1
10000462:	2006      	movs	r0, #6
10000464:	f001 f8fa 	bl	1000165c <clock_get_hz>
10000468:	00c0      	lsls	r0, r0, #3
1000046a:	0029      	movs	r1, r5
1000046c:	f002 fca0 	bl	10002db0 <__wrap___aeabi_uidiv>
10000470:	09c6      	lsrs	r6, r0, #7
10000472:	d008      	beq.n	10000486 <uart_set_baudrate+0x2a>
10000474:	4b0e      	ldr	r3, [pc, #56]	; (100004b0 <uart_set_baudrate+0x54>)
10000476:	429e      	cmp	r6, r3
10000478:	d817      	bhi.n	100004aa <uart_set_baudrate+0x4e>
1000047a:	237f      	movs	r3, #127	; 0x7f
1000047c:	4018      	ands	r0, r3
1000047e:	3001      	adds	r0, #1
10000480:	0035      	movs	r5, r6
10000482:	0846      	lsrs	r6, r0, #1
10000484:	e000      	b.n	10000488 <uart_set_baudrate+0x2c>
10000486:	2501      	movs	r5, #1
10000488:	6265      	str	r5, [r4, #36]	; 0x24
1000048a:	62a6      	str	r6, [r4, #40]	; 0x28
1000048c:	342c      	adds	r4, #44	; 0x2c
1000048e:	2080      	movs	r0, #128	; 0x80
10000490:	0180      	lsls	r0, r0, #6
10000492:	4304      	orrs	r4, r0
10000494:	2300      	movs	r3, #0
10000496:	6023      	str	r3, [r4, #0]
10000498:	2006      	movs	r0, #6
1000049a:	f001 f8df 	bl	1000165c <clock_get_hz>
1000049e:	0080      	lsls	r0, r0, #2
100004a0:	01a9      	lsls	r1, r5, #6
100004a2:	1989      	adds	r1, r1, r6
100004a4:	f002 fc84 	bl	10002db0 <__wrap___aeabi_uidiv>
100004a8:	bd70      	pop	{r4, r5, r6, pc}
100004aa:	2600      	movs	r6, #0
100004ac:	4d01      	ldr	r5, [pc, #4]	; (100004b4 <uart_set_baudrate+0x58>)
100004ae:	e7eb      	b.n	10000488 <uart_set_baudrate+0x2c>
100004b0:	0000fffe 	.word	0x0000fffe
100004b4:	0000ffff 	.word	0x0000ffff

100004b8 <uart_set_translate_crlf>:
100004b8:	2900      	cmp	r1, #0
100004ba:	d009      	beq.n	100004d0 <uart_set_translate_crlf+0x18>
100004bc:	220a      	movs	r2, #10
100004be:	4b06      	ldr	r3, [pc, #24]	; (100004d8 <uart_set_translate_crlf+0x20>)
100004c0:	469c      	mov	ip, r3
100004c2:	4460      	add	r0, ip
100004c4:	4243      	negs	r3, r0
100004c6:	4158      	adcs	r0, r3
100004c8:	0040      	lsls	r0, r0, #1
100004ca:	4b04      	ldr	r3, [pc, #16]	; (100004dc <uart_set_translate_crlf+0x24>)
100004cc:	52c2      	strh	r2, [r0, r3]
100004ce:	4770      	bx	lr
100004d0:	2280      	movs	r2, #128	; 0x80
100004d2:	0052      	lsls	r2, r2, #1
100004d4:	e7f3      	b.n	100004be <uart_set_translate_crlf+0x6>
100004d6:	46c0      	nop			; (mov r8, r8)
100004d8:	bffc8000 	.word	0xbffc8000
100004dc:	2000105c 	.word	0x2000105c

100004e0 <uart_init>:
100004e0:	b570      	push	{r4, r5, r6, lr}
100004e2:	0005      	movs	r5, r0
100004e4:	000c      	movs	r4, r1
100004e6:	2006      	movs	r0, #6
100004e8:	f001 f8b8 	bl	1000165c <clock_get_hz>
100004ec:	2800      	cmp	r0, #0
100004ee:	d029      	beq.n	10000544 <uart_init+0x64>
100004f0:	4b16      	ldr	r3, [pc, #88]	; (1000054c <uart_init+0x6c>)
100004f2:	429d      	cmp	r5, r3
100004f4:	d027      	beq.n	10000546 <uart_init+0x66>
100004f6:	2280      	movs	r2, #128	; 0x80
100004f8:	03d2      	lsls	r2, r2, #15
100004fa:	4b15      	ldr	r3, [pc, #84]	; (10000550 <uart_init+0x70>)
100004fc:	601a      	str	r2, [r3, #0]
100004fe:	4b15      	ldr	r3, [pc, #84]	; (10000554 <uart_init+0x74>)
10000500:	601a      	str	r2, [r3, #0]
10000502:	4b15      	ldr	r3, [pc, #84]	; (10000558 <uart_init+0x78>)
10000504:	689b      	ldr	r3, [r3, #8]
10000506:	0011      	movs	r1, r2
10000508:	4399      	bics	r1, r3
1000050a:	d1fa      	bne.n	10000502 <uart_init+0x22>
1000050c:	2100      	movs	r1, #0
1000050e:	0028      	movs	r0, r5
10000510:	f7ff ffd2 	bl	100004b8 <uart_set_translate_crlf>
10000514:	0021      	movs	r1, r4
10000516:	0028      	movs	r0, r5
10000518:	f7ff ffa0 	bl	1000045c <uart_set_baudrate>
1000051c:	002c      	movs	r4, r5
1000051e:	342c      	adds	r4, #44	; 0x2c
10000520:	6ae9      	ldr	r1, [r5, #44]	; 0x2c
10000522:	2260      	movs	r2, #96	; 0x60
10000524:	404a      	eors	r2, r1
10000526:	216e      	movs	r1, #110	; 0x6e
10000528:	4011      	ands	r1, r2
1000052a:	2280      	movs	r2, #128	; 0x80
1000052c:	0152      	lsls	r2, r2, #5
1000052e:	4322      	orrs	r2, r4
10000530:	6011      	str	r1, [r2, #0]
10000532:	4b0a      	ldr	r3, [pc, #40]	; (1000055c <uart_init+0x7c>)
10000534:	632b      	str	r3, [r5, #48]	; 0x30
10000536:	2380      	movs	r3, #128	; 0x80
10000538:	019b      	lsls	r3, r3, #6
1000053a:	4323      	orrs	r3, r4
1000053c:	2210      	movs	r2, #16
1000053e:	601a      	str	r2, [r3, #0]
10000540:	2303      	movs	r3, #3
10000542:	64ab      	str	r3, [r5, #72]	; 0x48
10000544:	bd70      	pop	{r4, r5, r6, pc}
10000546:	2280      	movs	r2, #128	; 0x80
10000548:	0412      	lsls	r2, r2, #16
1000054a:	e7d6      	b.n	100004fa <uart_init+0x1a>
1000054c:	40038000 	.word	0x40038000
10000550:	4000e000 	.word	0x4000e000
10000554:	4000f000 	.word	0x4000f000
10000558:	4000c000 	.word	0x4000c000
1000055c:	00000301 	.word	0x00000301

10000560 <alarm_pool_post_alloc_init>:
10000560:	b570      	push	{r4, r5, r6, lr}
10000562:	0005      	movs	r5, r0
10000564:	000c      	movs	r4, r1
10000566:	0008      	movs	r0, r1
10000568:	f000 fb7a 	bl	10000c60 <hardware_alarm_claim>
1000056c:	0020      	movs	r0, r4
1000056e:	f000 fc4b 	bl	10000e08 <hardware_alarm_cancel>
10000572:	4908      	ldr	r1, [pc, #32]	; (10000594 <alarm_pool_post_alloc_init+0x34>)
10000574:	0020      	movs	r0, r4
10000576:	f000 fb8b 	bl	10000c90 <hardware_alarm_set_callback>
1000057a:	f7ff ff61 	bl	10000440 <next_striped_spin_lock_num>
1000057e:	4b06      	ldr	r3, [pc, #24]	; (10000598 <alarm_pool_post_alloc_init+0x38>)
10000580:	469c      	mov	ip, r3
10000582:	4460      	add	r0, ip
10000584:	0080      	lsls	r0, r0, #2
10000586:	6068      	str	r0, [r5, #4]
10000588:	752c      	strb	r4, [r5, #20]
1000058a:	00a4      	lsls	r4, r4, #2
1000058c:	4b03      	ldr	r3, [pc, #12]	; (1000059c <alarm_pool_post_alloc_init+0x3c>)
1000058e:	50e5      	str	r5, [r4, r3]
10000590:	bd70      	pop	{r4, r5, r6, pc}
10000592:	46c0      	nop			; (mov r8, r8)
10000594:	10000875 	.word	0x10000875
10000598:	34000040 	.word	0x34000040
1000059c:	20000e34 	.word	0x20000e34

100005a0 <timer_pool_entry_comparator>:
100005a0:	b510      	push	{r4, lr}
100005a2:	2900      	cmp	r1, #0
100005a4:	d022      	beq.n	100005ec <timer_pool_entry_comparator+0x4c>
100005a6:	6803      	ldr	r3, [r0, #0]
100005a8:	7b1b      	ldrb	r3, [r3, #12]
100005aa:	4299      	cmp	r1, r3
100005ac:	d81e      	bhi.n	100005ec <timer_pool_entry_comparator+0x4c>
100005ae:	4b17      	ldr	r3, [pc, #92]	; (1000060c <timer_pool_entry_comparator+0x6c>)
100005b0:	469c      	mov	ip, r3
100005b2:	4461      	add	r1, ip
100005b4:	0109      	lsls	r1, r1, #4
100005b6:	6883      	ldr	r3, [r0, #8]
100005b8:	469c      	mov	ip, r3
100005ba:	4461      	add	r1, ip
100005bc:	680c      	ldr	r4, [r1, #0]
100005be:	6849      	ldr	r1, [r1, #4]
100005c0:	2a00      	cmp	r2, #0
100005c2:	d019      	beq.n	100005f8 <timer_pool_entry_comparator+0x58>
100005c4:	6803      	ldr	r3, [r0, #0]
100005c6:	7b1b      	ldrb	r3, [r3, #12]
100005c8:	429a      	cmp	r2, r3
100005ca:	d815      	bhi.n	100005f8 <timer_pool_entry_comparator+0x58>
100005cc:	6883      	ldr	r3, [r0, #8]
100005ce:	480f      	ldr	r0, [pc, #60]	; (1000060c <timer_pool_entry_comparator+0x6c>)
100005d0:	4684      	mov	ip, r0
100005d2:	4462      	add	r2, ip
100005d4:	0112      	lsls	r2, r2, #4
100005d6:	189a      	adds	r2, r3, r2
100005d8:	6810      	ldr	r0, [r2, #0]
100005da:	6853      	ldr	r3, [r2, #4]
100005dc:	0002      	movs	r2, r0
100005de:	2001      	movs	r0, #1
100005e0:	428b      	cmp	r3, r1
100005e2:	d801      	bhi.n	100005e8 <timer_pool_entry_comparator+0x48>
100005e4:	d00e      	beq.n	10000604 <timer_pool_entry_comparator+0x64>
100005e6:	2000      	movs	r0, #0
100005e8:	b2c0      	uxtb	r0, r0
100005ea:	bd10      	pop	{r4, pc}
100005ec:	4b08      	ldr	r3, [pc, #32]	; (10000610 <timer_pool_entry_comparator+0x70>)
100005ee:	4a09      	ldr	r2, [pc, #36]	; (10000614 <timer_pool_entry_comparator+0x74>)
100005f0:	213b      	movs	r1, #59	; 0x3b
100005f2:	4809      	ldr	r0, [pc, #36]	; (10000618 <timer_pool_entry_comparator+0x78>)
100005f4:	f000 fe7e 	bl	100012f4 <__assert_func>
100005f8:	4b05      	ldr	r3, [pc, #20]	; (10000610 <timer_pool_entry_comparator+0x70>)
100005fa:	4a06      	ldr	r2, [pc, #24]	; (10000614 <timer_pool_entry_comparator+0x74>)
100005fc:	213b      	movs	r1, #59	; 0x3b
100005fe:	4806      	ldr	r0, [pc, #24]	; (10000618 <timer_pool_entry_comparator+0x78>)
10000600:	f000 fe78 	bl	100012f4 <__assert_func>
10000604:	42a2      	cmp	r2, r4
10000606:	d8ef      	bhi.n	100005e8 <timer_pool_entry_comparator+0x48>
10000608:	e7ed      	b.n	100005e6 <timer_pool_entry_comparator+0x46>
1000060a:	46c0      	nop			; (mov r8, r8)
1000060c:	0fffffff 	.word	0x0fffffff
10000610:	10006b64 	.word	0x10006b64
10000614:	10006d84 	.word	0x10006d84
10000618:	10006b20 	.word	0x10006b20

1000061c <ph_add_child_node>:
1000061c:	b510      	push	{r4, lr}
1000061e:	2900      	cmp	r1, #0
10000620:	d01e      	beq.n	10000660 <ph_add_child_node+0x44>
10000622:	7b03      	ldrb	r3, [r0, #12]
10000624:	4299      	cmp	r1, r3
10000626:	d81b      	bhi.n	10000660 <ph_add_child_node+0x44>
10000628:	004b      	lsls	r3, r1, #1
1000062a:	185b      	adds	r3, r3, r1
1000062c:	3b03      	subs	r3, #3
1000062e:	6804      	ldr	r4, [r0, #0]
10000630:	46a4      	mov	ip, r4
10000632:	4463      	add	r3, ip
10000634:	2900      	cmp	r1, #0
10000636:	d019      	beq.n	1000066c <ph_add_child_node+0x50>
10000638:	2a00      	cmp	r2, #0
1000063a:	d01d      	beq.n	10000678 <ph_add_child_node+0x5c>
1000063c:	4291      	cmp	r1, r2
1000063e:	d021      	beq.n	10000684 <ph_add_child_node+0x68>
10000640:	2a00      	cmp	r2, #0
10000642:	d025      	beq.n	10000690 <ph_add_child_node+0x74>
10000644:	7b04      	ldrb	r4, [r0, #12]
10000646:	42a2      	cmp	r2, r4
10000648:	d822      	bhi.n	10000690 <ph_add_child_node+0x74>
1000064a:	6804      	ldr	r4, [r0, #0]
1000064c:	0050      	lsls	r0, r2, #1
1000064e:	1880      	adds	r0, r0, r2
10000650:	3803      	subs	r0, #3
10000652:	1820      	adds	r0, r4, r0
10000654:	7081      	strb	r1, [r0, #2]
10000656:	7819      	ldrb	r1, [r3, #0]
10000658:	2900      	cmp	r1, #0
1000065a:	d11f      	bne.n	1000069c <ph_add_child_node+0x80>
1000065c:	701a      	strb	r2, [r3, #0]
1000065e:	bd10      	pop	{r4, pc}
10000660:	4b10      	ldr	r3, [pc, #64]	; (100006a4 <ph_add_child_node+0x88>)
10000662:	4a11      	ldr	r2, [pc, #68]	; (100006a8 <ph_add_child_node+0x8c>)
10000664:	2169      	movs	r1, #105	; 0x69
10000666:	4811      	ldr	r0, [pc, #68]	; (100006ac <ph_add_child_node+0x90>)
10000668:	f000 fe44 	bl	100012f4 <__assert_func>
1000066c:	4b10      	ldr	r3, [pc, #64]	; (100006b0 <ph_add_child_node+0x94>)
1000066e:	4a11      	ldr	r2, [pc, #68]	; (100006b4 <ph_add_child_node+0x98>)
10000670:	3170      	adds	r1, #112	; 0x70
10000672:	480e      	ldr	r0, [pc, #56]	; (100006ac <ph_add_child_node+0x90>)
10000674:	f000 fe3e 	bl	100012f4 <__assert_func>
10000678:	4b0f      	ldr	r3, [pc, #60]	; (100006b8 <ph_add_child_node+0x9c>)
1000067a:	4a0e      	ldr	r2, [pc, #56]	; (100006b4 <ph_add_child_node+0x98>)
1000067c:	2171      	movs	r1, #113	; 0x71
1000067e:	480b      	ldr	r0, [pc, #44]	; (100006ac <ph_add_child_node+0x90>)
10000680:	f000 fe38 	bl	100012f4 <__assert_func>
10000684:	4b0d      	ldr	r3, [pc, #52]	; (100006bc <ph_add_child_node+0xa0>)
10000686:	4a0b      	ldr	r2, [pc, #44]	; (100006b4 <ph_add_child_node+0x98>)
10000688:	2172      	movs	r1, #114	; 0x72
1000068a:	4808      	ldr	r0, [pc, #32]	; (100006ac <ph_add_child_node+0x90>)
1000068c:	f000 fe32 	bl	100012f4 <__assert_func>
10000690:	4b04      	ldr	r3, [pc, #16]	; (100006a4 <ph_add_child_node+0x88>)
10000692:	4a05      	ldr	r2, [pc, #20]	; (100006a8 <ph_add_child_node+0x8c>)
10000694:	2169      	movs	r1, #105	; 0x69
10000696:	4805      	ldr	r0, [pc, #20]	; (100006ac <ph_add_child_node+0x90>)
10000698:	f000 fe2c 	bl	100012f4 <__assert_func>
1000069c:	7041      	strb	r1, [r0, #1]
1000069e:	701a      	strb	r2, [r3, #0]
100006a0:	e7dd      	b.n	1000065e <ph_add_child_node+0x42>
100006a2:	46c0      	nop			; (mov r8, r8)
100006a4:	10006b98 	.word	0x10006b98
100006a8:	10006dd8 	.word	0x10006dd8
100006ac:	10006bb4 	.word	0x10006bb4
100006b0:	10006c08 	.word	0x10006c08
100006b4:	10006db4 	.word	0x10006db4
100006b8:	10006c14 	.word	0x10006c14
100006bc:	10006c20 	.word	0x10006c20

100006c0 <ph_merge_nodes>:
100006c0:	b570      	push	{r4, r5, r6, lr}
100006c2:	0006      	movs	r6, r0
100006c4:	000d      	movs	r5, r1
100006c6:	0014      	movs	r4, r2
100006c8:	2900      	cmp	r1, #0
100006ca:	d014      	beq.n	100006f6 <ph_merge_nodes+0x36>
100006cc:	2a00      	cmp	r2, #0
100006ce:	d014      	beq.n	100006fa <ph_merge_nodes+0x3a>
100006d0:	6880      	ldr	r0, [r0, #8]
100006d2:	6873      	ldr	r3, [r6, #4]
100006d4:	4798      	blx	r3
100006d6:	2800      	cmp	r0, #0
100006d8:	d006      	beq.n	100006e8 <ph_merge_nodes+0x28>
100006da:	0022      	movs	r2, r4
100006dc:	0029      	movs	r1, r5
100006de:	0030      	movs	r0, r6
100006e0:	f7ff ff9c 	bl	1000061c <ph_add_child_node>
100006e4:	0028      	movs	r0, r5
100006e6:	e007      	b.n	100006f8 <ph_merge_nodes+0x38>
100006e8:	002a      	movs	r2, r5
100006ea:	0021      	movs	r1, r4
100006ec:	0030      	movs	r0, r6
100006ee:	f7ff ff95 	bl	1000061c <ph_add_child_node>
100006f2:	0020      	movs	r0, r4
100006f4:	e000      	b.n	100006f8 <ph_merge_nodes+0x38>
100006f6:	0010      	movs	r0, r2
100006f8:	bd70      	pop	{r4, r5, r6, pc}
100006fa:	0008      	movs	r0, r1
100006fc:	e7fc      	b.n	100006f8 <ph_merge_nodes+0x38>
	...

10000700 <add_alarm_under_lock>:
10000700:	b5f0      	push	{r4, r5, r6, r7, lr}
10000702:	b083      	sub	sp, #12
10000704:	0005      	movs	r5, r0
10000706:	9200      	str	r2, [sp, #0]
10000708:	9301      	str	r3, [sp, #4]
1000070a:	ab0a      	add	r3, sp, #40	; 0x28
1000070c:	781c      	ldrb	r4, [r3, #0]
1000070e:	ab0b      	add	r3, sp, #44	; 0x2c
10000710:	781f      	ldrb	r7, [r3, #0]
10000712:	2c00      	cmp	r4, #0
10000714:	d026      	beq.n	10000764 <add_alarm_under_lock+0x64>
10000716:	6803      	ldr	r3, [r0, #0]
10000718:	7b5a      	ldrb	r2, [r3, #13]
1000071a:	4294      	cmp	r4, r2
1000071c:	d107      	bne.n	1000072e <add_alarm_under_lock+0x2e>
1000071e:	2301      	movs	r3, #1
10000720:	2b00      	cmp	r3, #0
10000722:	d119      	bne.n	10000758 <add_alarm_under_lock+0x58>
10000724:	2c00      	cmp	r4, #0
10000726:	d13b      	bne.n	100007a0 <add_alarm_under_lock+0xa0>
10000728:	0020      	movs	r0, r4
1000072a:	b003      	add	sp, #12
1000072c:	bdf0      	pop	{r4, r5, r6, r7, pc}
1000072e:	2c00      	cmp	r4, #0
10000730:	d00c      	beq.n	1000074c <add_alarm_under_lock+0x4c>
10000732:	7b1a      	ldrb	r2, [r3, #12]
10000734:	4294      	cmp	r4, r2
10000736:	d809      	bhi.n	1000074c <add_alarm_under_lock+0x4c>
10000738:	681a      	ldr	r2, [r3, #0]
1000073a:	0063      	lsls	r3, r4, #1
1000073c:	191b      	adds	r3, r3, r4
1000073e:	3b03      	subs	r3, #3
10000740:	18d3      	adds	r3, r2, r3
10000742:	789b      	ldrb	r3, [r3, #2]
10000744:	2b00      	cmp	r3, #0
10000746:	d0eb      	beq.n	10000720 <add_alarm_under_lock+0x20>
10000748:	2301      	movs	r3, #1
1000074a:	e7e9      	b.n	10000720 <add_alarm_under_lock+0x20>
1000074c:	4b3e      	ldr	r3, [pc, #248]	; (10000848 <add_alarm_under_lock+0x148>)
1000074e:	4a3f      	ldr	r2, [pc, #252]	; (1000084c <add_alarm_under_lock+0x14c>)
10000750:	2169      	movs	r1, #105	; 0x69
10000752:	483f      	ldr	r0, [pc, #252]	; (10000850 <add_alarm_under_lock+0x150>)
10000754:	f000 fdce 	bl	100012f4 <__assert_func>
10000758:	4b3e      	ldr	r3, [pc, #248]	; (10000854 <add_alarm_under_lock+0x154>)
1000075a:	4a3f      	ldr	r2, [pc, #252]	; (10000858 <add_alarm_under_lock+0x158>)
1000075c:	2165      	movs	r1, #101	; 0x65
1000075e:	483f      	ldr	r0, [pc, #252]	; (1000085c <add_alarm_under_lock+0x15c>)
10000760:	f000 fdc8 	bl	100012f4 <__assert_func>
10000764:	6803      	ldr	r3, [r0, #0]
10000766:	7b9c      	ldrb	r4, [r3, #14]
10000768:	2c00      	cmp	r4, #0
1000076a:	d0db      	beq.n	10000724 <add_alarm_under_lock+0x24>
1000076c:	d012      	beq.n	10000794 <add_alarm_under_lock+0x94>
1000076e:	7b1a      	ldrb	r2, [r3, #12]
10000770:	4294      	cmp	r4, r2
10000772:	d80f      	bhi.n	10000794 <add_alarm_under_lock+0x94>
10000774:	0062      	lsls	r2, r4, #1
10000776:	1912      	adds	r2, r2, r4
10000778:	3a03      	subs	r2, #3
1000077a:	6819      	ldr	r1, [r3, #0]
1000077c:	468c      	mov	ip, r1
1000077e:	4462      	add	r2, ip
10000780:	7851      	ldrb	r1, [r2, #1]
10000782:	7399      	strb	r1, [r3, #14]
10000784:	2900      	cmp	r1, #0
10000786:	d100      	bne.n	1000078a <add_alarm_under_lock+0x8a>
10000788:	73d9      	strb	r1, [r3, #15]
1000078a:	2300      	movs	r3, #0
1000078c:	7093      	strb	r3, [r2, #2]
1000078e:	7053      	strb	r3, [r2, #1]
10000790:	7013      	strb	r3, [r2, #0]
10000792:	e7c7      	b.n	10000724 <add_alarm_under_lock+0x24>
10000794:	4b2c      	ldr	r3, [pc, #176]	; (10000848 <add_alarm_under_lock+0x148>)
10000796:	4a2d      	ldr	r2, [pc, #180]	; (1000084c <add_alarm_under_lock+0x14c>)
10000798:	2169      	movs	r1, #105	; 0x69
1000079a:	482d      	ldr	r0, [pc, #180]	; (10000850 <add_alarm_under_lock+0x150>)
1000079c:	f000 fdaa 	bl	100012f4 <__assert_func>
100007a0:	2c00      	cmp	r4, #0
100007a2:	d03a      	beq.n	1000081a <add_alarm_under_lock+0x11a>
100007a4:	682b      	ldr	r3, [r5, #0]
100007a6:	7b1b      	ldrb	r3, [r3, #12]
100007a8:	429c      	cmp	r4, r3
100007aa:	d836      	bhi.n	1000081a <add_alarm_under_lock+0x11a>
100007ac:	4b2c      	ldr	r3, [pc, #176]	; (10000860 <add_alarm_under_lock+0x160>)
100007ae:	18e3      	adds	r3, r4, r3
100007b0:	011b      	lsls	r3, r3, #4
100007b2:	68aa      	ldr	r2, [r5, #8]
100007b4:	4694      	mov	ip, r2
100007b6:	4463      	add	r3, ip
100007b8:	9a00      	ldr	r2, [sp, #0]
100007ba:	601a      	str	r2, [r3, #0]
100007bc:	9a01      	ldr	r2, [sp, #4]
100007be:	605a      	str	r2, [r3, #4]
100007c0:	9a08      	ldr	r2, [sp, #32]
100007c2:	609a      	str	r2, [r3, #8]
100007c4:	9a09      	ldr	r2, [sp, #36]	; 0x24
100007c6:	60da      	str	r2, [r3, #12]
100007c8:	682e      	ldr	r6, [r5, #0]
100007ca:	2c00      	cmp	r4, #0
100007cc:	d02b      	beq.n	10000826 <add_alarm_under_lock+0x126>
100007ce:	d030      	beq.n	10000832 <add_alarm_under_lock+0x132>
100007d0:	7b33      	ldrb	r3, [r6, #12]
100007d2:	429c      	cmp	r4, r3
100007d4:	d82d      	bhi.n	10000832 <add_alarm_under_lock+0x132>
100007d6:	0063      	lsls	r3, r4, #1
100007d8:	191b      	adds	r3, r3, r4
100007da:	3b03      	subs	r3, #3
100007dc:	6832      	ldr	r2, [r6, #0]
100007de:	4694      	mov	ip, r2
100007e0:	4463      	add	r3, ip
100007e2:	2200      	movs	r2, #0
100007e4:	709a      	strb	r2, [r3, #2]
100007e6:	705a      	strb	r2, [r3, #1]
100007e8:	701a      	strb	r2, [r3, #0]
100007ea:	7b71      	ldrb	r1, [r6, #13]
100007ec:	0022      	movs	r2, r4
100007ee:	0030      	movs	r0, r6
100007f0:	f7ff ff66 	bl	100006c0 <ph_merge_nodes>
100007f4:	7370      	strb	r0, [r6, #13]
100007f6:	4284      	cmp	r4, r0
100007f8:	d000      	beq.n	100007fc <add_alarm_under_lock+0xfc>
100007fa:	e795      	b.n	10000728 <add_alarm_under_lock+0x28>
100007fc:	7d28      	ldrb	r0, [r5, #20]
100007fe:	9a00      	ldr	r2, [sp, #0]
10000800:	9b01      	ldr	r3, [sp, #4]
10000802:	f000 fa8d 	bl	10000d20 <hardware_alarm_set_target>
10000806:	1e06      	subs	r6, r0, #0
10000808:	d001      	beq.n	1000080e <add_alarm_under_lock+0x10e>
1000080a:	2f00      	cmp	r7, #0
1000080c:	d017      	beq.n	1000083e <add_alarm_under_lock+0x13e>
1000080e:	9b0c      	ldr	r3, [sp, #48]	; 0x30
10000810:	2b00      	cmp	r3, #0
10000812:	d100      	bne.n	10000816 <add_alarm_under_lock+0x116>
10000814:	e788      	b.n	10000728 <add_alarm_under_lock+0x28>
10000816:	701e      	strb	r6, [r3, #0]
10000818:	e786      	b.n	10000728 <add_alarm_under_lock+0x28>
1000081a:	4b12      	ldr	r3, [pc, #72]	; (10000864 <add_alarm_under_lock+0x164>)
1000081c:	4a12      	ldr	r2, [pc, #72]	; (10000868 <add_alarm_under_lock+0x168>)
1000081e:	213b      	movs	r1, #59	; 0x3b
10000820:	480e      	ldr	r0, [pc, #56]	; (1000085c <add_alarm_under_lock+0x15c>)
10000822:	f000 fd67 	bl	100012f4 <__assert_func>
10000826:	4b11      	ldr	r3, [pc, #68]	; (1000086c <add_alarm_under_lock+0x16c>)
10000828:	4a11      	ldr	r2, [pc, #68]	; (10000870 <add_alarm_under_lock+0x170>)
1000082a:	21a6      	movs	r1, #166	; 0xa6
1000082c:	4808      	ldr	r0, [pc, #32]	; (10000850 <add_alarm_under_lock+0x150>)
1000082e:	f000 fd61 	bl	100012f4 <__assert_func>
10000832:	4b05      	ldr	r3, [pc, #20]	; (10000848 <add_alarm_under_lock+0x148>)
10000834:	4a05      	ldr	r2, [pc, #20]	; (1000084c <add_alarm_under_lock+0x14c>)
10000836:	2169      	movs	r1, #105	; 0x69
10000838:	4805      	ldr	r0, [pc, #20]	; (10000850 <add_alarm_under_lock+0x150>)
1000083a:	f000 fd5b 	bl	100012f4 <__assert_func>
1000083e:	6828      	ldr	r0, [r5, #0]
10000840:	0021      	movs	r1, r4
10000842:	f000 fcb9 	bl	100011b8 <ph_remove_and_free_node>
10000846:	e7e2      	b.n	1000080e <add_alarm_under_lock+0x10e>
10000848:	10006b98 	.word	0x10006b98
1000084c:	10006dd8 	.word	0x10006dd8
10000850:	10006bb4 	.word	0x10006bb4
10000854:	10006c38 	.word	0x10006c38
10000858:	10006de4 	.word	0x10006de4
1000085c:	10006b20 	.word	0x10006b20
10000860:	0fffffff 	.word	0x0fffffff
10000864:	10006b64 	.word	0x10006b64
10000868:	10006d84 	.word	0x10006d84
1000086c:	10006b1c 	.word	0x10006b1c
10000870:	10006dc8 	.word	0x10006dc8

10000874 <alarm_pool_alarm_callback>:
10000874:	b5f0      	push	{r4, r5, r6, r7, lr}
10000876:	46de      	mov	lr, fp
10000878:	4657      	mov	r7, sl
1000087a:	464e      	mov	r6, r9
1000087c:	4645      	mov	r5, r8
1000087e:	b5e0      	push	{r5, r6, r7, lr}
10000880:	b08b      	sub	sp, #44	; 0x2c
10000882:	9009      	str	r0, [sp, #36]	; 0x24
10000884:	2300      	movs	r3, #0
10000886:	9308      	str	r3, [sp, #32]
10000888:	0082      	lsls	r2, r0, #2
1000088a:	4bb2      	ldr	r3, [pc, #712]	; (10000b54 <alarm_pool_alarm_callback+0x2e0>)
1000088c:	58d6      	ldr	r6, [r2, r3]
1000088e:	0037      	movs	r7, r6
10000890:	e032      	b.n	100008f8 <alarm_pool_alarm_callback+0x84>
10000892:	4bb1      	ldr	r3, [pc, #708]	; (10000b58 <alarm_pool_alarm_callback+0x2e4>)
10000894:	4ab1      	ldr	r2, [pc, #708]	; (10000b5c <alarm_pool_alarm_callback+0x2e8>)
10000896:	213f      	movs	r1, #63	; 0x3f
10000898:	48b1      	ldr	r0, [pc, #708]	; (10000b60 <alarm_pool_alarm_callback+0x2ec>)
1000089a:	f000 fd2b 	bl	100012f4 <__assert_func>
1000089e:	4bb1      	ldr	r3, [pc, #708]	; (10000b64 <alarm_pool_alarm_callback+0x2f0>)
100008a0:	4ab1      	ldr	r2, [pc, #708]	; (10000b68 <alarm_pool_alarm_callback+0x2f4>)
100008a2:	213b      	movs	r1, #59	; 0x3b
100008a4:	48b1      	ldr	r0, [pc, #708]	; (10000b6c <alarm_pool_alarm_callback+0x2f8>)
100008a6:	f000 fd25 	bl	100012f4 <__assert_func>
100008aa:	4bb1      	ldr	r3, [pc, #708]	; (10000b70 <alarm_pool_alarm_callback+0x2fc>)
100008ac:	4ab1      	ldr	r2, [pc, #708]	; (10000b74 <alarm_pool_alarm_callback+0x300>)
100008ae:	218c      	movs	r1, #140	; 0x8c
100008b0:	48ae      	ldr	r0, [pc, #696]	; (10000b6c <alarm_pool_alarm_callback+0x2f8>)
100008b2:	f000 fd1f 	bl	100012f4 <__assert_func>
100008b6:	4bb0      	ldr	r3, [pc, #704]	; (10000b78 <alarm_pool_alarm_callback+0x304>)
100008b8:	4aae      	ldr	r2, [pc, #696]	; (10000b74 <alarm_pool_alarm_callback+0x300>)
100008ba:	2190      	movs	r1, #144	; 0x90
100008bc:	48ab      	ldr	r0, [pc, #684]	; (10000b6c <alarm_pool_alarm_callback+0x2f8>)
100008be:	f000 fd19 	bl	100012f4 <__assert_func>
100008c2:	4ba8      	ldr	r3, [pc, #672]	; (10000b64 <alarm_pool_alarm_callback+0x2f0>)
100008c4:	4aad      	ldr	r2, [pc, #692]	; (10000b7c <alarm_pool_alarm_callback+0x308>)
100008c6:	2140      	movs	r1, #64	; 0x40
100008c8:	48a8      	ldr	r0, [pc, #672]	; (10000b6c <alarm_pool_alarm_callback+0x2f8>)
100008ca:	f000 fd13 	bl	100012f4 <__assert_func>
100008ce:	682a      	ldr	r2, [r5, #0]
100008d0:	686b      	ldr	r3, [r5, #4]
100008d2:	9809      	ldr	r0, [sp, #36]	; 0x24
100008d4:	f000 fa24 	bl	10000d20 <hardware_alarm_set_target>
100008d8:	2300      	movs	r3, #0
100008da:	469a      	mov	sl, r3
100008dc:	4698      	mov	r8, r3
100008de:	687b      	ldr	r3, [r7, #4]
100008e0:	f3bf 8f5f 	dmb	sy
100008e4:	2200      	movs	r2, #0
100008e6:	601a      	str	r2, [r3, #0]
100008e8:	f386 8810 	msr	PRIMASK, r6
100008ec:	4643      	mov	r3, r8
100008ee:	2b00      	cmp	r3, #0
100008f0:	d151      	bne.n	10000996 <alarm_pool_alarm_callback+0x122>
100008f2:	2800      	cmp	r0, #0
100008f4:	d100      	bne.n	100008f8 <alarm_pool_alarm_callback+0x84>
100008f6:	e126      	b.n	10000b46 <alarm_pool_alarm_callback+0x2d2>
100008f8:	f000 f9be 	bl	10000c78 <time_us_64>
100008fc:	0002      	movs	r2, r0
100008fe:	1e0b      	subs	r3, r1, #0
10000900:	dbc7      	blt.n	10000892 <alarm_pool_alarm_callback+0x1e>
10000902:	2000      	movs	r0, #0
10000904:	2100      	movs	r1, #0
10000906:	9006      	str	r0, [sp, #24]
10000908:	9107      	str	r1, [sp, #28]
1000090a:	6878      	ldr	r0, [r7, #4]
1000090c:	f3ef 8610 	mrs	r6, PRIMASK
10000910:	b672      	cpsid	i
10000912:	6801      	ldr	r1, [r0, #0]
10000914:	2900      	cmp	r1, #0
10000916:	d0fc      	beq.n	10000912 <alarm_pool_alarm_callback+0x9e>
10000918:	f3bf 8f5f 	dmb	sy
1000091c:	6839      	ldr	r1, [r7, #0]
1000091e:	4688      	mov	r8, r1
10000920:	7b4c      	ldrb	r4, [r1, #13]
10000922:	2c00      	cmp	r4, #0
10000924:	d032      	beq.n	1000098c <alarm_pool_alarm_callback+0x118>
10000926:	d0ba      	beq.n	1000089e <alarm_pool_alarm_callback+0x2a>
10000928:	7b09      	ldrb	r1, [r1, #12]
1000092a:	428c      	cmp	r4, r1
1000092c:	d8b7      	bhi.n	1000089e <alarm_pool_alarm_callback+0x2a>
1000092e:	4994      	ldr	r1, [pc, #592]	; (10000b80 <alarm_pool_alarm_callback+0x30c>)
10000930:	1865      	adds	r5, r4, r1
10000932:	012d      	lsls	r5, r5, #4
10000934:	68b9      	ldr	r1, [r7, #8]
10000936:	468c      	mov	ip, r1
10000938:	4465      	add	r5, ip
1000093a:	6828      	ldr	r0, [r5, #0]
1000093c:	6869      	ldr	r1, [r5, #4]
1000093e:	1a80      	subs	r0, r0, r2
10000940:	4199      	sbcs	r1, r3
10000942:	2900      	cmp	r1, #0
10000944:	dcc3      	bgt.n	100008ce <alarm_pool_alarm_callback+0x5a>
10000946:	d101      	bne.n	1000094c <alarm_pool_alarm_callback+0xd8>
10000948:	2800      	cmp	r0, #0
1000094a:	d1c0      	bne.n	100008ce <alarm_pool_alarm_callback+0x5a>
1000094c:	2100      	movs	r1, #0
1000094e:	4640      	mov	r0, r8
10000950:	f000 fc28 	bl	100011a4 <ph_remove_head>
10000954:	42a0      	cmp	r0, r4
10000956:	d1a8      	bne.n	100008aa <alarm_pool_alarm_callback+0x36>
10000958:	682a      	ldr	r2, [r5, #0]
1000095a:	686b      	ldr	r3, [r5, #4]
1000095c:	9206      	str	r2, [sp, #24]
1000095e:	9307      	str	r3, [sp, #28]
10000960:	68ab      	ldr	r3, [r5, #8]
10000962:	4698      	mov	r8, r3
10000964:	68eb      	ldr	r3, [r5, #12]
10000966:	469a      	mov	sl, r3
10000968:	4643      	mov	r3, r8
1000096a:	2b00      	cmp	r3, #0
1000096c:	d0a3      	beq.n	100008b6 <alarm_pool_alarm_callback+0x42>
1000096e:	2c00      	cmp	r4, #0
10000970:	d0a7      	beq.n	100008c2 <alarm_pool_alarm_callback+0x4e>
10000972:	683b      	ldr	r3, [r7, #0]
10000974:	7b1b      	ldrb	r3, [r3, #12]
10000976:	429c      	cmp	r4, r3
10000978:	d8a3      	bhi.n	100008c2 <alarm_pool_alarm_callback+0x4e>
1000097a:	1e63      	subs	r3, r4, #1
1000097c:	68fa      	ldr	r2, [r7, #12]
1000097e:	5cd3      	ldrb	r3, [r2, r3]
10000980:	9308      	str	r3, [sp, #32]
10000982:	021b      	lsls	r3, r3, #8
10000984:	4318      	orrs	r0, r3
10000986:	6138      	str	r0, [r7, #16]
10000988:	2000      	movs	r0, #0
1000098a:	e7a8      	b.n	100008de <alarm_pool_alarm_callback+0x6a>
1000098c:	2300      	movs	r3, #0
1000098e:	469a      	mov	sl, r3
10000990:	4698      	mov	r8, r3
10000992:	2000      	movs	r0, #0
10000994:	e7a3      	b.n	100008de <alarm_pool_alarm_callback+0x6a>
10000996:	9b08      	ldr	r3, [sp, #32]
10000998:	021b      	lsls	r3, r3, #8
1000099a:	4323      	orrs	r3, r4
1000099c:	4699      	mov	r9, r3
1000099e:	4651      	mov	r1, sl
100009a0:	0018      	movs	r0, r3
100009a2:	47c0      	blx	r8
100009a4:	0005      	movs	r5, r0
100009a6:	000e      	movs	r6, r1
100009a8:	687a      	ldr	r2, [r7, #4]
100009aa:	f3ef 8b10 	mrs	fp, PRIMASK
100009ae:	b672      	cpsid	i
100009b0:	6813      	ldr	r3, [r2, #0]
100009b2:	4259      	negs	r1, r3
100009b4:	414b      	adcs	r3, r1
100009b6:	b2d9      	uxtb	r1, r3
100009b8:	2b00      	cmp	r3, #0
100009ba:	d1f9      	bne.n	100009b0 <alarm_pool_alarm_callback+0x13c>
100009bc:	f3bf 8f5f 	dmb	sy
100009c0:	2e00      	cmp	r6, #0
100009c2:	db26      	blt.n	10000a12 <alarm_pool_alarm_callback+0x19e>
100009c4:	2e00      	cmp	r6, #0
100009c6:	dd52      	ble.n	10000a6e <alarm_pool_alarm_callback+0x1fa>
100009c8:	693b      	ldr	r3, [r7, #16]
100009ca:	2b00      	cmp	r3, #0
100009cc:	d053      	beq.n	10000a76 <alarm_pool_alarm_callback+0x202>
100009ce:	454b      	cmp	r3, r9
100009d0:	d172      	bne.n	10000ab8 <alarm_pool_alarm_callback+0x244>
100009d2:	f000 f951 	bl	10000c78 <time_us_64>
100009d6:	0002      	movs	r2, r0
100009d8:	1e0b      	subs	r3, r1, #0
100009da:	db73      	blt.n	10000ac4 <alarm_pool_alarm_callback+0x250>
100009dc:	0001      	movs	r1, r0
100009de:	0018      	movs	r0, r3
100009e0:	1952      	adds	r2, r2, r5
100009e2:	4173      	adcs	r3, r6
100009e4:	4298      	cmp	r0, r3
100009e6:	d802      	bhi.n	100009ee <alarm_pool_alarm_callback+0x17a>
100009e8:	d104      	bne.n	100009f4 <alarm_pool_alarm_callback+0x180>
100009ea:	4291      	cmp	r1, r2
100009ec:	d902      	bls.n	100009f4 <alarm_pool_alarm_callback+0x180>
100009ee:	2201      	movs	r2, #1
100009f0:	4252      	negs	r2, r2
100009f2:	17d3      	asrs	r3, r2, #31
100009f4:	2b00      	cmp	r3, #0
100009f6:	db6b      	blt.n	10000ad0 <alarm_pool_alarm_callback+0x25c>
100009f8:	2100      	movs	r1, #0
100009fa:	9104      	str	r1, [sp, #16]
100009fc:	3101      	adds	r1, #1
100009fe:	9103      	str	r1, [sp, #12]
10000a00:	9402      	str	r4, [sp, #8]
10000a02:	4651      	mov	r1, sl
10000a04:	9101      	str	r1, [sp, #4]
10000a06:	4641      	mov	r1, r8
10000a08:	9100      	str	r1, [sp, #0]
10000a0a:	0038      	movs	r0, r7
10000a0c:	f7ff fe78 	bl	10000700 <add_alarm_under_lock>
10000a10:	e049      	b.n	10000aa6 <alarm_pool_alarm_callback+0x232>
10000a12:	693b      	ldr	r3, [r7, #16]
10000a14:	2b00      	cmp	r3, #0
10000a16:	d0d5      	beq.n	100009c4 <alarm_pool_alarm_callback+0x150>
10000a18:	454b      	cmp	r3, r9
10000a1a:	d11c      	bne.n	10000a56 <alarm_pool_alarm_callback+0x1e2>
10000a1c:	9a06      	ldr	r2, [sp, #24]
10000a1e:	9b07      	ldr	r3, [sp, #28]
10000a20:	0010      	movs	r0, r2
10000a22:	0019      	movs	r1, r3
10000a24:	1b52      	subs	r2, r2, r5
10000a26:	41b3      	sbcs	r3, r6
10000a28:	4299      	cmp	r1, r3
10000a2a:	d802      	bhi.n	10000a32 <alarm_pool_alarm_callback+0x1be>
10000a2c:	d104      	bne.n	10000a38 <alarm_pool_alarm_callback+0x1c4>
10000a2e:	4290      	cmp	r0, r2
10000a30:	d902      	bls.n	10000a38 <alarm_pool_alarm_callback+0x1c4>
10000a32:	2201      	movs	r2, #1
10000a34:	4252      	negs	r2, r2
10000a36:	17d3      	asrs	r3, r2, #31
10000a38:	2b00      	cmp	r3, #0
10000a3a:	db12      	blt.n	10000a62 <alarm_pool_alarm_callback+0x1ee>
10000a3c:	2100      	movs	r1, #0
10000a3e:	9104      	str	r1, [sp, #16]
10000a40:	3101      	adds	r1, #1
10000a42:	9103      	str	r1, [sp, #12]
10000a44:	9402      	str	r4, [sp, #8]
10000a46:	4651      	mov	r1, sl
10000a48:	9101      	str	r1, [sp, #4]
10000a4a:	4641      	mov	r1, r8
10000a4c:	9100      	str	r1, [sp, #0]
10000a4e:	0038      	movs	r0, r7
10000a50:	f7ff fe56 	bl	10000700 <add_alarm_under_lock>
10000a54:	e027      	b.n	10000aa6 <alarm_pool_alarm_callback+0x232>
10000a56:	4b4b      	ldr	r3, [pc, #300]	; (10000b84 <alarm_pool_alarm_callback+0x310>)
10000a58:	4a46      	ldr	r2, [pc, #280]	; (10000b74 <alarm_pool_alarm_callback+0x300>)
10000a5a:	219f      	movs	r1, #159	; 0x9f
10000a5c:	4843      	ldr	r0, [pc, #268]	; (10000b6c <alarm_pool_alarm_callback+0x2f8>)
10000a5e:	f000 fc49 	bl	100012f4 <__assert_func>
10000a62:	4b3d      	ldr	r3, [pc, #244]	; (10000b58 <alarm_pool_alarm_callback+0x2e4>)
10000a64:	4a3d      	ldr	r2, [pc, #244]	; (10000b5c <alarm_pool_alarm_callback+0x2e8>)
10000a66:	213f      	movs	r1, #63	; 0x3f
10000a68:	483d      	ldr	r0, [pc, #244]	; (10000b60 <alarm_pool_alarm_callback+0x2ec>)
10000a6a:	f000 fc43 	bl	100012f4 <__assert_func>
10000a6e:	2e00      	cmp	r6, #0
10000a70:	d101      	bne.n	10000a76 <alarm_pool_alarm_callback+0x202>
10000a72:	2d00      	cmp	r5, #0
10000a74:	d1a8      	bne.n	100009c8 <alarm_pool_alarm_callback+0x154>
10000a76:	683a      	ldr	r2, [r7, #0]
10000a78:	2c00      	cmp	r4, #0
10000a7a:	d045      	beq.n	10000b08 <alarm_pool_alarm_callback+0x294>
10000a7c:	7b53      	ldrb	r3, [r2, #13]
10000a7e:	429c      	cmp	r4, r3
10000a80:	d12c      	bne.n	10000adc <alarm_pool_alarm_callback+0x268>
10000a82:	2101      	movs	r1, #1
10000a84:	2900      	cmp	r1, #0
10000a86:	d13f      	bne.n	10000b08 <alarm_pool_alarm_callback+0x294>
10000a88:	7bd3      	ldrb	r3, [r2, #15]
10000a8a:	2b00      	cmp	r3, #0
10000a8c:	d142      	bne.n	10000b14 <alarm_pool_alarm_callback+0x2a0>
10000a8e:	73d4      	strb	r4, [r2, #15]
10000a90:	2c00      	cmp	r4, #0
10000a92:	d052      	beq.n	10000b3a <alarm_pool_alarm_callback+0x2c6>
10000a94:	683b      	ldr	r3, [r7, #0]
10000a96:	7b1b      	ldrb	r3, [r3, #12]
10000a98:	429c      	cmp	r4, r3
10000a9a:	d84e      	bhi.n	10000b3a <alarm_pool_alarm_callback+0x2c6>
10000a9c:	68fa      	ldr	r2, [r7, #12]
10000a9e:	3c01      	subs	r4, #1
10000aa0:	5d13      	ldrb	r3, [r2, r4]
10000aa2:	3301      	adds	r3, #1
10000aa4:	5513      	strb	r3, [r2, r4]
10000aa6:	2300      	movs	r3, #0
10000aa8:	613b      	str	r3, [r7, #16]
10000aaa:	687a      	ldr	r2, [r7, #4]
10000aac:	f3bf 8f5f 	dmb	sy
10000ab0:	6013      	str	r3, [r2, #0]
10000ab2:	f38b 8810 	msr	PRIMASK, fp
10000ab6:	e71f      	b.n	100008f8 <alarm_pool_alarm_callback+0x84>
10000ab8:	4b32      	ldr	r3, [pc, #200]	; (10000b84 <alarm_pool_alarm_callback+0x310>)
10000aba:	4a2e      	ldr	r2, [pc, #184]	; (10000b74 <alarm_pool_alarm_callback+0x300>)
10000abc:	21a2      	movs	r1, #162	; 0xa2
10000abe:	482b      	ldr	r0, [pc, #172]	; (10000b6c <alarm_pool_alarm_callback+0x2f8>)
10000ac0:	f000 fc18 	bl	100012f4 <__assert_func>
10000ac4:	4b24      	ldr	r3, [pc, #144]	; (10000b58 <alarm_pool_alarm_callback+0x2e4>)
10000ac6:	4a25      	ldr	r2, [pc, #148]	; (10000b5c <alarm_pool_alarm_callback+0x2e8>)
10000ac8:	213f      	movs	r1, #63	; 0x3f
10000aca:	4825      	ldr	r0, [pc, #148]	; (10000b60 <alarm_pool_alarm_callback+0x2ec>)
10000acc:	f000 fc12 	bl	100012f4 <__assert_func>
10000ad0:	4b21      	ldr	r3, [pc, #132]	; (10000b58 <alarm_pool_alarm_callback+0x2e4>)
10000ad2:	4a22      	ldr	r2, [pc, #136]	; (10000b5c <alarm_pool_alarm_callback+0x2e8>)
10000ad4:	213f      	movs	r1, #63	; 0x3f
10000ad6:	4822      	ldr	r0, [pc, #136]	; (10000b60 <alarm_pool_alarm_callback+0x2ec>)
10000ad8:	f000 fc0c 	bl	100012f4 <__assert_func>
10000adc:	2c00      	cmp	r4, #0
10000ade:	d00d      	beq.n	10000afc <alarm_pool_alarm_callback+0x288>
10000ae0:	7b13      	ldrb	r3, [r2, #12]
10000ae2:	429c      	cmp	r4, r3
10000ae4:	d80a      	bhi.n	10000afc <alarm_pool_alarm_callback+0x288>
10000ae6:	0063      	lsls	r3, r4, #1
10000ae8:	191b      	adds	r3, r3, r4
10000aea:	3b03      	subs	r3, #3
10000aec:	6810      	ldr	r0, [r2, #0]
10000aee:	4684      	mov	ip, r0
10000af0:	4463      	add	r3, ip
10000af2:	789b      	ldrb	r3, [r3, #2]
10000af4:	2b00      	cmp	r3, #0
10000af6:	d0c5      	beq.n	10000a84 <alarm_pool_alarm_callback+0x210>
10000af8:	2101      	movs	r1, #1
10000afa:	e7c3      	b.n	10000a84 <alarm_pool_alarm_callback+0x210>
10000afc:	4b22      	ldr	r3, [pc, #136]	; (10000b88 <alarm_pool_alarm_callback+0x314>)
10000afe:	4a23      	ldr	r2, [pc, #140]	; (10000b8c <alarm_pool_alarm_callback+0x318>)
10000b00:	2169      	movs	r1, #105	; 0x69
10000b02:	4823      	ldr	r0, [pc, #140]	; (10000b90 <alarm_pool_alarm_callback+0x31c>)
10000b04:	f000 fbf6 	bl	100012f4 <__assert_func>
10000b08:	4b22      	ldr	r3, [pc, #136]	; (10000b94 <alarm_pool_alarm_callback+0x320>)
10000b0a:	4a23      	ldr	r2, [pc, #140]	; (10000b98 <alarm_pool_alarm_callback+0x324>)
10000b0c:	21f7      	movs	r1, #247	; 0xf7
10000b0e:	4820      	ldr	r0, [pc, #128]	; (10000b90 <alarm_pool_alarm_callback+0x31c>)
10000b10:	f000 fbf0 	bl	100012f4 <__assert_func>
10000b14:	2b00      	cmp	r3, #0
10000b16:	d00a      	beq.n	10000b2e <alarm_pool_alarm_callback+0x2ba>
10000b18:	7b11      	ldrb	r1, [r2, #12]
10000b1a:	428b      	cmp	r3, r1
10000b1c:	d807      	bhi.n	10000b2e <alarm_pool_alarm_callback+0x2ba>
10000b1e:	0059      	lsls	r1, r3, #1
10000b20:	18cb      	adds	r3, r1, r3
10000b22:	3b03      	subs	r3, #3
10000b24:	6811      	ldr	r1, [r2, #0]
10000b26:	468c      	mov	ip, r1
10000b28:	4463      	add	r3, ip
10000b2a:	705c      	strb	r4, [r3, #1]
10000b2c:	e7af      	b.n	10000a8e <alarm_pool_alarm_callback+0x21a>
10000b2e:	4b16      	ldr	r3, [pc, #88]	; (10000b88 <alarm_pool_alarm_callback+0x314>)
10000b30:	4a16      	ldr	r2, [pc, #88]	; (10000b8c <alarm_pool_alarm_callback+0x318>)
10000b32:	2169      	movs	r1, #105	; 0x69
10000b34:	4816      	ldr	r0, [pc, #88]	; (10000b90 <alarm_pool_alarm_callback+0x31c>)
10000b36:	f000 fbdd 	bl	100012f4 <__assert_func>
10000b3a:	4b0a      	ldr	r3, [pc, #40]	; (10000b64 <alarm_pool_alarm_callback+0x2f0>)
10000b3c:	4a0f      	ldr	r2, [pc, #60]	; (10000b7c <alarm_pool_alarm_callback+0x308>)
10000b3e:	2140      	movs	r1, #64	; 0x40
10000b40:	480a      	ldr	r0, [pc, #40]	; (10000b6c <alarm_pool_alarm_callback+0x2f8>)
10000b42:	f000 fbd7 	bl	100012f4 <__assert_func>
10000b46:	b00b      	add	sp, #44	; 0x2c
10000b48:	bcf0      	pop	{r4, r5, r6, r7}
10000b4a:	46bb      	mov	fp, r7
10000b4c:	46b2      	mov	sl, r6
10000b4e:	46a9      	mov	r9, r5
10000b50:	46a0      	mov	r8, r4
10000b52:	bdf0      	pop	{r4, r5, r6, r7, pc}
10000b54:	20000e34 	.word	0x20000e34
10000b58:	10006c60 	.word	0x10006c60
10000b5c:	10006d50 	.word	0x10006d50
10000b60:	10006c7c 	.word	0x10006c7c
10000b64:	10006b64 	.word	0x10006b64
10000b68:	10006d84 	.word	0x10006d84
10000b6c:	10006b20 	.word	0x10006b20
10000b70:	10006ccc 	.word	0x10006ccc
10000b74:	10006d68 	.word	0x10006d68
10000b78:	10006ce4 	.word	0x10006ce4
10000b7c:	10006d90 	.word	0x10006d90
10000b80:	0fffffff 	.word	0x0fffffff
10000b84:	10006cf0 	.word	0x10006cf0
10000b88:	10006b98 	.word	0x10006b98
10000b8c:	10006dd8 	.word	0x10006dd8
10000b90:	10006bb4 	.word	0x10006bb4
10000b94:	10006d2c 	.word	0x10006d2c
10000b98:	10006da4 	.word	0x10006da4

10000b9c <alarm_pool_init_default>:
10000b9c:	b510      	push	{r4, lr}
10000b9e:	4b0a      	ldr	r3, [pc, #40]	; (10000bc8 <alarm_pool_init_default+0x2c>)
10000ba0:	685b      	ldr	r3, [r3, #4]
10000ba2:	2b00      	cmp	r3, #0
10000ba4:	d004      	beq.n	10000bb0 <alarm_pool_init_default+0x14>
10000ba6:	210a      	movs	r1, #10
10000ba8:	4808      	ldr	r0, [pc, #32]	; (10000bcc <alarm_pool_init_default+0x30>)
10000baa:	f000 f94d 	bl	10000e48 <lock_init>
10000bae:	bd10      	pop	{r4, pc}
10000bb0:	4c05      	ldr	r4, [pc, #20]	; (10000bc8 <alarm_pool_init_default+0x2c>)
10000bb2:	0023      	movs	r3, r4
10000bb4:	4a06      	ldr	r2, [pc, #24]	; (10000bd0 <alarm_pool_init_default+0x34>)
10000bb6:	2110      	movs	r1, #16
10000bb8:	6820      	ldr	r0, [r4, #0]
10000bba:	f000 fa13 	bl	10000fe4 <ph_post_alloc_init>
10000bbe:	2103      	movs	r1, #3
10000bc0:	0020      	movs	r0, r4
10000bc2:	f7ff fccd 	bl	10000560 <alarm_pool_post_alloc_init>
10000bc6:	e7ee      	b.n	10000ba6 <alarm_pool_init_default+0xa>
10000bc8:	200001b4 	.word	0x200001b4
10000bcc:	20001048 	.word	0x20001048
10000bd0:	100005a1 	.word	0x100005a1

10000bd4 <hardware_alarm_irq_handler>:
10000bd4:	b570      	push	{r4, r5, r6, lr}
10000bd6:	f3ef 8305 	mrs	r3, IPSR
10000bda:	203f      	movs	r0, #63	; 0x3f
10000bdc:	4018      	ands	r0, r3
10000bde:	3810      	subs	r0, #16
10000be0:	f3ef 8c10 	mrs	ip, PRIMASK
10000be4:	b672      	cpsid	i
10000be6:	4b19      	ldr	r3, [pc, #100]	; (10000c4c <hardware_alarm_irq_handler+0x78>)
10000be8:	681b      	ldr	r3, [r3, #0]
10000bea:	2b00      	cmp	r3, #0
10000bec:	d0fb      	beq.n	10000be6 <hardware_alarm_irq_handler+0x12>
10000bee:	f3bf 8f5f 	dmb	sy
10000bf2:	2301      	movs	r3, #1
10000bf4:	0019      	movs	r1, r3
10000bf6:	4081      	lsls	r1, r0
10000bf8:	4a15      	ldr	r2, [pc, #84]	; (10000c50 <hardware_alarm_irq_handler+0x7c>)
10000bfa:	6351      	str	r1, [r2, #52]	; 0x34
10000bfc:	4a15      	ldr	r2, [pc, #84]	; (10000c54 <hardware_alarm_irq_handler+0x80>)
10000bfe:	7812      	ldrb	r2, [r2, #0]
10000c00:	0014      	movs	r4, r2
10000c02:	40c4      	lsrs	r4, r0
10000c04:	4223      	tst	r3, r4
10000c06:	d014      	beq.n	10000c32 <hardware_alarm_irq_handler+0x5e>
10000c08:	4b11      	ldr	r3, [pc, #68]	; (10000c50 <hardware_alarm_irq_handler+0x7c>)
10000c0a:	6a5c      	ldr	r4, [r3, #36]	; 0x24
10000c0c:	0083      	lsls	r3, r0, #2
10000c0e:	4d12      	ldr	r5, [pc, #72]	; (10000c58 <hardware_alarm_irq_handler+0x84>)
10000c10:	595b      	ldr	r3, [r3, r5]
10000c12:	429c      	cmp	r4, r3
10000c14:	d306      	bcc.n	10000c24 <hardware_alarm_irq_handler+0x50>
10000c16:	0083      	lsls	r3, r0, #2
10000c18:	4c10      	ldr	r4, [pc, #64]	; (10000c5c <hardware_alarm_irq_handler+0x88>)
10000c1a:	591b      	ldr	r3, [r3, r4]
10000c1c:	438a      	bics	r2, r1
10000c1e:	490d      	ldr	r1, [pc, #52]	; (10000c54 <hardware_alarm_irq_handler+0x80>)
10000c20:	700a      	strb	r2, [r1, #0]
10000c22:	e007      	b.n	10000c34 <hardware_alarm_irq_handler+0x60>
10000c24:	4a0a      	ldr	r2, [pc, #40]	; (10000c50 <hardware_alarm_irq_handler+0x7c>)
10000c26:	1d03      	adds	r3, r0, #4
10000c28:	009b      	lsls	r3, r3, #2
10000c2a:	5899      	ldr	r1, [r3, r2]
10000c2c:	5099      	str	r1, [r3, r2]
10000c2e:	2300      	movs	r3, #0
10000c30:	e000      	b.n	10000c34 <hardware_alarm_irq_handler+0x60>
10000c32:	2300      	movs	r3, #0
10000c34:	f3bf 8f5f 	dmb	sy
10000c38:	4a04      	ldr	r2, [pc, #16]	; (10000c4c <hardware_alarm_irq_handler+0x78>)
10000c3a:	2100      	movs	r1, #0
10000c3c:	6011      	str	r1, [r2, #0]
10000c3e:	f38c 8810 	msr	PRIMASK, ip
10000c42:	2b00      	cmp	r3, #0
10000c44:	d000      	beq.n	10000c48 <hardware_alarm_irq_handler+0x74>
10000c46:	4798      	blx	r3
10000c48:	bd70      	pop	{r4, r5, r6, pc}
10000c4a:	46c0      	nop			; (mov r8, r8)
10000c4c:	d0000128 	.word	0xd0000128
10000c50:	40054000 	.word	0x40054000
10000c54:	20001066 	.word	0x20001066
10000c58:	2000104c 	.word	0x2000104c
10000c5c:	20000dac 	.word	0x20000dac

10000c60 <hardware_alarm_claim>:
10000c60:	b510      	push	{r4, lr}
10000c62:	0001      	movs	r1, r0
10000c64:	4a02      	ldr	r2, [pc, #8]	; (10000c70 <hardware_alarm_claim+0x10>)
10000c66:	4803      	ldr	r0, [pc, #12]	; (10000c74 <hardware_alarm_claim+0x14>)
10000c68:	f7ff fbb6 	bl	100003d8 <hw_claim_or_assert>
10000c6c:	bd10      	pop	{r4, pc}
10000c6e:	46c0      	nop			; (mov r8, r8)
10000c70:	10006dfc 	.word	0x10006dfc
10000c74:	20001064 	.word	0x20001064

10000c78 <time_us_64>:
10000c78:	4b04      	ldr	r3, [pc, #16]	; (10000c8c <time_us_64+0x14>)
10000c7a:	6a5b      	ldr	r3, [r3, #36]	; 0x24
10000c7c:	4a03      	ldr	r2, [pc, #12]	; (10000c8c <time_us_64+0x14>)
10000c7e:	6a90      	ldr	r0, [r2, #40]	; 0x28
10000c80:	0019      	movs	r1, r3
10000c82:	6a53      	ldr	r3, [r2, #36]	; 0x24
10000c84:	4299      	cmp	r1, r3
10000c86:	d1f9      	bne.n	10000c7c <time_us_64+0x4>
10000c88:	4770      	bx	lr
10000c8a:	46c0      	nop			; (mov r8, r8)
10000c8c:	40054000 	.word	0x40054000

10000c90 <hardware_alarm_set_callback>:
10000c90:	b570      	push	{r4, r5, r6, lr}
10000c92:	0004      	movs	r4, r0
10000c94:	000d      	movs	r5, r1
10000c96:	f3ef 8610 	mrs	r6, PRIMASK
10000c9a:	b672      	cpsid	i
10000c9c:	4b1b      	ldr	r3, [pc, #108]	; (10000d0c <hardware_alarm_set_callback+0x7c>)
10000c9e:	681b      	ldr	r3, [r3, #0]
10000ca0:	2b00      	cmp	r3, #0
10000ca2:	d0fb      	beq.n	10000c9c <hardware_alarm_set_callback+0xc>
10000ca4:	f3bf 8f5f 	dmb	sy
10000ca8:	2d00      	cmp	r5, #0
10000caa:	d01c      	beq.n	10000ce6 <hardware_alarm_set_callback+0x56>
10000cac:	0020      	movs	r0, r4
10000cae:	f000 fd4d 	bl	1000174c <irq_get_vtable_handler>
10000cb2:	4b17      	ldr	r3, [pc, #92]	; (10000d10 <hardware_alarm_set_callback+0x80>)
10000cb4:	4283      	cmp	r3, r0
10000cb6:	d00b      	beq.n	10000cd0 <hardware_alarm_set_callback+0x40>
10000cb8:	0019      	movs	r1, r3
10000cba:	0020      	movs	r0, r4
10000cbc:	f000 fd4e 	bl	1000175c <irq_set_exclusive_handler>
10000cc0:	2101      	movs	r1, #1
10000cc2:	0020      	movs	r0, r4
10000cc4:	f000 fd3a 	bl	1000173c <irq_set_enabled>
10000cc8:	2301      	movs	r3, #1
10000cca:	40a3      	lsls	r3, r4
10000ccc:	4a11      	ldr	r2, [pc, #68]	; (10000d14 <hardware_alarm_set_callback+0x84>)
10000cce:	6013      	str	r3, [r2, #0]
10000cd0:	00a4      	lsls	r4, r4, #2
10000cd2:	4b11      	ldr	r3, [pc, #68]	; (10000d18 <hardware_alarm_set_callback+0x88>)
10000cd4:	50e5      	str	r5, [r4, r3]
10000cd6:	f3bf 8f5f 	dmb	sy
10000cda:	4b0c      	ldr	r3, [pc, #48]	; (10000d0c <hardware_alarm_set_callback+0x7c>)
10000cdc:	2200      	movs	r2, #0
10000cde:	601a      	str	r2, [r3, #0]
10000ce0:	f386 8810 	msr	PRIMASK, r6
10000ce4:	bd70      	pop	{r4, r5, r6, pc}
10000ce6:	00a2      	lsls	r2, r4, #2
10000ce8:	4b0b      	ldr	r3, [pc, #44]	; (10000d18 <hardware_alarm_set_callback+0x88>)
10000cea:	2100      	movs	r1, #0
10000cec:	50d1      	str	r1, [r2, r3]
10000cee:	2201      	movs	r2, #1
10000cf0:	40a2      	lsls	r2, r4
10000cf2:	490a      	ldr	r1, [pc, #40]	; (10000d1c <hardware_alarm_set_callback+0x8c>)
10000cf4:	780b      	ldrb	r3, [r1, #0]
10000cf6:	4393      	bics	r3, r2
10000cf8:	700b      	strb	r3, [r1, #0]
10000cfa:	4905      	ldr	r1, [pc, #20]	; (10000d10 <hardware_alarm_set_callback+0x80>)
10000cfc:	0020      	movs	r0, r4
10000cfe:	f000 fd57 	bl	100017b0 <irq_remove_handler>
10000d02:	2100      	movs	r1, #0
10000d04:	0020      	movs	r0, r4
10000d06:	f000 fd19 	bl	1000173c <irq_set_enabled>
10000d0a:	e7e4      	b.n	10000cd6 <hardware_alarm_set_callback+0x46>
10000d0c:	d0000128 	.word	0xd0000128
10000d10:	10000bd5 	.word	0x10000bd5
10000d14:	40056038 	.word	0x40056038
10000d18:	20000dac 	.word	0x20000dac
10000d1c:	20001066 	.word	0x20001066

10000d20 <hardware_alarm_set_target>:
10000d20:	b5f0      	push	{r4, r5, r6, r7, lr}
10000d22:	46de      	mov	lr, fp
10000d24:	b500      	push	{lr}
10000d26:	b084      	sub	sp, #16
10000d28:	0004      	movs	r4, r0
10000d2a:	0015      	movs	r5, r2
10000d2c:	9201      	str	r2, [sp, #4]
10000d2e:	001e      	movs	r6, r3
10000d30:	9302      	str	r3, [sp, #8]
10000d32:	f7ff ffa1 	bl	10000c78 <time_us_64>
10000d36:	9503      	str	r5, [sp, #12]
10000d38:	428e      	cmp	r6, r1
10000d3a:	d802      	bhi.n	10000d42 <hardware_alarm_set_target+0x22>
10000d3c:	d14e      	bne.n	10000ddc <hardware_alarm_set_target+0xbc>
10000d3e:	4285      	cmp	r5, r0
10000d40:	d94c      	bls.n	10000ddc <hardware_alarm_set_target+0xbc>
10000d42:	f3ef 8b10 	mrs	fp, PRIMASK
10000d46:	b672      	cpsid	i
10000d48:	4b27      	ldr	r3, [pc, #156]	; (10000de8 <hardware_alarm_set_target+0xc8>)
10000d4a:	681b      	ldr	r3, [r3, #0]
10000d4c:	2b00      	cmp	r3, #0
10000d4e:	d0fb      	beq.n	10000d48 <hardware_alarm_set_target+0x28>
10000d50:	f3bf 8f5f 	dmb	sy
10000d54:	4a25      	ldr	r2, [pc, #148]	; (10000dec <hardware_alarm_set_target+0xcc>)
10000d56:	7817      	ldrb	r7, [r2, #0]
10000d58:	2501      	movs	r5, #1
10000d5a:	40a5      	lsls	r5, r4
10000d5c:	b2eb      	uxtb	r3, r5
10000d5e:	433b      	orrs	r3, r7
10000d60:	7013      	strb	r3, [r2, #0]
10000d62:	4b23      	ldr	r3, [pc, #140]	; (10000df0 <hardware_alarm_set_target+0xd0>)
10000d64:	635d      	str	r5, [r3, #52]	; 0x34
10000d66:	1d22      	adds	r2, r4, #4
10000d68:	0092      	lsls	r2, r2, #2
10000d6a:	9901      	ldr	r1, [sp, #4]
10000d6c:	50d1      	str	r1, [r2, r3]
10000d6e:	00a2      	lsls	r2, r4, #2
10000d70:	4920      	ldr	r1, [pc, #128]	; (10000df4 <hardware_alarm_set_target+0xd4>)
10000d72:	9802      	ldr	r0, [sp, #8]
10000d74:	5050      	str	r0, [r2, r1]
10000d76:	6a1b      	ldr	r3, [r3, #32]
10000d78:	422b      	tst	r3, r5
10000d7a:	d112      	bne.n	10000da2 <hardware_alarm_set_target+0x82>
10000d7c:	4b1c      	ldr	r3, [pc, #112]	; (10000df0 <hardware_alarm_set_target+0xd0>)
10000d7e:	6c1b      	ldr	r3, [r3, #64]	; 0x40
10000d80:	422b      	tst	r3, r5
10000d82:	d008      	beq.n	10000d96 <hardware_alarm_set_target+0x76>
10000d84:	2000      	movs	r0, #0
10000d86:	f3bf 8f5f 	dmb	sy
10000d8a:	4b17      	ldr	r3, [pc, #92]	; (10000de8 <hardware_alarm_set_target+0xc8>)
10000d8c:	2200      	movs	r2, #0
10000d8e:	601a      	str	r2, [r3, #0]
10000d90:	f38b 8810 	msr	PRIMASK, fp
10000d94:	e023      	b.n	10000dde <hardware_alarm_set_target+0xbe>
10000d96:	4b18      	ldr	r3, [pc, #96]	; (10000df8 <hardware_alarm_set_target+0xd8>)
10000d98:	4a18      	ldr	r2, [pc, #96]	; (10000dfc <hardware_alarm_set_target+0xdc>)
10000d9a:	21c1      	movs	r1, #193	; 0xc1
10000d9c:	4818      	ldr	r0, [pc, #96]	; (10000e00 <hardware_alarm_set_target+0xe0>)
10000d9e:	f000 faa9 	bl	100012f4 <__assert_func>
10000da2:	f7ff ff69 	bl	10000c78 <time_us_64>
10000da6:	428e      	cmp	r6, r1
10000da8:	d814      	bhi.n	10000dd4 <hardware_alarm_set_target+0xb4>
10000daa:	d102      	bne.n	10000db2 <hardware_alarm_set_target+0x92>
10000dac:	9b03      	ldr	r3, [sp, #12]
10000dae:	4283      	cmp	r3, r0
10000db0:	d810      	bhi.n	10000dd4 <hardware_alarm_set_target+0xb4>
10000db2:	4b0e      	ldr	r3, [pc, #56]	; (10000dec <hardware_alarm_set_target+0xcc>)
10000db4:	781b      	ldrb	r3, [r3, #0]
10000db6:	42bb      	cmp	r3, r7
10000db8:	d00e      	beq.n	10000dd8 <hardware_alarm_set_target+0xb8>
10000dba:	4b0d      	ldr	r3, [pc, #52]	; (10000df0 <hardware_alarm_set_target+0xd0>)
10000dbc:	621d      	str	r5, [r3, #32]
10000dbe:	635d      	str	r5, [r3, #52]	; 0x34
10000dc0:	201f      	movs	r0, #31
10000dc2:	4004      	ands	r4, r0
10000dc4:	2301      	movs	r3, #1
10000dc6:	40a3      	lsls	r3, r4
10000dc8:	4a0e      	ldr	r2, [pc, #56]	; (10000e04 <hardware_alarm_set_target+0xe4>)
10000dca:	6013      	str	r3, [r2, #0]
10000dcc:	4b07      	ldr	r3, [pc, #28]	; (10000dec <hardware_alarm_set_target+0xcc>)
10000dce:	701f      	strb	r7, [r3, #0]
10000dd0:	381e      	subs	r0, #30
10000dd2:	e7d8      	b.n	10000d86 <hardware_alarm_set_target+0x66>
10000dd4:	2000      	movs	r0, #0
10000dd6:	e7d6      	b.n	10000d86 <hardware_alarm_set_target+0x66>
10000dd8:	2001      	movs	r0, #1
10000dda:	e7d4      	b.n	10000d86 <hardware_alarm_set_target+0x66>
10000ddc:	2001      	movs	r0, #1
10000dde:	b004      	add	sp, #16
10000de0:	bc80      	pop	{r7}
10000de2:	46bb      	mov	fp, r7
10000de4:	bdf0      	pop	{r4, r5, r6, r7, pc}
10000de6:	46c0      	nop			; (mov r8, r8)
10000de8:	d0000128 	.word	0xd0000128
10000dec:	20001066 	.word	0x20001066
10000df0:	40054000 	.word	0x40054000
10000df4:	2000104c 	.word	0x2000104c
10000df8:	10006e20 	.word	0x10006e20
10000dfc:	10006e90 	.word	0x10006e90
10000e00:	10006e44 	.word	0x10006e44
10000e04:	e000e280 	.word	0xe000e280

10000e08 <hardware_alarm_cancel>:
10000e08:	f3ef 8c10 	mrs	ip, PRIMASK
10000e0c:	b672      	cpsid	i
10000e0e:	4b0b      	ldr	r3, [pc, #44]	; (10000e3c <hardware_alarm_cancel+0x34>)
10000e10:	681b      	ldr	r3, [r3, #0]
10000e12:	2b00      	cmp	r3, #0
10000e14:	d0fb      	beq.n	10000e0e <hardware_alarm_cancel+0x6>
10000e16:	f3bf 8f5f 	dmb	sy
10000e1a:	2301      	movs	r3, #1
10000e1c:	4083      	lsls	r3, r0
10000e1e:	4a08      	ldr	r2, [pc, #32]	; (10000e40 <hardware_alarm_cancel+0x38>)
10000e20:	6213      	str	r3, [r2, #32]
10000e22:	4908      	ldr	r1, [pc, #32]	; (10000e44 <hardware_alarm_cancel+0x3c>)
10000e24:	780a      	ldrb	r2, [r1, #0]
10000e26:	439a      	bics	r2, r3
10000e28:	700a      	strb	r2, [r1, #0]
10000e2a:	f3bf 8f5f 	dmb	sy
10000e2e:	4b03      	ldr	r3, [pc, #12]	; (10000e3c <hardware_alarm_cancel+0x34>)
10000e30:	2200      	movs	r2, #0
10000e32:	601a      	str	r2, [r3, #0]
10000e34:	f38c 8810 	msr	PRIMASK, ip
10000e38:	4770      	bx	lr
10000e3a:	46c0      	nop			; (mov r8, r8)
10000e3c:	d0000128 	.word	0xd0000128
10000e40:	40054000 	.word	0x40054000
10000e44:	20001066 	.word	0x20001066

10000e48 <lock_init>:
10000e48:	4b02      	ldr	r3, [pc, #8]	; (10000e54 <lock_init+0xc>)
10000e4a:	469c      	mov	ip, r3
10000e4c:	4461      	add	r1, ip
10000e4e:	0089      	lsls	r1, r1, #2
10000e50:	6001      	str	r1, [r0, #0]
10000e52:	4770      	bx	lr
10000e54:	34000040 	.word	0x34000040

10000e58 <mutex_init>:
10000e58:	b510      	push	{r4, lr}
10000e5a:	0004      	movs	r4, r0
10000e5c:	f7ff faf0 	bl	10000440 <next_striped_spin_lock_num>
10000e60:	0001      	movs	r1, r0
10000e62:	0020      	movs	r0, r4
10000e64:	f7ff fff0 	bl	10000e48 <lock_init>
10000e68:	23ff      	movs	r3, #255	; 0xff
10000e6a:	7123      	strb	r3, [r4, #4]
10000e6c:	f3bf 8f5f 	dmb	sy
10000e70:	bd10      	pop	{r4, pc}

10000e72 <recursive_mutex_init>:
10000e72:	b510      	push	{r4, lr}
10000e74:	0004      	movs	r4, r0
10000e76:	f7ff fae3 	bl	10000440 <next_striped_spin_lock_num>
10000e7a:	0001      	movs	r1, r0
10000e7c:	0020      	movs	r0, r4
10000e7e:	f7ff ffe3 	bl	10000e48 <lock_init>
10000e82:	23ff      	movs	r3, #255	; 0xff
10000e84:	7123      	strb	r3, [r4, #4]
10000e86:	2300      	movs	r3, #0
10000e88:	7163      	strb	r3, [r4, #5]
10000e8a:	f3bf 8f5f 	dmb	sy
10000e8e:	bd10      	pop	{r4, pc}

10000e90 <ph_add_child_node>:
10000e90:	b510      	push	{r4, lr}
10000e92:	2900      	cmp	r1, #0
10000e94:	d01e      	beq.n	10000ed4 <ph_add_child_node+0x44>
10000e96:	7b03      	ldrb	r3, [r0, #12]
10000e98:	4299      	cmp	r1, r3
10000e9a:	d81b      	bhi.n	10000ed4 <ph_add_child_node+0x44>
10000e9c:	004b      	lsls	r3, r1, #1
10000e9e:	185b      	adds	r3, r3, r1
10000ea0:	3b03      	subs	r3, #3
10000ea2:	6804      	ldr	r4, [r0, #0]
10000ea4:	46a4      	mov	ip, r4
10000ea6:	4463      	add	r3, ip
10000ea8:	2900      	cmp	r1, #0
10000eaa:	d019      	beq.n	10000ee0 <ph_add_child_node+0x50>
10000eac:	2a00      	cmp	r2, #0
10000eae:	d01d      	beq.n	10000eec <ph_add_child_node+0x5c>
10000eb0:	4291      	cmp	r1, r2
10000eb2:	d021      	beq.n	10000ef8 <ph_add_child_node+0x68>
10000eb4:	2a00      	cmp	r2, #0
10000eb6:	d025      	beq.n	10000f04 <ph_add_child_node+0x74>
10000eb8:	7b04      	ldrb	r4, [r0, #12]
10000eba:	42a2      	cmp	r2, r4
10000ebc:	d822      	bhi.n	10000f04 <ph_add_child_node+0x74>
10000ebe:	6804      	ldr	r4, [r0, #0]
10000ec0:	0050      	lsls	r0, r2, #1
10000ec2:	1880      	adds	r0, r0, r2
10000ec4:	3803      	subs	r0, #3
10000ec6:	1820      	adds	r0, r4, r0
10000ec8:	7081      	strb	r1, [r0, #2]
10000eca:	7819      	ldrb	r1, [r3, #0]
10000ecc:	2900      	cmp	r1, #0
10000ece:	d11f      	bne.n	10000f10 <ph_add_child_node+0x80>
10000ed0:	701a      	strb	r2, [r3, #0]
10000ed2:	bd10      	pop	{r4, pc}
10000ed4:	4b10      	ldr	r3, [pc, #64]	; (10000f18 <ph_add_child_node+0x88>)
10000ed6:	4a11      	ldr	r2, [pc, #68]	; (10000f1c <ph_add_child_node+0x8c>)
10000ed8:	2169      	movs	r1, #105	; 0x69
10000eda:	4811      	ldr	r0, [pc, #68]	; (10000f20 <ph_add_child_node+0x90>)
10000edc:	f000 fa0a 	bl	100012f4 <__assert_func>
10000ee0:	4b10      	ldr	r3, [pc, #64]	; (10000f24 <ph_add_child_node+0x94>)
10000ee2:	4a11      	ldr	r2, [pc, #68]	; (10000f28 <ph_add_child_node+0x98>)
10000ee4:	3170      	adds	r1, #112	; 0x70
10000ee6:	480e      	ldr	r0, [pc, #56]	; (10000f20 <ph_add_child_node+0x90>)
10000ee8:	f000 fa04 	bl	100012f4 <__assert_func>
10000eec:	4b0f      	ldr	r3, [pc, #60]	; (10000f2c <ph_add_child_node+0x9c>)
10000eee:	4a0e      	ldr	r2, [pc, #56]	; (10000f28 <ph_add_child_node+0x98>)
10000ef0:	2171      	movs	r1, #113	; 0x71
10000ef2:	480b      	ldr	r0, [pc, #44]	; (10000f20 <ph_add_child_node+0x90>)
10000ef4:	f000 f9fe 	bl	100012f4 <__assert_func>
10000ef8:	4b0d      	ldr	r3, [pc, #52]	; (10000f30 <ph_add_child_node+0xa0>)
10000efa:	4a0b      	ldr	r2, [pc, #44]	; (10000f28 <ph_add_child_node+0x98>)
10000efc:	2172      	movs	r1, #114	; 0x72
10000efe:	4808      	ldr	r0, [pc, #32]	; (10000f20 <ph_add_child_node+0x90>)
10000f00:	f000 f9f8 	bl	100012f4 <__assert_func>
10000f04:	4b04      	ldr	r3, [pc, #16]	; (10000f18 <ph_add_child_node+0x88>)
10000f06:	4a05      	ldr	r2, [pc, #20]	; (10000f1c <ph_add_child_node+0x8c>)
10000f08:	2169      	movs	r1, #105	; 0x69
10000f0a:	4805      	ldr	r0, [pc, #20]	; (10000f20 <ph_add_child_node+0x90>)
10000f0c:	f000 f9f2 	bl	100012f4 <__assert_func>
10000f10:	7041      	strb	r1, [r0, #1]
10000f12:	701a      	strb	r2, [r3, #0]
10000f14:	e7dd      	b.n	10000ed2 <ph_add_child_node+0x42>
10000f16:	46c0      	nop			; (mov r8, r8)
10000f18:	10006b98 	.word	0x10006b98
10000f1c:	10007050 	.word	0x10007050
10000f20:	10006bb4 	.word	0x10006bb4
10000f24:	10006c08 	.word	0x10006c08
10000f28:	1000703c 	.word	0x1000703c
10000f2c:	10006c14 	.word	0x10006c14
10000f30:	10006c20 	.word	0x10006c20

10000f34 <ph_merge_nodes>:
10000f34:	b570      	push	{r4, r5, r6, lr}
10000f36:	0006      	movs	r6, r0
10000f38:	000d      	movs	r5, r1
10000f3a:	0014      	movs	r4, r2
10000f3c:	2900      	cmp	r1, #0
10000f3e:	d014      	beq.n	10000f6a <ph_merge_nodes+0x36>
10000f40:	2a00      	cmp	r2, #0
10000f42:	d014      	beq.n	10000f6e <ph_merge_nodes+0x3a>
10000f44:	6880      	ldr	r0, [r0, #8]
10000f46:	6873      	ldr	r3, [r6, #4]
10000f48:	4798      	blx	r3
10000f4a:	2800      	cmp	r0, #0
10000f4c:	d006      	beq.n	10000f5c <ph_merge_nodes+0x28>
10000f4e:	0022      	movs	r2, r4
10000f50:	0029      	movs	r1, r5
10000f52:	0030      	movs	r0, r6
10000f54:	f7ff ff9c 	bl	10000e90 <ph_add_child_node>
10000f58:	0028      	movs	r0, r5
10000f5a:	e007      	b.n	10000f6c <ph_merge_nodes+0x38>
10000f5c:	002a      	movs	r2, r5
10000f5e:	0021      	movs	r1, r4
10000f60:	0030      	movs	r0, r6
10000f62:	f7ff ff95 	bl	10000e90 <ph_add_child_node>
10000f66:	0020      	movs	r0, r4
10000f68:	e000      	b.n	10000f6c <ph_merge_nodes+0x38>
10000f6a:	0010      	movs	r0, r2
10000f6c:	bd70      	pop	{r4, r5, r6, pc}
10000f6e:	0008      	movs	r0, r1
10000f70:	e7fc      	b.n	10000f6c <ph_merge_nodes+0x38>
	...

10000f74 <ph_clear>:
10000f74:	b510      	push	{r4, lr}
10000f76:	2300      	movs	r3, #0
10000f78:	7343      	strb	r3, [r0, #13]
10000f7a:	3301      	adds	r3, #1
10000f7c:	7383      	strb	r3, [r0, #14]
10000f7e:	7b03      	ldrb	r3, [r0, #12]
10000f80:	73c3      	strb	r3, [r0, #15]
10000f82:	2301      	movs	r3, #1
10000f84:	7b02      	ldrb	r2, [r0, #12]
10000f86:	429a      	cmp	r2, r3
10000f88:	d914      	bls.n	10000fb4 <ph_clear+0x40>
10000f8a:	2b00      	cmp	r3, #0
10000f8c:	d00c      	beq.n	10000fa8 <ph_clear+0x34>
10000f8e:	7b02      	ldrb	r2, [r0, #12]
10000f90:	4293      	cmp	r3, r2
10000f92:	d809      	bhi.n	10000fa8 <ph_clear+0x34>
10000f94:	005a      	lsls	r2, r3, #1
10000f96:	18d2      	adds	r2, r2, r3
10000f98:	3a03      	subs	r2, #3
10000f9a:	6801      	ldr	r1, [r0, #0]
10000f9c:	468c      	mov	ip, r1
10000f9e:	4462      	add	r2, ip
10000fa0:	3301      	adds	r3, #1
10000fa2:	b2db      	uxtb	r3, r3
10000fa4:	7053      	strb	r3, [r2, #1]
10000fa6:	e7ed      	b.n	10000f84 <ph_clear+0x10>
10000fa8:	4b0b      	ldr	r3, [pc, #44]	; (10000fd8 <ph_clear+0x64>)
10000faa:	4a0c      	ldr	r2, [pc, #48]	; (10000fdc <ph_clear+0x68>)
10000fac:	2169      	movs	r1, #105	; 0x69
10000fae:	480c      	ldr	r0, [pc, #48]	; (10000fe0 <ph_clear+0x6c>)
10000fb0:	f000 f9a0 	bl	100012f4 <__assert_func>
10000fb4:	2a00      	cmp	r2, #0
10000fb6:	d009      	beq.n	10000fcc <ph_clear+0x58>
10000fb8:	4292      	cmp	r2, r2
10000fba:	d807      	bhi.n	10000fcc <ph_clear+0x58>
10000fbc:	6801      	ldr	r1, [r0, #0]
10000fbe:	0053      	lsls	r3, r2, #1
10000fc0:	189a      	adds	r2, r3, r2
10000fc2:	3a03      	subs	r2, #3
10000fc4:	188a      	adds	r2, r1, r2
10000fc6:	2300      	movs	r3, #0
10000fc8:	7053      	strb	r3, [r2, #1]
10000fca:	bd10      	pop	{r4, pc}
10000fcc:	4b02      	ldr	r3, [pc, #8]	; (10000fd8 <ph_clear+0x64>)
10000fce:	4a03      	ldr	r2, [pc, #12]	; (10000fdc <ph_clear+0x68>)
10000fd0:	2169      	movs	r1, #105	; 0x69
10000fd2:	4803      	ldr	r0, [pc, #12]	; (10000fe0 <ph_clear+0x6c>)
10000fd4:	f000 f98e 	bl	100012f4 <__assert_func>
10000fd8:	10006b98 	.word	0x10006b98
10000fdc:	10007050 	.word	0x10007050
10000fe0:	10006bb4 	.word	0x10006bb4

10000fe4 <ph_post_alloc_init>:
10000fe4:	b510      	push	{r4, lr}
10000fe6:	7301      	strb	r1, [r0, #12]
10000fe8:	6042      	str	r2, [r0, #4]
10000fea:	6083      	str	r3, [r0, #8]
10000fec:	f7ff ffc2 	bl	10000f74 <ph_clear>
10000ff0:	bd10      	pop	{r4, pc}
	...

10000ff4 <ph_merge_two_pass>:
10000ff4:	b570      	push	{r4, r5, r6, lr}
10000ff6:	0004      	movs	r4, r0
10000ff8:	1e08      	subs	r0, r1, #0
10000ffa:	d100      	bne.n	10000ffe <ph_merge_two_pass+0xa>
10000ffc:	bd70      	pop	{r4, r5, r6, pc}
10000ffe:	2900      	cmp	r1, #0
10001000:	d034      	beq.n	1000106c <ph_merge_two_pass+0x78>
10001002:	7b23      	ldrb	r3, [r4, #12]
10001004:	4299      	cmp	r1, r3
10001006:	d831      	bhi.n	1000106c <ph_merge_two_pass+0x78>
10001008:	004b      	lsls	r3, r1, #1
1000100a:	185b      	adds	r3, r3, r1
1000100c:	3b03      	subs	r3, #3
1000100e:	6822      	ldr	r2, [r4, #0]
10001010:	4694      	mov	ip, r2
10001012:	4463      	add	r3, ip
10001014:	785a      	ldrb	r2, [r3, #1]
10001016:	2a00      	cmp	r2, #0
10001018:	d0f0      	beq.n	10000ffc <ph_merge_two_pass+0x8>
1000101a:	d02d      	beq.n	10001078 <ph_merge_two_pass+0x84>
1000101c:	7b23      	ldrb	r3, [r4, #12]
1000101e:	429a      	cmp	r2, r3
10001020:	d82a      	bhi.n	10001078 <ph_merge_two_pass+0x84>
10001022:	0053      	lsls	r3, r2, #1
10001024:	189b      	adds	r3, r3, r2
10001026:	3b03      	subs	r3, #3
10001028:	6821      	ldr	r1, [r4, #0]
1000102a:	468c      	mov	ip, r1
1000102c:	4463      	add	r3, ip
1000102e:	785d      	ldrb	r5, [r3, #1]
10001030:	2100      	movs	r1, #0
10001032:	7059      	strb	r1, [r3, #1]
10001034:	2800      	cmp	r0, #0
10001036:	d025      	beq.n	10001084 <ph_merge_two_pass+0x90>
10001038:	7b23      	ldrb	r3, [r4, #12]
1000103a:	4298      	cmp	r0, r3
1000103c:	d822      	bhi.n	10001084 <ph_merge_two_pass+0x90>
1000103e:	0043      	lsls	r3, r0, #1
10001040:	181b      	adds	r3, r3, r0
10001042:	3b03      	subs	r3, #3
10001044:	6821      	ldr	r1, [r4, #0]
10001046:	468c      	mov	ip, r1
10001048:	4463      	add	r3, ip
1000104a:	2100      	movs	r1, #0
1000104c:	7059      	strb	r1, [r3, #1]
1000104e:	0001      	movs	r1, r0
10001050:	0020      	movs	r0, r4
10001052:	f7ff ff6f 	bl	10000f34 <ph_merge_nodes>
10001056:	0006      	movs	r6, r0
10001058:	0029      	movs	r1, r5
1000105a:	0020      	movs	r0, r4
1000105c:	f7ff ffca 	bl	10000ff4 <ph_merge_two_pass>
10001060:	0002      	movs	r2, r0
10001062:	0031      	movs	r1, r6
10001064:	0020      	movs	r0, r4
10001066:	f7ff ff65 	bl	10000f34 <ph_merge_nodes>
1000106a:	e7c7      	b.n	10000ffc <ph_merge_two_pass+0x8>
1000106c:	4b08      	ldr	r3, [pc, #32]	; (10001090 <ph_merge_two_pass+0x9c>)
1000106e:	4a09      	ldr	r2, [pc, #36]	; (10001094 <ph_merge_two_pass+0xa0>)
10001070:	2169      	movs	r1, #105	; 0x69
10001072:	4809      	ldr	r0, [pc, #36]	; (10001098 <ph_merge_two_pass+0xa4>)
10001074:	f000 f93e 	bl	100012f4 <__assert_func>
10001078:	4b05      	ldr	r3, [pc, #20]	; (10001090 <ph_merge_two_pass+0x9c>)
1000107a:	4a06      	ldr	r2, [pc, #24]	; (10001094 <ph_merge_two_pass+0xa0>)
1000107c:	2169      	movs	r1, #105	; 0x69
1000107e:	4806      	ldr	r0, [pc, #24]	; (10001098 <ph_merge_two_pass+0xa4>)
10001080:	f000 f938 	bl	100012f4 <__assert_func>
10001084:	4b02      	ldr	r3, [pc, #8]	; (10001090 <ph_merge_two_pass+0x9c>)
10001086:	4a03      	ldr	r2, [pc, #12]	; (10001094 <ph_merge_two_pass+0xa0>)
10001088:	2169      	movs	r1, #105	; 0x69
1000108a:	4803      	ldr	r0, [pc, #12]	; (10001098 <ph_merge_two_pass+0xa4>)
1000108c:	f000 f932 	bl	100012f4 <__assert_func>
10001090:	10006b98 	.word	0x10006b98
10001094:	10007050 	.word	0x10007050
10001098:	10006bb4 	.word	0x10006bb4

1000109c <ph_remove_any_head>:
1000109c:	b570      	push	{r4, r5, r6, lr}
1000109e:	0005      	movs	r5, r0
100010a0:	000c      	movs	r4, r1
100010a2:	0016      	movs	r6, r2
100010a4:	2900      	cmp	r1, #0
100010a6:	d028      	beq.n	100010fa <ph_remove_any_head+0x5e>
100010a8:	d02d      	beq.n	10001106 <ph_remove_any_head+0x6a>
100010aa:	7b03      	ldrb	r3, [r0, #12]
100010ac:	4299      	cmp	r1, r3
100010ae:	d82a      	bhi.n	10001106 <ph_remove_any_head+0x6a>
100010b0:	004b      	lsls	r3, r1, #1
100010b2:	185b      	adds	r3, r3, r1
100010b4:	3b03      	subs	r3, #3
100010b6:	6802      	ldr	r2, [r0, #0]
100010b8:	4694      	mov	ip, r2
100010ba:	4463      	add	r3, ip
100010bc:	785a      	ldrb	r2, [r3, #1]
100010be:	2a00      	cmp	r2, #0
100010c0:	d127      	bne.n	10001112 <ph_remove_any_head+0x76>
100010c2:	789a      	ldrb	r2, [r3, #2]
100010c4:	2a00      	cmp	r2, #0
100010c6:	d12a      	bne.n	1000111e <ph_remove_any_head+0x82>
100010c8:	7819      	ldrb	r1, [r3, #0]
100010ca:	f7ff ff93 	bl	10000ff4 <ph_merge_two_pass>
100010ce:	0003      	movs	r3, r0
100010d0:	2e00      	cmp	r6, #0
100010d2:	d003      	beq.n	100010dc <ph_remove_any_head+0x40>
100010d4:	7bea      	ldrb	r2, [r5, #15]
100010d6:	2a00      	cmp	r2, #0
100010d8:	d127      	bne.n	1000112a <ph_remove_any_head+0x8e>
100010da:	73ec      	strb	r4, [r5, #15]
100010dc:	2b00      	cmp	r3, #0
100010de:	d137      	bne.n	10001150 <ph_remove_any_head+0xb4>
100010e0:	2c00      	cmp	r4, #0
100010e2:	d049      	beq.n	10001178 <ph_remove_any_head+0xdc>
100010e4:	7b2b      	ldrb	r3, [r5, #12]
100010e6:	429c      	cmp	r4, r3
100010e8:	d846      	bhi.n	10001178 <ph_remove_any_head+0xdc>
100010ea:	682b      	ldr	r3, [r5, #0]
100010ec:	0061      	lsls	r1, r4, #1
100010ee:	190c      	adds	r4, r1, r4
100010f0:	3c03      	subs	r4, #3
100010f2:	191c      	adds	r4, r3, r4
100010f4:	2300      	movs	r3, #0
100010f6:	7063      	strb	r3, [r4, #1]
100010f8:	bd70      	pop	{r4, r5, r6, pc}
100010fa:	4b22      	ldr	r3, [pc, #136]	; (10001184 <ph_remove_any_head+0xe8>)
100010fc:	4a22      	ldr	r2, [pc, #136]	; (10001188 <ph_remove_any_head+0xec>)
100010fe:	2138      	movs	r1, #56	; 0x38
10001100:	4822      	ldr	r0, [pc, #136]	; (1000118c <ph_remove_any_head+0xf0>)
10001102:	f000 f8f7 	bl	100012f4 <__assert_func>
10001106:	4b22      	ldr	r3, [pc, #136]	; (10001190 <ph_remove_any_head+0xf4>)
10001108:	4a22      	ldr	r2, [pc, #136]	; (10001194 <ph_remove_any_head+0xf8>)
1000110a:	2169      	movs	r1, #105	; 0x69
1000110c:	4822      	ldr	r0, [pc, #136]	; (10001198 <ph_remove_any_head+0xfc>)
1000110e:	f000 f8f1 	bl	100012f4 <__assert_func>
10001112:	4b22      	ldr	r3, [pc, #136]	; (1000119c <ph_remove_any_head+0x100>)
10001114:	4a1c      	ldr	r2, [pc, #112]	; (10001188 <ph_remove_any_head+0xec>)
10001116:	213a      	movs	r1, #58	; 0x3a
10001118:	481c      	ldr	r0, [pc, #112]	; (1000118c <ph_remove_any_head+0xf0>)
1000111a:	f000 f8eb 	bl	100012f4 <__assert_func>
1000111e:	4b20      	ldr	r3, [pc, #128]	; (100011a0 <ph_remove_any_head+0x104>)
10001120:	4a19      	ldr	r2, [pc, #100]	; (10001188 <ph_remove_any_head+0xec>)
10001122:	213b      	movs	r1, #59	; 0x3b
10001124:	4819      	ldr	r0, [pc, #100]	; (1000118c <ph_remove_any_head+0xf0>)
10001126:	f000 f8e5 	bl	100012f4 <__assert_func>
1000112a:	2a00      	cmp	r2, #0
1000112c:	d00a      	beq.n	10001144 <ph_remove_any_head+0xa8>
1000112e:	7b29      	ldrb	r1, [r5, #12]
10001130:	428a      	cmp	r2, r1
10001132:	d807      	bhi.n	10001144 <ph_remove_any_head+0xa8>
10001134:	0051      	lsls	r1, r2, #1
10001136:	188a      	adds	r2, r1, r2
10001138:	3a03      	subs	r2, #3
1000113a:	6829      	ldr	r1, [r5, #0]
1000113c:	468c      	mov	ip, r1
1000113e:	4462      	add	r2, ip
10001140:	7054      	strb	r4, [r2, #1]
10001142:	e7ca      	b.n	100010da <ph_remove_any_head+0x3e>
10001144:	4b12      	ldr	r3, [pc, #72]	; (10001190 <ph_remove_any_head+0xf4>)
10001146:	4a13      	ldr	r2, [pc, #76]	; (10001194 <ph_remove_any_head+0xf8>)
10001148:	2169      	movs	r1, #105	; 0x69
1000114a:	4813      	ldr	r0, [pc, #76]	; (10001198 <ph_remove_any_head+0xfc>)
1000114c:	f000 f8d2 	bl	100012f4 <__assert_func>
10001150:	2b00      	cmp	r3, #0
10001152:	d00b      	beq.n	1000116c <ph_remove_any_head+0xd0>
10001154:	7b2a      	ldrb	r2, [r5, #12]
10001156:	4293      	cmp	r3, r2
10001158:	d808      	bhi.n	1000116c <ph_remove_any_head+0xd0>
1000115a:	0043      	lsls	r3, r0, #1
1000115c:	181b      	adds	r3, r3, r0
1000115e:	3b03      	subs	r3, #3
10001160:	682a      	ldr	r2, [r5, #0]
10001162:	4694      	mov	ip, r2
10001164:	4463      	add	r3, ip
10001166:	2200      	movs	r2, #0
10001168:	709a      	strb	r2, [r3, #2]
1000116a:	e7b9      	b.n	100010e0 <ph_remove_any_head+0x44>
1000116c:	4b08      	ldr	r3, [pc, #32]	; (10001190 <ph_remove_any_head+0xf4>)
1000116e:	4a09      	ldr	r2, [pc, #36]	; (10001194 <ph_remove_any_head+0xf8>)
10001170:	2169      	movs	r1, #105	; 0x69
10001172:	4809      	ldr	r0, [pc, #36]	; (10001198 <ph_remove_any_head+0xfc>)
10001174:	f000 f8be 	bl	100012f4 <__assert_func>
10001178:	4b05      	ldr	r3, [pc, #20]	; (10001190 <ph_remove_any_head+0xf4>)
1000117a:	4a06      	ldr	r2, [pc, #24]	; (10001194 <ph_remove_any_head+0xf8>)
1000117c:	2169      	movs	r1, #105	; 0x69
1000117e:	4806      	ldr	r0, [pc, #24]	; (10001198 <ph_remove_any_head+0xfc>)
10001180:	f000 f8b8 	bl	100012f4 <__assert_func>
10001184:	10006f50 	.word	0x10006f50
10001188:	10007028 	.word	0x10007028
1000118c:	10006f58 	.word	0x10006f58
10001190:	10006b98 	.word	0x10006b98
10001194:	10007050 	.word	0x10007050
10001198:	10006bb4 	.word	0x10006bb4
1000119c:	10006f9c 	.word	0x10006f9c
100011a0:	10006fc4 	.word	0x10006fc4

100011a4 <ph_remove_head>:
100011a4:	b570      	push	{r4, r5, r6, lr}
100011a6:	0004      	movs	r4, r0
100011a8:	000a      	movs	r2, r1
100011aa:	7b45      	ldrb	r5, [r0, #13]
100011ac:	0029      	movs	r1, r5
100011ae:	f7ff ff75 	bl	1000109c <ph_remove_any_head>
100011b2:	7360      	strb	r0, [r4, #13]
100011b4:	0028      	movs	r0, r5
100011b6:	bd70      	pop	{r4, r5, r6, pc}

100011b8 <ph_remove_and_free_node>:
100011b8:	b570      	push	{r4, r5, r6, lr}
100011ba:	0004      	movs	r4, r0
100011bc:	2900      	cmp	r1, #0
100011be:	d067      	beq.n	10001290 <ph_remove_and_free_node+0xd8>
100011c0:	7b43      	ldrb	r3, [r0, #13]
100011c2:	428b      	cmp	r3, r1
100011c4:	d00e      	beq.n	100011e4 <ph_remove_and_free_node+0x2c>
100011c6:	2900      	cmp	r1, #0
100011c8:	d011      	beq.n	100011ee <ph_remove_and_free_node+0x36>
100011ca:	7b03      	ldrb	r3, [r0, #12]
100011cc:	4299      	cmp	r1, r3
100011ce:	d80e      	bhi.n	100011ee <ph_remove_and_free_node+0x36>
100011d0:	004b      	lsls	r3, r1, #1
100011d2:	185b      	adds	r3, r3, r1
100011d4:	3b03      	subs	r3, #3
100011d6:	6802      	ldr	r2, [r0, #0]
100011d8:	18d0      	adds	r0, r2, r3
100011da:	7883      	ldrb	r3, [r0, #2]
100011dc:	2b00      	cmp	r3, #0
100011de:	d10c      	bne.n	100011fa <ph_remove_and_free_node+0x42>
100011e0:	2000      	movs	r0, #0
100011e2:	e056      	b.n	10001292 <ph_remove_and_free_node+0xda>
100011e4:	2101      	movs	r1, #1
100011e6:	f7ff ffdd 	bl	100011a4 <ph_remove_head>
100011ea:	2001      	movs	r0, #1
100011ec:	e051      	b.n	10001292 <ph_remove_and_free_node+0xda>
100011ee:	4b29      	ldr	r3, [pc, #164]	; (10001294 <ph_remove_and_free_node+0xdc>)
100011f0:	4a29      	ldr	r2, [pc, #164]	; (10001298 <ph_remove_and_free_node+0xe0>)
100011f2:	2169      	movs	r1, #105	; 0x69
100011f4:	4829      	ldr	r0, [pc, #164]	; (1000129c <ph_remove_and_free_node+0xe4>)
100011f6:	f000 f87d 	bl	100012f4 <__assert_func>
100011fa:	2b00      	cmp	r3, #0
100011fc:	d020      	beq.n	10001240 <ph_remove_and_free_node+0x88>
100011fe:	7b22      	ldrb	r2, [r4, #12]
10001200:	4293      	cmp	r3, r2
10001202:	d81d      	bhi.n	10001240 <ph_remove_and_free_node+0x88>
10001204:	005a      	lsls	r2, r3, #1
10001206:	18d3      	adds	r3, r2, r3
10001208:	3b03      	subs	r3, #3
1000120a:	6822      	ldr	r2, [r4, #0]
1000120c:	18d2      	adds	r2, r2, r3
1000120e:	6825      	ldr	r5, [r4, #0]
10001210:	5ceb      	ldrb	r3, [r5, r3]
10001212:	428b      	cmp	r3, r1
10001214:	d01a      	beq.n	1000124c <ph_remove_and_free_node+0x94>
10001216:	2b00      	cmp	r3, #0
10001218:	d01b      	beq.n	10001252 <ph_remove_and_free_node+0x9a>
1000121a:	7b22      	ldrb	r2, [r4, #12]
1000121c:	4293      	cmp	r3, r2
1000121e:	d818      	bhi.n	10001252 <ph_remove_and_free_node+0x9a>
10001220:	005a      	lsls	r2, r3, #1
10001222:	18d3      	adds	r3, r2, r3
10001224:	3b03      	subs	r3, #3
10001226:	6822      	ldr	r2, [r4, #0]
10001228:	18d2      	adds	r2, r2, r3
1000122a:	7853      	ldrb	r3, [r2, #1]
1000122c:	428b      	cmp	r3, r1
1000122e:	d016      	beq.n	1000125e <ph_remove_and_free_node+0xa6>
10001230:	2b00      	cmp	r3, #0
10001232:	d1f0      	bne.n	10001216 <ph_remove_and_free_node+0x5e>
10001234:	4b1a      	ldr	r3, [pc, #104]	; (100012a0 <ph_remove_and_free_node+0xe8>)
10001236:	4a1b      	ldr	r2, [pc, #108]	; (100012a4 <ph_remove_and_free_node+0xec>)
10001238:	2167      	movs	r1, #103	; 0x67
1000123a:	481b      	ldr	r0, [pc, #108]	; (100012a8 <ph_remove_and_free_node+0xf0>)
1000123c:	f000 f85a 	bl	100012f4 <__assert_func>
10001240:	4b14      	ldr	r3, [pc, #80]	; (10001294 <ph_remove_and_free_node+0xdc>)
10001242:	4a15      	ldr	r2, [pc, #84]	; (10001298 <ph_remove_and_free_node+0xe0>)
10001244:	2169      	movs	r1, #105	; 0x69
10001246:	4815      	ldr	r0, [pc, #84]	; (1000129c <ph_remove_and_free_node+0xe4>)
10001248:	f000 f854 	bl	100012f4 <__assert_func>
1000124c:	7843      	ldrb	r3, [r0, #1]
1000124e:	7013      	strb	r3, [r2, #0]
10001250:	e007      	b.n	10001262 <ph_remove_and_free_node+0xaa>
10001252:	4b10      	ldr	r3, [pc, #64]	; (10001294 <ph_remove_and_free_node+0xdc>)
10001254:	4a10      	ldr	r2, [pc, #64]	; (10001298 <ph_remove_and_free_node+0xe0>)
10001256:	2169      	movs	r1, #105	; 0x69
10001258:	4810      	ldr	r0, [pc, #64]	; (1000129c <ph_remove_and_free_node+0xe4>)
1000125a:	f000 f84b 	bl	100012f4 <__assert_func>
1000125e:	7843      	ldrb	r3, [r0, #1]
10001260:	7053      	strb	r3, [r2, #1]
10001262:	2300      	movs	r3, #0
10001264:	7083      	strb	r3, [r0, #2]
10001266:	7043      	strb	r3, [r0, #1]
10001268:	2201      	movs	r2, #1
1000126a:	0020      	movs	r0, r4
1000126c:	f7ff ff16 	bl	1000109c <ph_remove_any_head>
10001270:	0002      	movs	r2, r0
10001272:	7b61      	ldrb	r1, [r4, #13]
10001274:	4281      	cmp	r1, r0
10001276:	d005      	beq.n	10001284 <ph_remove_and_free_node+0xcc>
10001278:	0020      	movs	r0, r4
1000127a:	f7ff fe5b 	bl	10000f34 <ph_merge_nodes>
1000127e:	7360      	strb	r0, [r4, #13]
10001280:	2001      	movs	r0, #1
10001282:	e006      	b.n	10001292 <ph_remove_and_free_node+0xda>
10001284:	4b09      	ldr	r3, [pc, #36]	; (100012ac <ph_remove_and_free_node+0xf4>)
10001286:	4a07      	ldr	r2, [pc, #28]	; (100012a4 <ph_remove_and_free_node+0xec>)
10001288:	216d      	movs	r1, #109	; 0x6d
1000128a:	4807      	ldr	r0, [pc, #28]	; (100012a8 <ph_remove_and_free_node+0xf0>)
1000128c:	f000 f832 	bl	100012f4 <__assert_func>
10001290:	2000      	movs	r0, #0
10001292:	bd70      	pop	{r4, r5, r6, pc}
10001294:	10006b98 	.word	0x10006b98
10001298:	10007050 	.word	0x10007050
1000129c:	10006bb4 	.word	0x10006bb4
100012a0:	10006fe8 	.word	0x10006fe8
100012a4:	10007010 	.word	0x10007010
100012a8:	10006f58 	.word	0x10006f58
100012ac:	10006ff0 	.word	0x10006ff0

100012b0 <_exit>:
100012b0:	be00      	bkpt	0x0000
100012b2:	e7fd      	b.n	100012b0 <_exit>

100012b4 <_sbrk>:
100012b4:	0003      	movs	r3, r0
100012b6:	4a0a      	ldr	r2, [pc, #40]	; (100012e0 <_sbrk+0x2c>)
100012b8:	6812      	ldr	r2, [r2, #0]
100012ba:	2a00      	cmp	r2, #0
100012bc:	d008      	beq.n	100012d0 <_sbrk+0x1c>
100012be:	4a08      	ldr	r2, [pc, #32]	; (100012e0 <_sbrk+0x2c>)
100012c0:	6810      	ldr	r0, [r2, #0]
100012c2:	18c3      	adds	r3, r0, r3
100012c4:	4a07      	ldr	r2, [pc, #28]	; (100012e4 <_sbrk+0x30>)
100012c6:	429a      	cmp	r2, r3
100012c8:	d306      	bcc.n	100012d8 <_sbrk+0x24>
100012ca:	4a05      	ldr	r2, [pc, #20]	; (100012e0 <_sbrk+0x2c>)
100012cc:	6013      	str	r3, [r2, #0]
100012ce:	4770      	bx	lr
100012d0:	4a03      	ldr	r2, [pc, #12]	; (100012e0 <_sbrk+0x2c>)
100012d2:	4905      	ldr	r1, [pc, #20]	; (100012e8 <_sbrk+0x34>)
100012d4:	6011      	str	r1, [r2, #0]
100012d6:	e7f2      	b.n	100012be <_sbrk+0xa>
100012d8:	2001      	movs	r0, #1
100012da:	4240      	negs	r0, r0
100012dc:	e7f7      	b.n	100012ce <_sbrk+0x1a>
100012de:	46c0      	nop			; (mov r8, r8)
100012e0:	20000e30 	.word	0x20000e30
100012e4:	20040000 	.word	0x20040000
100012e8:	20001068 	.word	0x20001068

100012ec <exit>:
100012ec:	b510      	push	{r4, lr}
100012ee:	f7ff ffdf 	bl	100012b0 <_exit>
	...

100012f4 <__assert_func>:
100012f4:	b510      	push	{r4, lr}
100012f6:	b082      	sub	sp, #8
100012f8:	000c      	movs	r4, r1
100012fa:	0019      	movs	r1, r3
100012fc:	2a00      	cmp	r2, #0
100012fe:	d00c      	beq.n	1000131a <__assert_func+0x26>
10001300:	4b08      	ldr	r3, [pc, #32]	; (10001324 <__assert_func+0x30>)
10001302:	2a00      	cmp	r2, #0
10001304:	d00b      	beq.n	1000131e <__assert_func+0x2a>
10001306:	9201      	str	r2, [sp, #4]
10001308:	9300      	str	r3, [sp, #0]
1000130a:	0023      	movs	r3, r4
1000130c:	0002      	movs	r2, r0
1000130e:	4806      	ldr	r0, [pc, #24]	; (10001328 <__assert_func+0x34>)
10001310:	f002 fd98 	bl	10003e44 <__wrap_printf>
10001314:	2001      	movs	r0, #1
10001316:	f7ff ffcb 	bl	100012b0 <_exit>
1000131a:	4b04      	ldr	r3, [pc, #16]	; (1000132c <__assert_func+0x38>)
1000131c:	e7f1      	b.n	10001302 <__assert_func+0xe>
1000131e:	4a03      	ldr	r2, [pc, #12]	; (1000132c <__assert_func+0x38>)
10001320:	e7f1      	b.n	10001306 <__assert_func+0x12>
10001322:	46c0      	nop			; (mov r8, r8)
10001324:	1000705c 	.word	0x1000705c
10001328:	1000706c 	.word	0x1000706c
1000132c:	10007068 	.word	0x10007068

10001330 <runtime_init>:
10001330:	b570      	push	{r4, r5, r6, lr}
10001332:	4b2b      	ldr	r3, [pc, #172]	; (100013e0 <runtime_init+0xb0>)
10001334:	4a2b      	ldr	r2, [pc, #172]	; (100013e4 <runtime_init+0xb4>)
10001336:	601a      	str	r2, [r3, #0]
10001338:	4b2b      	ldr	r3, [pc, #172]	; (100013e8 <runtime_init+0xb8>)
1000133a:	4a2c      	ldr	r2, [pc, #176]	; (100013ec <runtime_init+0xbc>)
1000133c:	601a      	str	r2, [r3, #0]
1000133e:	4b2c      	ldr	r3, [pc, #176]	; (100013f0 <runtime_init+0xc0>)
10001340:	689a      	ldr	r2, [r3, #8]
10001342:	4b2a      	ldr	r3, [pc, #168]	; (100013ec <runtime_init+0xbc>)
10001344:	4393      	bics	r3, r2
10001346:	d1fa      	bne.n	1000133e <runtime_init+0xe>
10001348:	4c2a      	ldr	r4, [pc, #168]	; (100013f4 <runtime_init+0xc4>)
1000134a:	e001      	b.n	10001350 <runtime_init+0x20>
1000134c:	cc08      	ldmia	r4!, {r3}
1000134e:	4798      	blx	r3
10001350:	4b29      	ldr	r3, [pc, #164]	; (100013f8 <runtime_init+0xc8>)
10001352:	429c      	cmp	r4, r3
10001354:	d3fa      	bcc.n	1000134c <runtime_init+0x1c>
10001356:	f000 f901 	bl	1000155c <clocks_init>
1000135a:	4b23      	ldr	r3, [pc, #140]	; (100013e8 <runtime_init+0xb8>)
1000135c:	4a27      	ldr	r2, [pc, #156]	; (100013fc <runtime_init+0xcc>)
1000135e:	601a      	str	r2, [r3, #0]
10001360:	4b23      	ldr	r3, [pc, #140]	; (100013f0 <runtime_init+0xc0>)
10001362:	689b      	ldr	r3, [r3, #8]
10001364:	43db      	mvns	r3, r3
10001366:	01db      	lsls	r3, r3, #7
10001368:	d1fa      	bne.n	10001360 <runtime_init+0x30>
1000136a:	4b25      	ldr	r3, [pc, #148]	; (10001400 <runtime_init+0xd0>)
1000136c:	2240      	movs	r2, #64	; 0x40
1000136e:	679a      	str	r2, [r3, #120]	; 0x78
10001370:	675a      	str	r2, [r3, #116]	; 0x74
10001372:	671a      	str	r2, [r3, #112]	; 0x70
10001374:	66da      	str	r2, [r3, #108]	; 0x6c
10001376:	4c23      	ldr	r4, [pc, #140]	; (10001404 <runtime_init+0xd4>)
10001378:	e009      	b.n	1000138e <runtime_init+0x5e>
1000137a:	4b23      	ldr	r3, [pc, #140]	; (10001408 <runtime_init+0xd8>)
1000137c:	4a23      	ldr	r2, [pc, #140]	; (1000140c <runtime_init+0xdc>)
1000137e:	2183      	movs	r1, #131	; 0x83
10001380:	4823      	ldr	r0, [pc, #140]	; (10001410 <runtime_init+0xe0>)
10001382:	f7ff ffb7 	bl	100012f4 <__assert_func>
10001386:	0020      	movs	r0, r4
10001388:	f7ff fd66 	bl	10000e58 <mutex_init>
1000138c:	3408      	adds	r4, #8
1000138e:	4b21      	ldr	r3, [pc, #132]	; (10001414 <runtime_init+0xe4>)
10001390:	429c      	cmp	r4, r3
10001392:	d209      	bcs.n	100013a8 <runtime_init+0x78>
10001394:	6823      	ldr	r3, [r4, #0]
10001396:	2b00      	cmp	r3, #0
10001398:	d0f5      	beq.n	10001386 <runtime_init+0x56>
1000139a:	2b01      	cmp	r3, #1
1000139c:	d1ed      	bne.n	1000137a <runtime_init+0x4a>
1000139e:	0020      	movs	r0, r4
100013a0:	f7ff fd67 	bl	10000e72 <recursive_mutex_init>
100013a4:	3408      	adds	r4, #8
100013a6:	e7f2      	b.n	1000138e <runtime_init+0x5e>
100013a8:	4c1b      	ldr	r4, [pc, #108]	; (10001418 <runtime_init+0xe8>)
100013aa:	68a1      	ldr	r1, [r4, #8]
100013ac:	4d1b      	ldr	r5, [pc, #108]	; (1000141c <runtime_init+0xec>)
100013ae:	22c0      	movs	r2, #192	; 0xc0
100013b0:	0028      	movs	r0, r5
100013b2:	f002 fbfd 	bl	10003bb0 <__wrap___aeabi_memcpy>
100013b6:	60a5      	str	r5, [r4, #8]
100013b8:	f7fe ff55 	bl	10000266 <__get_current_exception>
100013bc:	2800      	cmp	r0, #0
100013be:	d000      	beq.n	100013c2 <runtime_init+0x92>
100013c0:	be00      	bkpt	0x0000
100013c2:	f7ff f82d 	bl	10000420 <spin_locks_reset>
100013c6:	f000 fb41 	bl	10001a4c <irq_init_priorities>
100013ca:	f7ff fbe7 	bl	10000b9c <alarm_pool_init_default>
100013ce:	4c14      	ldr	r4, [pc, #80]	; (10001420 <runtime_init+0xf0>)
100013d0:	e001      	b.n	100013d6 <runtime_init+0xa6>
100013d2:	cc08      	ldmia	r4!, {r3}
100013d4:	4798      	blx	r3
100013d6:	4b13      	ldr	r3, [pc, #76]	; (10001424 <runtime_init+0xf4>)
100013d8:	429c      	cmp	r4, r3
100013da:	d3fa      	bcc.n	100013d2 <runtime_init+0xa2>
100013dc:	bd70      	pop	{r4, r5, r6, pc}
100013de:	46c0      	nop			; (mov r8, r8)
100013e0:	4000e000 	.word	0x4000e000
100013e4:	fefbcdbf 	.word	0xfefbcdbf
100013e8:	4000f000 	.word	0x4000f000
100013ec:	003c7ffe 	.word	0x003c7ffe
100013f0:	4000c000 	.word	0x4000c000
100013f4:	20000ab0 	.word	0x20000ab0
100013f8:	20000ac0 	.word	0x20000ac0
100013fc:	01ffffff 	.word	0x01ffffff
10001400:	4001f000 	.word	0x4001f000
10001404:	20000aa8 	.word	0x20000aa8
10001408:	1000709c 	.word	0x1000709c
1000140c:	1000711c 	.word	0x1000711c
10001410:	100070bc 	.word	0x100070bc
10001414:	20000ab0 	.word	0x20000ab0
10001418:	e000ed00 	.word	0xe000ed00
1000141c:	20000000 	.word	0x20000000
10001420:	20000ac0 	.word	0x20000ac0
10001424:	20000ac4 	.word	0x20000ac4

10001428 <panic>:
10001428:	b40f      	push	{r0, r1, r2, r3}
1000142a:	b500      	push	{lr}
1000142c:	b083      	sub	sp, #12
1000142e:	4808      	ldr	r0, [pc, #32]	; (10001450 <panic+0x28>)
10001430:	f002 fcd6 	bl	10003de0 <__wrap_puts>
10001434:	9b04      	ldr	r3, [sp, #16]
10001436:	2b00      	cmp	r3, #0
10001438:	d007      	beq.n	1000144a <panic+0x22>
1000143a:	a905      	add	r1, sp, #20
1000143c:	9101      	str	r1, [sp, #4]
1000143e:	0018      	movs	r0, r3
10001440:	f002 fcde 	bl	10003e00 <__wrap_vprintf>
10001444:	4803      	ldr	r0, [pc, #12]	; (10001454 <panic+0x2c>)
10001446:	f002 fccb 	bl	10003de0 <__wrap_puts>
1000144a:	2001      	movs	r0, #1
1000144c:	f7ff ff30 	bl	100012b0 <_exit>
10001450:	10007108 	.word	0x10007108
10001454:	10007118 	.word	0x10007118

10001458 <clock_configure>:
10001458:	b5f8      	push	{r3, r4, r5, r6, r7, lr}
1000145a:	46de      	mov	lr, fp
1000145c:	4657      	mov	r7, sl
1000145e:	464e      	mov	r6, r9
10001460:	4645      	mov	r5, r8
10001462:	b5e0      	push	{r5, r6, r7, lr}
10001464:	0005      	movs	r5, r0
10001466:	000f      	movs	r7, r1
10001468:	4692      	mov	sl, r2
1000146a:	9a0a      	ldr	r2, [sp, #40]	; 0x28
1000146c:	4293      	cmp	r3, r2
1000146e:	d34e      	bcc.n	1000150e <clock_configure+0xb6>
10001470:	0e1a      	lsrs	r2, r3, #24
10001472:	4691      	mov	r9, r2
10001474:	021e      	lsls	r6, r3, #8
10001476:	9a0a      	ldr	r2, [sp, #40]	; 0x28
10001478:	2300      	movs	r3, #0
1000147a:	0030      	movs	r0, r6
1000147c:	4649      	mov	r1, r9
1000147e:	f001 fcd9 	bl	10002e34 <__wrap___aeabi_uldivmod>
10001482:	4680      	mov	r8, r0
10001484:	006c      	lsls	r4, r5, #1
10001486:	1964      	adds	r4, r4, r5
10001488:	00a4      	lsls	r4, r4, #2
1000148a:	4b2f      	ldr	r3, [pc, #188]	; (10001548 <clock_configure+0xf0>)
1000148c:	469c      	mov	ip, r3
1000148e:	4464      	add	r4, ip
10001490:	6863      	ldr	r3, [r4, #4]
10001492:	4283      	cmp	r3, r0
10001494:	d200      	bcs.n	10001498 <clock_configure+0x40>
10001496:	6060      	str	r0, [r4, #4]
10001498:	1f2b      	subs	r3, r5, #4
1000149a:	b2db      	uxtb	r3, r3
1000149c:	469b      	mov	fp, r3
1000149e:	2b01      	cmp	r3, #1
100014a0:	d93b      	bls.n	1000151a <clock_configure+0xc2>
100014a2:	23c0      	movs	r3, #192	; 0xc0
100014a4:	019b      	lsls	r3, r3, #6
100014a6:	4323      	orrs	r3, r4
100014a8:	2280      	movs	r2, #128	; 0x80
100014aa:	0112      	lsls	r2, r2, #4
100014ac:	601a      	str	r2, [r3, #0]
100014ae:	00ab      	lsls	r3, r5, #2
100014b0:	4a26      	ldr	r2, [pc, #152]	; (1000154c <clock_configure+0xf4>)
100014b2:	5899      	ldr	r1, [r3, r2]
100014b4:	2900      	cmp	r1, #0
100014b6:	d005      	beq.n	100014c4 <clock_configure+0x6c>
100014b8:	6950      	ldr	r0, [r2, #20]
100014ba:	f001 fc79 	bl	10002db0 <__wrap___aeabi_uidiv>
100014be:	3001      	adds	r0, #1
100014c0:	3801      	subs	r0, #1
100014c2:	d1fd      	bne.n	100014c0 <clock_configure+0x68>
100014c4:	4653      	mov	r3, sl
100014c6:	015a      	lsls	r2, r3, #5
100014c8:	6823      	ldr	r3, [r4, #0]
100014ca:	405a      	eors	r2, r3
100014cc:	23e0      	movs	r3, #224	; 0xe0
100014ce:	401a      	ands	r2, r3
100014d0:	2380      	movs	r3, #128	; 0x80
100014d2:	015b      	lsls	r3, r3, #5
100014d4:	4323      	orrs	r3, r4
100014d6:	601a      	str	r2, [r3, #0]
100014d8:	465a      	mov	r2, fp
100014da:	2a01      	cmp	r2, #1
100014dc:	d928      	bls.n	10001530 <clock_configure+0xd8>
100014de:	2380      	movs	r3, #128	; 0x80
100014e0:	019b      	lsls	r3, r3, #6
100014e2:	4323      	orrs	r3, r4
100014e4:	2280      	movs	r2, #128	; 0x80
100014e6:	0112      	lsls	r2, r2, #4
100014e8:	601a      	str	r2, [r3, #0]
100014ea:	4643      	mov	r3, r8
100014ec:	6063      	str	r3, [r4, #4]
100014ee:	4642      	mov	r2, r8
100014f0:	2300      	movs	r3, #0
100014f2:	0030      	movs	r0, r6
100014f4:	4649      	mov	r1, r9
100014f6:	f001 fc9d 	bl	10002e34 <__wrap___aeabi_uldivmod>
100014fa:	00ad      	lsls	r5, r5, #2
100014fc:	4b13      	ldr	r3, [pc, #76]	; (1000154c <clock_configure+0xf4>)
100014fe:	5158      	str	r0, [r3, r5]
10001500:	2001      	movs	r0, #1
10001502:	bcf0      	pop	{r4, r5, r6, r7}
10001504:	46bb      	mov	fp, r7
10001506:	46b2      	mov	sl, r6
10001508:	46a9      	mov	r9, r5
1000150a:	46a0      	mov	r8, r4
1000150c:	bdf8      	pop	{r3, r4, r5, r6, r7, pc}
1000150e:	4b10      	ldr	r3, [pc, #64]	; (10001550 <clock_configure+0xf8>)
10001510:	4a10      	ldr	r2, [pc, #64]	; (10001554 <clock_configure+0xfc>)
10001512:	212d      	movs	r1, #45	; 0x2d
10001514:	4810      	ldr	r0, [pc, #64]	; (10001558 <clock_configure+0x100>)
10001516:	f7ff feed 	bl	100012f4 <__assert_func>
1000151a:	2f01      	cmp	r7, #1
1000151c:	d1c1      	bne.n	100014a2 <clock_configure+0x4a>
1000151e:	23c0      	movs	r3, #192	; 0xc0
10001520:	019b      	lsls	r3, r3, #6
10001522:	4323      	orrs	r3, r4
10001524:	2203      	movs	r2, #3
10001526:	601a      	str	r2, [r3, #0]
10001528:	68a3      	ldr	r3, [r4, #8]
1000152a:	07db      	lsls	r3, r3, #31
1000152c:	d5fc      	bpl.n	10001528 <clock_configure+0xd0>
1000152e:	e7c9      	b.n	100014c4 <clock_configure+0x6c>
10001530:	6821      	ldr	r1, [r4, #0]
10001532:	4079      	eors	r1, r7
10001534:	2203      	movs	r2, #3
10001536:	400a      	ands	r2, r1
10001538:	601a      	str	r2, [r3, #0]
1000153a:	68a2      	ldr	r2, [r4, #8]
1000153c:	2301      	movs	r3, #1
1000153e:	40bb      	lsls	r3, r7
10001540:	4213      	tst	r3, r2
10001542:	d0fa      	beq.n	1000153a <clock_configure+0xe2>
10001544:	e7cb      	b.n	100014de <clock_configure+0x86>
10001546:	46c0      	nop			; (mov r8, r8)
10001548:	40008000 	.word	0x40008000
1000154c:	20000dbc 	.word	0x20000dbc
10001550:	1000712c 	.word	0x1000712c
10001554:	10007190 	.word	0x10007190
10001558:	10007140 	.word	0x10007140

1000155c <clocks_init>:
1000155c:	b530      	push	{r4, r5, lr}
1000155e:	b083      	sub	sp, #12
10001560:	200c      	movs	r0, #12
10001562:	f000 fb0d 	bl	10001b80 <watchdog_start_tick>
10001566:	f7fe ff51 	bl	1000040c <running_on_fpga>
1000156a:	2800      	cmp	r0, #0
1000156c:	d00d      	beq.n	1000158a <clocks_init+0x2e>
1000156e:	2300      	movs	r3, #0
10001570:	e004      	b.n	1000157c <clocks_init+0x20>
10001572:	0099      	lsls	r1, r3, #2
10001574:	4a2d      	ldr	r2, [pc, #180]	; (1000162c <clocks_init+0xd0>)
10001576:	482e      	ldr	r0, [pc, #184]	; (10001630 <clocks_init+0xd4>)
10001578:	5088      	str	r0, [r1, r2]
1000157a:	3301      	adds	r3, #1
1000157c:	2b09      	cmp	r3, #9
1000157e:	d9f8      	bls.n	10001572 <clocks_init+0x16>
10001580:	4b2a      	ldr	r3, [pc, #168]	; (1000162c <clocks_init+0xd0>)
10001582:	4a2c      	ldr	r2, [pc, #176]	; (10001634 <clocks_init+0xd8>)
10001584:	625a      	str	r2, [r3, #36]	; 0x24
10001586:	b003      	add	sp, #12
10001588:	bd30      	pop	{r4, r5, pc}
1000158a:	4b2b      	ldr	r3, [pc, #172]	; (10001638 <clocks_init+0xdc>)
1000158c:	2200      	movs	r2, #0
1000158e:	679a      	str	r2, [r3, #120]	; 0x78
10001590:	f000 fafe 	bl	10001b90 <xosc_init>
10001594:	4b29      	ldr	r3, [pc, #164]	; (1000163c <clocks_init+0xe0>)
10001596:	2201      	movs	r2, #1
10001598:	601a      	str	r2, [r3, #0]
1000159a:	4b27      	ldr	r3, [pc, #156]	; (10001638 <clocks_init+0xdc>)
1000159c:	6c5b      	ldr	r3, [r3, #68]	; 0x44
1000159e:	2b01      	cmp	r3, #1
100015a0:	d1fb      	bne.n	1000159a <clocks_init+0x3e>
100015a2:	4b27      	ldr	r3, [pc, #156]	; (10001640 <clocks_init+0xe4>)
100015a4:	2203      	movs	r2, #3
100015a6:	601a      	str	r2, [r3, #0]
100015a8:	4b23      	ldr	r3, [pc, #140]	; (10001638 <clocks_init+0xdc>)
100015aa:	6b9b      	ldr	r3, [r3, #56]	; 0x38
100015ac:	2b01      	cmp	r3, #1
100015ae:	d1fb      	bne.n	100015a8 <clocks_init+0x4c>
100015b0:	2402      	movs	r4, #2
100015b2:	9400      	str	r4, [sp, #0]
100015b4:	3305      	adds	r3, #5
100015b6:	4a23      	ldr	r2, [pc, #140]	; (10001644 <clocks_init+0xe8>)
100015b8:	2101      	movs	r1, #1
100015ba:	4823      	ldr	r0, [pc, #140]	; (10001648 <clocks_init+0xec>)
100015bc:	f000 fa54 	bl	10001a68 <pll_init>
100015c0:	9400      	str	r4, [sp, #0]
100015c2:	2305      	movs	r3, #5
100015c4:	4a21      	ldr	r2, [pc, #132]	; (1000164c <clocks_init+0xf0>)
100015c6:	2101      	movs	r1, #1
100015c8:	4821      	ldr	r0, [pc, #132]	; (10001650 <clocks_init+0xf4>)
100015ca:	f000 fa4d 	bl	10001a68 <pll_init>
100015ce:	4b21      	ldr	r3, [pc, #132]	; (10001654 <clocks_init+0xf8>)
100015d0:	9300      	str	r3, [sp, #0]
100015d2:	2200      	movs	r2, #0
100015d4:	2102      	movs	r1, #2
100015d6:	2004      	movs	r0, #4
100015d8:	f7ff ff3e 	bl	10001458 <clock_configure>
100015dc:	4d1e      	ldr	r5, [pc, #120]	; (10001658 <clocks_init+0xfc>)
100015de:	9500      	str	r5, [sp, #0]
100015e0:	002b      	movs	r3, r5
100015e2:	2200      	movs	r2, #0
100015e4:	2101      	movs	r1, #1
100015e6:	2005      	movs	r0, #5
100015e8:	f7ff ff36 	bl	10001458 <clock_configure>
100015ec:	4c10      	ldr	r4, [pc, #64]	; (10001630 <clocks_init+0xd4>)
100015ee:	9400      	str	r4, [sp, #0]
100015f0:	0023      	movs	r3, r4
100015f2:	2200      	movs	r2, #0
100015f4:	2100      	movs	r1, #0
100015f6:	2007      	movs	r0, #7
100015f8:	f7ff ff2e 	bl	10001458 <clock_configure>
100015fc:	9400      	str	r4, [sp, #0]
100015fe:	0023      	movs	r3, r4
10001600:	2200      	movs	r2, #0
10001602:	2100      	movs	r1, #0
10001604:	2008      	movs	r0, #8
10001606:	f7ff ff27 	bl	10001458 <clock_configure>
1000160a:	4b0a      	ldr	r3, [pc, #40]	; (10001634 <clocks_init+0xd8>)
1000160c:	9300      	str	r3, [sp, #0]
1000160e:	0023      	movs	r3, r4
10001610:	2200      	movs	r2, #0
10001612:	2100      	movs	r1, #0
10001614:	2009      	movs	r0, #9
10001616:	f7ff ff1f 	bl	10001458 <clock_configure>
1000161a:	9500      	str	r5, [sp, #0]
1000161c:	002b      	movs	r3, r5
1000161e:	2200      	movs	r2, #0
10001620:	2100      	movs	r1, #0
10001622:	2006      	movs	r0, #6
10001624:	f7ff ff18 	bl	10001458 <clock_configure>
10001628:	e7ad      	b.n	10001586 <clocks_init+0x2a>
1000162a:	46c0      	nop			; (mov r8, r8)
1000162c:	20000dbc 	.word	0x20000dbc
10001630:	02dc6c00 	.word	0x02dc6c00
10001634:	0000b71b 	.word	0x0000b71b
10001638:	40008000 	.word	0x40008000
1000163c:	4000b03c 	.word	0x4000b03c
10001640:	4000b030 	.word	0x4000b030
10001644:	59682f00 	.word	0x59682f00
10001648:	40028000 	.word	0x40028000
1000164c:	1c9c3800 	.word	0x1c9c3800
10001650:	4002c000 	.word	0x4002c000
10001654:	00b71b00 	.word	0x00b71b00
10001658:	07735940 	.word	0x07735940

1000165c <clock_get_hz>:
1000165c:	0080      	lsls	r0, r0, #2
1000165e:	4b01      	ldr	r3, [pc, #4]	; (10001664 <clock_get_hz+0x8>)
10001660:	58c0      	ldr	r0, [r0, r3]
10001662:	4770      	bx	lr
10001664:	20000dbc 	.word	0x20000dbc

10001668 <set_raw_irq_handler_and_unlock>:
10001668:	4b07      	ldr	r3, [pc, #28]	; (10001688 <set_raw_irq_handler_and_unlock+0x20>)
1000166a:	689b      	ldr	r3, [r3, #8]
1000166c:	3010      	adds	r0, #16
1000166e:	0080      	lsls	r0, r0, #2
10001670:	5019      	str	r1, [r3, r0]
10001672:	f3bf 8f5f 	dmb	sy
10001676:	f3bf 8f5f 	dmb	sy
1000167a:	4b04      	ldr	r3, [pc, #16]	; (1000168c <set_raw_irq_handler_and_unlock+0x24>)
1000167c:	2100      	movs	r1, #0
1000167e:	6019      	str	r1, [r3, #0]
10001680:	f382 8810 	msr	PRIMASK, r2
10001684:	4770      	bx	lr
10001686:	46c0      	nop			; (mov r8, r8)
10001688:	e000ed00 	.word	0xe000ed00
1000168c:	d0000124 	.word	0xd0000124

10001690 <make_branch>:
10001690:	b510      	push	{r4, lr}
10001692:	1a09      	subs	r1, r1, r0
10001694:	3904      	subs	r1, #4
10001696:	0848      	lsrs	r0, r1, #1
10001698:	0b09      	lsrs	r1, r1, #12
1000169a:	d105      	bne.n	100016a8 <make_branch+0x18>
1000169c:	0540      	lsls	r0, r0, #21
1000169e:	0d40      	lsrs	r0, r0, #21
100016a0:	4b04      	ldr	r3, [pc, #16]	; (100016b4 <make_branch+0x24>)
100016a2:	4318      	orrs	r0, r3
100016a4:	b280      	uxth	r0, r0
100016a6:	bd10      	pop	{r4, pc}
100016a8:	4b03      	ldr	r3, [pc, #12]	; (100016b8 <make_branch+0x28>)
100016aa:	4a04      	ldr	r2, [pc, #16]	; (100016bc <make_branch+0x2c>)
100016ac:	218b      	movs	r1, #139	; 0x8b
100016ae:	4804      	ldr	r0, [pc, #16]	; (100016c0 <make_branch+0x30>)
100016b0:	f7ff fe20 	bl	100012f4 <__assert_func>
100016b4:	ffffe000 	.word	0xffffe000
100016b8:	100071a0 	.word	0x100071a0
100016bc:	100073b4 	.word	0x100073b4
100016c0:	100071b0 	.word	0x100071b0

100016c4 <insert_branch_and_link>:
100016c4:	b510      	push	{r4, lr}
100016c6:	1a09      	subs	r1, r1, r0
100016c8:	3904      	subs	r1, #4
100016ca:	084c      	lsrs	r4, r1, #1
100016cc:	0b09      	lsrs	r1, r1, #12
100016ce:	d108      	bne.n	100016e2 <insert_branch_and_link+0x1e>
100016d0:	0549      	lsls	r1, r1, #21
100016d2:	0d49      	lsrs	r1, r1, #21
100016d4:	4a06      	ldr	r2, [pc, #24]	; (100016f0 <insert_branch_and_link+0x2c>)
100016d6:	4311      	orrs	r1, r2
100016d8:	8001      	strh	r1, [r0, #0]
100016da:	4b06      	ldr	r3, [pc, #24]	; (100016f4 <insert_branch_and_link+0x30>)
100016dc:	4323      	orrs	r3, r4
100016de:	8043      	strh	r3, [r0, #2]
100016e0:	bd10      	pop	{r4, pc}
100016e2:	4b05      	ldr	r3, [pc, #20]	; (100016f8 <insert_branch_and_link+0x34>)
100016e4:	4a05      	ldr	r2, [pc, #20]	; (100016fc <insert_branch_and_link+0x38>)
100016e6:	2193      	movs	r1, #147	; 0x93
100016e8:	4805      	ldr	r0, [pc, #20]	; (10001700 <insert_branch_and_link+0x3c>)
100016ea:	f7ff fe03 	bl	100012f4 <__assert_func>
100016ee:	46c0      	nop			; (mov r8, r8)
100016f0:	fffff000 	.word	0xfffff000
100016f4:	fffff800 	.word	0xfffff800
100016f8:	100071a0 	.word	0x100071a0
100016fc:	10007388 	.word	0x10007388
10001700:	100071b0 	.word	0x100071b0

10001704 <irq_is_enabled>:
10001704:	2301      	movs	r3, #1
10001706:	4083      	lsls	r3, r0
10001708:	4a03      	ldr	r2, [pc, #12]	; (10001718 <irq_is_enabled+0x14>)
1000170a:	6810      	ldr	r0, [r2, #0]
1000170c:	4018      	ands	r0, r3
1000170e:	1e43      	subs	r3, r0, #1
10001710:	4198      	sbcs	r0, r3
10001712:	b2c0      	uxtb	r0, r0
10001714:	4770      	bx	lr
10001716:	46c0      	nop			; (mov r8, r8)
10001718:	e000e100 	.word	0xe000e100

1000171c <irq_set_mask_enabled>:
1000171c:	2900      	cmp	r1, #0
1000171e:	d004      	beq.n	1000172a <irq_set_mask_enabled+0xe>
10001720:	4b03      	ldr	r3, [pc, #12]	; (10001730 <irq_set_mask_enabled+0x14>)
10001722:	6018      	str	r0, [r3, #0]
10001724:	4b03      	ldr	r3, [pc, #12]	; (10001734 <irq_set_mask_enabled+0x18>)
10001726:	6018      	str	r0, [r3, #0]
10001728:	4770      	bx	lr
1000172a:	4b03      	ldr	r3, [pc, #12]	; (10001738 <irq_set_mask_enabled+0x1c>)
1000172c:	6018      	str	r0, [r3, #0]
1000172e:	e7fb      	b.n	10001728 <irq_set_mask_enabled+0xc>
10001730:	e000e280 	.word	0xe000e280
10001734:	e000e100 	.word	0xe000e100
10001738:	e000e180 	.word	0xe000e180

1000173c <irq_set_enabled>:
1000173c:	b510      	push	{r4, lr}
1000173e:	2301      	movs	r3, #1
10001740:	4083      	lsls	r3, r0
10001742:	0018      	movs	r0, r3
10001744:	f7ff ffea 	bl	1000171c <irq_set_mask_enabled>
10001748:	bd10      	pop	{r4, pc}
	...

1000174c <irq_get_vtable_handler>:
1000174c:	4b02      	ldr	r3, [pc, #8]	; (10001758 <irq_get_vtable_handler+0xc>)
1000174e:	689b      	ldr	r3, [r3, #8]
10001750:	3010      	adds	r0, #16
10001752:	0080      	lsls	r0, r0, #2
10001754:	58c0      	ldr	r0, [r0, r3]
10001756:	4770      	bx	lr
10001758:	e000ed00 	.word	0xe000ed00

1000175c <irq_set_exclusive_handler>:
1000175c:	b570      	push	{r4, r5, r6, lr}
1000175e:	0004      	movs	r4, r0
10001760:	000d      	movs	r5, r1
10001762:	f3ef 8610 	mrs	r6, PRIMASK
10001766:	b672      	cpsid	i
10001768:	4b0c      	ldr	r3, [pc, #48]	; (1000179c <irq_set_exclusive_handler+0x40>)
1000176a:	681b      	ldr	r3, [r3, #0]
1000176c:	2b00      	cmp	r3, #0
1000176e:	d0fb      	beq.n	10001768 <irq_set_exclusive_handler+0xc>
10001770:	f3bf 8f5f 	dmb	sy
10001774:	0020      	movs	r0, r4
10001776:	f7ff ffe9 	bl	1000174c <irq_get_vtable_handler>
1000177a:	4b09      	ldr	r3, [pc, #36]	; (100017a0 <irq_set_exclusive_handler+0x44>)
1000177c:	4298      	cmp	r0, r3
1000177e:	d001      	beq.n	10001784 <irq_set_exclusive_handler+0x28>
10001780:	42a8      	cmp	r0, r5
10001782:	d105      	bne.n	10001790 <irq_set_exclusive_handler+0x34>
10001784:	0032      	movs	r2, r6
10001786:	0029      	movs	r1, r5
10001788:	0020      	movs	r0, r4
1000178a:	f7ff ff6d 	bl	10001668 <set_raw_irq_handler_and_unlock>
1000178e:	bd70      	pop	{r4, r5, r6, pc}
10001790:	4b04      	ldr	r3, [pc, #16]	; (100017a4 <irq_set_exclusive_handler+0x48>)
10001792:	4a05      	ldr	r2, [pc, #20]	; (100017a8 <irq_set_exclusive_handler+0x4c>)
10001794:	216e      	movs	r1, #110	; 0x6e
10001796:	4805      	ldr	r0, [pc, #20]	; (100017ac <irq_set_exclusive_handler+0x50>)
10001798:	f7ff fdac 	bl	100012f4 <__assert_func>
1000179c:	d0000124 	.word	0xd0000124
100017a0:	100001cd 	.word	0x100001cd
100017a4:	100071f8 	.word	0x100071f8
100017a8:	100073d0 	.word	0x100073d0
100017ac:	100071b0 	.word	0x100071b0

100017b0 <irq_remove_handler>:
100017b0:	b5f0      	push	{r4, r5, r6, r7, lr}
100017b2:	46ce      	mov	lr, r9
100017b4:	4647      	mov	r7, r8
100017b6:	b580      	push	{r7, lr}
100017b8:	b083      	sub	sp, #12
100017ba:	0006      	movs	r6, r0
100017bc:	000d      	movs	r5, r1
100017be:	f3ef 8810 	mrs	r8, PRIMASK
100017c2:	b672      	cpsid	i
100017c4:	4b57      	ldr	r3, [pc, #348]	; (10001924 <irq_remove_handler+0x174>)
100017c6:	681b      	ldr	r3, [r3, #0]
100017c8:	2b00      	cmp	r3, #0
100017ca:	d0fb      	beq.n	100017c4 <irq_remove_handler+0x14>
100017cc:	f3bf 8f5f 	dmb	sy
100017d0:	4b55      	ldr	r3, [pc, #340]	; (10001928 <irq_remove_handler+0x178>)
100017d2:	689a      	ldr	r2, [r3, #8]
100017d4:	0034      	movs	r4, r6
100017d6:	3410      	adds	r4, #16
100017d8:	00a3      	lsls	r3, r4, #2
100017da:	58d7      	ldr	r7, [r2, r3]
100017dc:	4b53      	ldr	r3, [pc, #332]	; (1000192c <irq_remove_handler+0x17c>)
100017de:	429f      	cmp	r7, r3
100017e0:	d007      	beq.n	100017f2 <irq_remove_handler+0x42>
100017e2:	42af      	cmp	r7, r5
100017e4:	d100      	bne.n	100017e8 <irq_remove_handler+0x38>
100017e6:	e09b      	b.n	10001920 <irq_remove_handler+0x170>
100017e8:	9701      	str	r7, [sp, #4]
100017ea:	4b51      	ldr	r3, [pc, #324]	; (10001930 <irq_remove_handler+0x180>)
100017ec:	1afb      	subs	r3, r7, r3
100017ee:	2b2f      	cmp	r3, #47	; 0x2f
100017f0:	d909      	bls.n	10001806 <irq_remove_handler+0x56>
100017f2:	4642      	mov	r2, r8
100017f4:	0039      	movs	r1, r7
100017f6:	0030      	movs	r0, r6
100017f8:	f7ff ff36 	bl	10001668 <set_raw_irq_handler_and_unlock>
100017fc:	b003      	add	sp, #12
100017fe:	bcc0      	pop	{r6, r7}
10001800:	46b9      	mov	r9, r7
10001802:	46b0      	mov	r8, r6
10001804:	bdf0      	pop	{r4, r5, r6, r7, pc}
10001806:	0030      	movs	r0, r6
10001808:	f7ff ff7c 	bl	10001704 <irq_is_enabled>
1000180c:	4681      	mov	r9, r0
1000180e:	2100      	movs	r1, #0
10001810:	0030      	movs	r0, r6
10001812:	f7ff ff93 	bl	1000173c <irq_set_enabled>
10001816:	f3bf 8f5f 	dmb	sy
1000181a:	f7fe fd24 	bl	10000266 <__get_current_exception>
1000181e:	2800      	cmp	r0, #0
10001820:	d001      	beq.n	10001826 <irq_remove_handler+0x76>
10001822:	4284      	cmp	r4, r0
10001824:	d119      	bne.n	1000185a <irq_remove_handler+0xaa>
10001826:	2301      	movs	r3, #1
10001828:	9c01      	ldr	r4, [sp, #4]
1000182a:	439c      	bics	r4, r3
1000182c:	4941      	ldr	r1, [pc, #260]	; (10001934 <irq_remove_handler+0x184>)
1000182e:	0023      	movs	r3, r4
10001830:	4a3f      	ldr	r2, [pc, #252]	; (10001930 <irq_remove_handler+0x180>)
10001832:	1a9b      	subs	r3, r3, r2
10001834:	415b      	adcs	r3, r3
10001836:	4359      	muls	r1, r3
10001838:	0d09      	lsrs	r1, r1, #20
1000183a:	b249      	sxtb	r1, r1
1000183c:	2200      	movs	r2, #0
1000183e:	68a3      	ldr	r3, [r4, #8]
10001840:	42ab      	cmp	r3, r5
10001842:	d012      	beq.n	1000186a <irq_remove_handler+0xba>
10001844:	2206      	movs	r2, #6
10001846:	56a2      	ldrsb	r2, [r4, r2]
10001848:	2a00      	cmp	r2, #0
1000184a:	db0d      	blt.n	10001868 <irq_remove_handler+0xb8>
1000184c:	0053      	lsls	r3, r2, #1
1000184e:	189b      	adds	r3, r3, r2
10001850:	009b      	lsls	r3, r3, #2
10001852:	0022      	movs	r2, r4
10001854:	4c36      	ldr	r4, [pc, #216]	; (10001930 <irq_remove_handler+0x180>)
10001856:	18e4      	adds	r4, r4, r3
10001858:	e7f1      	b.n	1000183e <irq_remove_handler+0x8e>
1000185a:	211e      	movs	r1, #30
1000185c:	4b36      	ldr	r3, [pc, #216]	; (10001938 <irq_remove_handler+0x188>)
1000185e:	4a37      	ldr	r2, [pc, #220]	; (1000193c <irq_remove_handler+0x18c>)
10001860:	31ff      	adds	r1, #255	; 0xff
10001862:	4837      	ldr	r0, [pc, #220]	; (10001940 <irq_remove_handler+0x190>)
10001864:	f7ff fd46 	bl	100012f4 <__assert_func>
10001868:	0022      	movs	r2, r4
1000186a:	42ab      	cmp	r3, r5
1000186c:	d151      	bne.n	10001912 <irq_remove_handler+0x162>
1000186e:	2506      	movs	r5, #6
10001870:	5765      	ldrsb	r5, [r4, r5]
10001872:	2d00      	cmp	r5, #0
10001874:	db39      	blt.n	100018ea <irq_remove_handler+0x13a>
10001876:	006b      	lsls	r3, r5, #1
10001878:	195b      	adds	r3, r3, r5
1000187a:	009a      	lsls	r2, r3, #2
1000187c:	4b2c      	ldr	r3, [pc, #176]	; (10001930 <irq_remove_handler+0x180>)
1000187e:	189b      	adds	r3, r3, r2
10001880:	689a      	ldr	r2, [r3, #8]
10001882:	60a2      	str	r2, [r4, #8]
10001884:	79da      	ldrb	r2, [r3, #7]
10001886:	71e2      	strb	r2, [r4, #7]
10001888:	2206      	movs	r2, #6
1000188a:	569a      	ldrsb	r2, [r3, r2]
1000188c:	71a2      	strb	r2, [r4, #6]
1000188e:	799b      	ldrb	r3, [r3, #6]
10001890:	b25b      	sxtb	r3, r3
10001892:	2b00      	cmp	r3, #0
10001894:	da10      	bge.n	100018b8 <irq_remove_handler+0x108>
10001896:	20bd      	movs	r0, #189	; 0xbd
10001898:	0200      	lsls	r0, r0, #8
1000189a:	80a0      	strh	r0, [r4, #4]
1000189c:	006b      	lsls	r3, r5, #1
1000189e:	195b      	adds	r3, r3, r5
100018a0:	009b      	lsls	r3, r3, #2
100018a2:	4a23      	ldr	r2, [pc, #140]	; (10001930 <irq_remove_handler+0x180>)
100018a4:	18d3      	adds	r3, r2, r3
100018a6:	4a27      	ldr	r2, [pc, #156]	; (10001944 <irq_remove_handler+0x194>)
100018a8:	7811      	ldrb	r1, [r2, #0]
100018aa:	7199      	strb	r1, [r3, #6]
100018ac:	7015      	strb	r5, [r2, #0]
100018ae:	4649      	mov	r1, r9
100018b0:	0030      	movs	r0, r6
100018b2:	f7ff ff43 	bl	1000173c <irq_set_enabled>
100018b6:	e79c      	b.n	100017f2 <irq_remove_handler+0x42>
100018b8:	1d20      	adds	r0, r4, #4
100018ba:	006b      	lsls	r3, r5, #1
100018bc:	195b      	adds	r3, r3, r5
100018be:	009b      	lsls	r3, r3, #2
100018c0:	4a1b      	ldr	r2, [pc, #108]	; (10001930 <irq_remove_handler+0x180>)
100018c2:	189b      	adds	r3, r3, r2
100018c4:	1d1a      	adds	r2, r3, #4
100018c6:	889b      	ldrh	r3, [r3, #4]
100018c8:	0ad9      	lsrs	r1, r3, #11
100018ca:	291c      	cmp	r1, #28
100018cc:	d107      	bne.n	100018de <irq_remove_handler+0x12e>
100018ce:	055b      	lsls	r3, r3, #21
100018d0:	155b      	asrs	r3, r3, #21
100018d2:	3302      	adds	r3, #2
100018d4:	0059      	lsls	r1, r3, #1
100018d6:	1851      	adds	r1, r2, r1
100018d8:	f7ff feda 	bl	10001690 <make_branch>
100018dc:	e7dd      	b.n	1000189a <irq_remove_handler+0xea>
100018de:	4b1a      	ldr	r3, [pc, #104]	; (10001948 <irq_remove_handler+0x198>)
100018e0:	4a1a      	ldr	r2, [pc, #104]	; (1000194c <irq_remove_handler+0x19c>)
100018e2:	2199      	movs	r1, #153	; 0x99
100018e4:	4816      	ldr	r0, [pc, #88]	; (10001940 <irq_remove_handler+0x190>)
100018e6:	f7ff fd05 	bl	100012f4 <__assert_func>
100018ea:	2800      	cmp	r0, #0
100018ec:	d10c      	bne.n	10001908 <irq_remove_handler+0x158>
100018ee:	2a00      	cmp	r2, #0
100018f0:	d008      	beq.n	10001904 <irq_remove_handler+0x154>
100018f2:	23ff      	movs	r3, #255	; 0xff
100018f4:	7193      	strb	r3, [r2, #6]
100018f6:	4b16      	ldr	r3, [pc, #88]	; (10001950 <irq_remove_handler+0x1a0>)
100018f8:	8093      	strh	r3, [r2, #4]
100018fa:	4b12      	ldr	r3, [pc, #72]	; (10001944 <irq_remove_handler+0x194>)
100018fc:	781a      	ldrb	r2, [r3, #0]
100018fe:	71a2      	strb	r2, [r4, #6]
10001900:	7019      	strb	r1, [r3, #0]
10001902:	e7d4      	b.n	100018ae <irq_remove_handler+0xfe>
10001904:	4f09      	ldr	r7, [pc, #36]	; (1000192c <irq_remove_handler+0x17c>)
10001906:	e7f8      	b.n	100018fa <irq_remove_handler+0x14a>
10001908:	1d20      	adds	r0, r4, #4
1000190a:	4912      	ldr	r1, [pc, #72]	; (10001954 <irq_remove_handler+0x1a4>)
1000190c:	f7ff feda 	bl	100016c4 <insert_branch_and_link>
10001910:	e7cd      	b.n	100018ae <irq_remove_handler+0xfe>
10001912:	21a9      	movs	r1, #169	; 0xa9
10001914:	4b10      	ldr	r3, [pc, #64]	; (10001958 <irq_remove_handler+0x1a8>)
10001916:	4a09      	ldr	r2, [pc, #36]	; (1000193c <irq_remove_handler+0x18c>)
10001918:	0049      	lsls	r1, r1, #1
1000191a:	4809      	ldr	r0, [pc, #36]	; (10001940 <irq_remove_handler+0x190>)
1000191c:	f7ff fcea 	bl	100012f4 <__assert_func>
10001920:	4f02      	ldr	r7, [pc, #8]	; (1000192c <irq_remove_handler+0x17c>)
10001922:	e766      	b.n	100017f2 <irq_remove_handler+0x42>
10001924:	d0000124 	.word	0xd0000124
10001928:	e000ed00 	.word	0xe000ed00
1000192c:	100001cd 	.word	0x100001cd
10001930:	200001dc 	.word	0x200001dc
10001934:	0000aaaa 	.word	0x0000aaaa
10001938:	1000730c 	.word	0x1000730c
1000193c:	100073a0 	.word	0x100073a0
10001940:	100071b0 	.word	0x100071b0
10001944:	20001065 	.word	0x20001065
10001948:	100072f4 	.word	0x100072f4
1000194c:	100073c0 	.word	0x100073c0
10001950:	ffffbd00 	.word	0xffffbd00
10001954:	20000216 	.word	0x20000216
10001958:	10007330 	.word	0x10007330

1000195c <irq_add_tail_to_free_list>:
1000195c:	b570      	push	{r4, r5, r6, lr}
1000195e:	0004      	movs	r4, r0
10001960:	2601      	movs	r6, #1
10001962:	4306      	orrs	r6, r0
10001964:	4b2d      	ldr	r3, [pc, #180]	; (10001a1c <irq_add_tail_to_free_list+0xc0>)
10001966:	1af3      	subs	r3, r6, r3
10001968:	2b2f      	cmp	r3, #47	; 0x2f
1000196a:	d828      	bhi.n	100019be <irq_add_tail_to_free_list+0x62>
1000196c:	f7fe fc7b 	bl	10000266 <__get_current_exception>
10001970:	2800      	cmp	r0, #0
10001972:	d02b      	beq.n	100019cc <irq_add_tail_to_free_list+0x70>
10001974:	f3ef 8c10 	mrs	ip, PRIMASK
10001978:	b672      	cpsid	i
1000197a:	4b29      	ldr	r3, [pc, #164]	; (10001a20 <irq_add_tail_to_free_list+0xc4>)
1000197c:	681b      	ldr	r3, [r3, #0]
1000197e:	2b00      	cmp	r3, #0
10001980:	d0fb      	beq.n	1000197a <irq_add_tail_to_free_list+0x1e>
10001982:	f3bf 8f5f 	dmb	sy
10001986:	4d27      	ldr	r5, [pc, #156]	; (10001a24 <irq_add_tail_to_free_list+0xc8>)
10001988:	0022      	movs	r2, r4
1000198a:	4924      	ldr	r1, [pc, #144]	; (10001a1c <irq_add_tail_to_free_list+0xc0>)
1000198c:	1a52      	subs	r2, r2, r1
1000198e:	4152      	adcs	r2, r2
10001990:	4355      	muls	r5, r2
10001992:	0d2d      	lsrs	r5, r5, #20
10001994:	b26d      	sxtb	r5, r5
10001996:	4b24      	ldr	r3, [pc, #144]	; (10001a28 <irq_add_tail_to_free_list+0xcc>)
10001998:	689b      	ldr	r3, [r3, #8]
1000199a:	0080      	lsls	r0, r0, #2
1000199c:	581b      	ldr	r3, [r3, r0]
1000199e:	42b3      	cmp	r3, r6
100019a0:	d01b      	beq.n	100019da <irq_add_tail_to_free_list+0x7e>
100019a2:	2200      	movs	r2, #0
100019a4:	2a03      	cmp	r2, #3
100019a6:	d832      	bhi.n	10001a0e <irq_add_tail_to_free_list+0xb2>
100019a8:	0053      	lsls	r3, r2, #1
100019aa:	189b      	adds	r3, r3, r2
100019ac:	009b      	lsls	r3, r3, #2
100019ae:	491b      	ldr	r1, [pc, #108]	; (10001a1c <irq_add_tail_to_free_list+0xc0>)
100019b0:	18cb      	adds	r3, r1, r3
100019b2:	799b      	ldrb	r3, [r3, #6]
100019b4:	b25b      	sxtb	r3, r3
100019b6:	42ab      	cmp	r3, r5
100019b8:	d01f      	beq.n	100019fa <irq_add_tail_to_free_list+0x9e>
100019ba:	3201      	adds	r2, #1
100019bc:	e7f2      	b.n	100019a4 <irq_add_tail_to_free_list+0x48>
100019be:	2178      	movs	r1, #120	; 0x78
100019c0:	4b1a      	ldr	r3, [pc, #104]	; (10001a2c <irq_add_tail_to_free_list+0xd0>)
100019c2:	4a1b      	ldr	r2, [pc, #108]	; (10001a30 <irq_add_tail_to_free_list+0xd4>)
100019c4:	31ff      	adds	r1, #255	; 0xff
100019c6:	481b      	ldr	r0, [pc, #108]	; (10001a34 <irq_add_tail_to_free_list+0xd8>)
100019c8:	f7ff fc94 	bl	100012f4 <__assert_func>
100019cc:	21bd      	movs	r1, #189	; 0xbd
100019ce:	4b1a      	ldr	r3, [pc, #104]	; (10001a38 <irq_add_tail_to_free_list+0xdc>)
100019d0:	4a17      	ldr	r2, [pc, #92]	; (10001a30 <irq_add_tail_to_free_list+0xd4>)
100019d2:	0049      	lsls	r1, r1, #1
100019d4:	4817      	ldr	r0, [pc, #92]	; (10001a34 <irq_add_tail_to_free_list+0xd8>)
100019d6:	f7ff fc8d 	bl	100012f4 <__assert_func>
100019da:	4b13      	ldr	r3, [pc, #76]	; (10001a28 <irq_add_tail_to_free_list+0xcc>)
100019dc:	689b      	ldr	r3, [r3, #8]
100019de:	4a17      	ldr	r2, [pc, #92]	; (10001a3c <irq_add_tail_to_free_list+0xe0>)
100019e0:	501a      	str	r2, [r3, r0]
100019e2:	4b17      	ldr	r3, [pc, #92]	; (10001a40 <irq_add_tail_to_free_list+0xe4>)
100019e4:	781a      	ldrb	r2, [r3, #0]
100019e6:	71a2      	strb	r2, [r4, #6]
100019e8:	701d      	strb	r5, [r3, #0]
100019ea:	f3bf 8f5f 	dmb	sy
100019ee:	4b0c      	ldr	r3, [pc, #48]	; (10001a20 <irq_add_tail_to_free_list+0xc4>)
100019f0:	2200      	movs	r2, #0
100019f2:	601a      	str	r2, [r3, #0]
100019f4:	f38c 8810 	msr	PRIMASK, ip
100019f8:	bd70      	pop	{r4, r5, r6, pc}
100019fa:	0008      	movs	r0, r1
100019fc:	0053      	lsls	r3, r2, #1
100019fe:	1899      	adds	r1, r3, r2
10001a00:	0089      	lsls	r1, r1, #2
10001a02:	1841      	adds	r1, r0, r1
10001a04:	26ff      	movs	r6, #255	; 0xff
10001a06:	718e      	strb	r6, [r1, #6]
10001a08:	4a0e      	ldr	r2, [pc, #56]	; (10001a44 <irq_add_tail_to_free_list+0xe8>)
10001a0a:	808a      	strh	r2, [r1, #4]
10001a0c:	e7e9      	b.n	100019e2 <irq_add_tail_to_free_list+0x86>
10001a0e:	218c      	movs	r1, #140	; 0x8c
10001a10:	4b0d      	ldr	r3, [pc, #52]	; (10001a48 <irq_add_tail_to_free_list+0xec>)
10001a12:	4a07      	ldr	r2, [pc, #28]	; (10001a30 <irq_add_tail_to_free_list+0xd4>)
10001a14:	31ff      	adds	r1, #255	; 0xff
10001a16:	4807      	ldr	r0, [pc, #28]	; (10001a34 <irq_add_tail_to_free_list+0xd8>)
10001a18:	f7ff fc6c 	bl	100012f4 <__assert_func>
10001a1c:	200001dc 	.word	0x200001dc
10001a20:	d0000124 	.word	0xd0000124
10001a24:	0000aaaa 	.word	0x0000aaaa
10001a28:	e000ed00 	.word	0xe000ed00
10001a2c:	10007338 	.word	0x10007338
10001a30:	1000736c 	.word	0x1000736c
10001a34:	100071b0 	.word	0x100071b0
10001a38:	10007360 	.word	0x10007360
10001a3c:	100001cd 	.word	0x100001cd
10001a40:	20001065 	.word	0x20001065
10001a44:	ffffbd00 	.word	0xffffbd00
10001a48:	10006fe8 	.word	0x10006fe8

10001a4c <irq_init_priorities>:
10001a4c:	2200      	movs	r2, #0
10001a4e:	4b04      	ldr	r3, [pc, #16]	; (10001a60 <irq_init_priorities+0x14>)
10001a50:	e002      	b.n	10001a58 <irq_init_priorities+0xc>
10001a52:	4904      	ldr	r1, [pc, #16]	; (10001a64 <irq_init_priorities+0x18>)
10001a54:	c302      	stmia	r3!, {r1}
10001a56:	3201      	adds	r2, #1
10001a58:	2a07      	cmp	r2, #7
10001a5a:	d9fa      	bls.n	10001a52 <irq_init_priorities+0x6>
10001a5c:	4770      	bx	lr
10001a5e:	46c0      	nop			; (mov r8, r8)
10001a60:	e000e400 	.word	0xe000e400
10001a64:	80808080 	.word	0x80808080

10001a68 <pll_init>:
10001a68:	b5f0      	push	{r4, r5, r6, r7, lr}
10001a6a:	46ce      	mov	lr, r9
10001a6c:	b500      	push	{lr}
10001a6e:	0004      	movs	r4, r0
10001a70:	000e      	movs	r6, r1
10001a72:	4691      	mov	r9, r2
10001a74:	001f      	movs	r7, r3
10001a76:	200c      	movs	r0, #12
10001a78:	f001 f99a 	bl	10002db0 <__wrap___aeabi_uidiv>
10001a7c:	0005      	movs	r5, r0
10001a7e:	0143      	lsls	r3, r0, #5
10001a80:	1a1b      	subs	r3, r3, r0
10001a82:	0199      	lsls	r1, r3, #6
10001a84:	1ac9      	subs	r1, r1, r3
10001a86:	00c9      	lsls	r1, r1, #3
10001a88:	1809      	adds	r1, r1, r0
10001a8a:	0189      	lsls	r1, r1, #6
10001a8c:	4648      	mov	r0, r9
10001a8e:	f001 f98f 	bl	10002db0 <__wrap___aeabi_uidiv>
10001a92:	0002      	movs	r2, r0
10001a94:	3a10      	subs	r2, #16
10001a96:	2398      	movs	r3, #152	; 0x98
10001a98:	005b      	lsls	r3, r3, #1
10001a9a:	429a      	cmp	r2, r3
10001a9c:	d833      	bhi.n	10001b06 <pll_init+0x9e>
10001a9e:	1e7b      	subs	r3, r7, #1
10001aa0:	2b06      	cmp	r3, #6
10001aa2:	d836      	bhi.n	10001b12 <pll_init+0xaa>
10001aa4:	9b06      	ldr	r3, [sp, #24]
10001aa6:	3b01      	subs	r3, #1
10001aa8:	2b06      	cmp	r3, #6
10001aaa:	d832      	bhi.n	10001b12 <pll_init+0xaa>
10001aac:	9b06      	ldr	r3, [sp, #24]
10001aae:	429f      	cmp	r7, r3
10001ab0:	d335      	bcc.n	10001b1e <pll_init+0xb6>
10001ab2:	464b      	mov	r3, r9
10001ab4:	091a      	lsrs	r2, r3, #4
10001ab6:	42aa      	cmp	r2, r5
10001ab8:	d337      	bcc.n	10001b2a <pll_init+0xc2>
10001aba:	043f      	lsls	r7, r7, #16
10001abc:	9b06      	ldr	r3, [sp, #24]
10001abe:	031d      	lsls	r5, r3, #12
10001ac0:	432f      	orrs	r7, r5
10001ac2:	6823      	ldr	r3, [r4, #0]
10001ac4:	2b00      	cmp	r3, #0
10001ac6:	db36      	blt.n	10001b36 <pll_init+0xce>
10001ac8:	4b23      	ldr	r3, [pc, #140]	; (10001b58 <pll_init+0xf0>)
10001aca:	429c      	cmp	r4, r3
10001acc:	d041      	beq.n	10001b52 <pll_init+0xea>
10001ace:	2280      	movs	r2, #128	; 0x80
10001ad0:	0152      	lsls	r2, r2, #5
10001ad2:	4b22      	ldr	r3, [pc, #136]	; (10001b5c <pll_init+0xf4>)
10001ad4:	601a      	str	r2, [r3, #0]
10001ad6:	4b22      	ldr	r3, [pc, #136]	; (10001b60 <pll_init+0xf8>)
10001ad8:	601a      	str	r2, [r3, #0]
10001ada:	4b22      	ldr	r3, [pc, #136]	; (10001b64 <pll_init+0xfc>)
10001adc:	689b      	ldr	r3, [r3, #8]
10001ade:	0011      	movs	r1, r2
10001ae0:	4399      	bics	r1, r3
10001ae2:	d1fa      	bne.n	10001ada <pll_init+0x72>
10001ae4:	6026      	str	r6, [r4, #0]
10001ae6:	60a0      	str	r0, [r4, #8]
10001ae8:	1d23      	adds	r3, r4, #4
10001aea:	22c0      	movs	r2, #192	; 0xc0
10001aec:	0192      	lsls	r2, r2, #6
10001aee:	431a      	orrs	r2, r3
10001af0:	2321      	movs	r3, #33	; 0x21
10001af2:	6013      	str	r3, [r2, #0]
10001af4:	6823      	ldr	r3, [r4, #0]
10001af6:	2b00      	cmp	r3, #0
10001af8:	dafc      	bge.n	10001af4 <pll_init+0x8c>
10001afa:	60e7      	str	r7, [r4, #12]
10001afc:	2308      	movs	r3, #8
10001afe:	6013      	str	r3, [r2, #0]
10001b00:	bc80      	pop	{r7}
10001b02:	46b9      	mov	r9, r7
10001b04:	bdf0      	pop	{r4, r5, r6, r7, pc}
10001b06:	4b18      	ldr	r3, [pc, #96]	; (10001b68 <pll_init+0x100>)
10001b08:	4a18      	ldr	r2, [pc, #96]	; (10001b6c <pll_init+0x104>)
10001b0a:	2116      	movs	r1, #22
10001b0c:	4818      	ldr	r0, [pc, #96]	; (10001b70 <pll_init+0x108>)
10001b0e:	f7ff fbf1 	bl	100012f4 <__assert_func>
10001b12:	4b18      	ldr	r3, [pc, #96]	; (10001b74 <pll_init+0x10c>)
10001b14:	4a15      	ldr	r2, [pc, #84]	; (10001b6c <pll_init+0x104>)
10001b16:	2119      	movs	r1, #25
10001b18:	4815      	ldr	r0, [pc, #84]	; (10001b70 <pll_init+0x108>)
10001b1a:	f7ff fbeb 	bl	100012f4 <__assert_func>
10001b1e:	4b16      	ldr	r3, [pc, #88]	; (10001b78 <pll_init+0x110>)
10001b20:	4a12      	ldr	r2, [pc, #72]	; (10001b6c <pll_init+0x104>)
10001b22:	211f      	movs	r1, #31
10001b24:	4812      	ldr	r0, [pc, #72]	; (10001b70 <pll_init+0x108>)
10001b26:	f7ff fbe5 	bl	100012f4 <__assert_func>
10001b2a:	4b14      	ldr	r3, [pc, #80]	; (10001b7c <pll_init+0x114>)
10001b2c:	4a0f      	ldr	r2, [pc, #60]	; (10001b6c <pll_init+0x104>)
10001b2e:	2122      	movs	r1, #34	; 0x22
10001b30:	480f      	ldr	r0, [pc, #60]	; (10001b70 <pll_init+0x108>)
10001b32:	f7ff fbdf 	bl	100012f4 <__assert_func>
10001b36:	6822      	ldr	r2, [r4, #0]
10001b38:	233f      	movs	r3, #63	; 0x3f
10001b3a:	4013      	ands	r3, r2
10001b3c:	42b3      	cmp	r3, r6
10001b3e:	d1c3      	bne.n	10001ac8 <pll_init+0x60>
10001b40:	68a3      	ldr	r3, [r4, #8]
10001b42:	051b      	lsls	r3, r3, #20
10001b44:	0d1b      	lsrs	r3, r3, #20
10001b46:	4283      	cmp	r3, r0
10001b48:	d1be      	bne.n	10001ac8 <pll_init+0x60>
10001b4a:	68e3      	ldr	r3, [r4, #12]
10001b4c:	2f00      	cmp	r7, #0
10001b4e:	d1bb      	bne.n	10001ac8 <pll_init+0x60>
10001b50:	e7d6      	b.n	10001b00 <pll_init+0x98>
10001b52:	2280      	movs	r2, #128	; 0x80
10001b54:	0192      	lsls	r2, r2, #6
10001b56:	e7bc      	b.n	10001ad2 <pll_init+0x6a>
10001b58:	4002c000 	.word	0x4002c000
10001b5c:	4000e000 	.word	0x4000e000
10001b60:	4000f000 	.word	0x4000f000
10001b64:	4000c000 	.word	0x4000c000
10001b68:	100073ec 	.word	0x100073ec
10001b6c:	100074d0 	.word	0x100074d0
10001b70:	10007408 	.word	0x10007408
10001b74:	10007450 	.word	0x10007450
10001b78:	1000749c 	.word	0x1000749c
10001b7c:	100074b4 	.word	0x100074b4

10001b80 <watchdog_start_tick>:
10001b80:	2380      	movs	r3, #128	; 0x80
10001b82:	009b      	lsls	r3, r3, #2
10001b84:	4303      	orrs	r3, r0
10001b86:	4a01      	ldr	r2, [pc, #4]	; (10001b8c <watchdog_start_tick+0xc>)
10001b88:	62d3      	str	r3, [r2, #44]	; 0x2c
10001b8a:	4770      	bx	lr
10001b8c:	40058000 	.word	0x40058000

10001b90 <xosc_init>:
10001b90:	4b06      	ldr	r3, [pc, #24]	; (10001bac <xosc_init+0x1c>)
10001b92:	22aa      	movs	r2, #170	; 0xaa
10001b94:	0112      	lsls	r2, r2, #4
10001b96:	601a      	str	r2, [r3, #0]
10001b98:	222f      	movs	r2, #47	; 0x2f
10001b9a:	60da      	str	r2, [r3, #12]
10001b9c:	4b04      	ldr	r3, [pc, #16]	; (10001bb0 <xosc_init+0x20>)
10001b9e:	4a05      	ldr	r2, [pc, #20]	; (10001bb4 <xosc_init+0x24>)
10001ba0:	601a      	str	r2, [r3, #0]
10001ba2:	4b02      	ldr	r3, [pc, #8]	; (10001bac <xosc_init+0x1c>)
10001ba4:	685b      	ldr	r3, [r3, #4]
10001ba6:	2b00      	cmp	r3, #0
10001ba8:	dafb      	bge.n	10001ba2 <xosc_init+0x12>
10001baa:	4770      	bx	lr
10001bac:	40024000 	.word	0x40024000
10001bb0:	40026000 	.word	0x40026000
10001bb4:	00fab000 	.word	0x00fab000

10001bb8 <_out_null>:
10001bb8:	4770      	bx	lr

10001bba <_out_fct>:
10001bba:	b510      	push	{r4, lr}
10001bbc:	2800      	cmp	r0, #0
10001bbe:	d002      	beq.n	10001bc6 <_out_fct+0xc>
10001bc0:	680b      	ldr	r3, [r1, #0]
10001bc2:	6849      	ldr	r1, [r1, #4]
10001bc4:	4798      	blx	r3
10001bc6:	bd10      	pop	{r4, pc}

10001bc8 <_atoi>:
10001bc8:	0001      	movs	r1, r0
10001bca:	2000      	movs	r0, #0
10001bcc:	e007      	b.n	10001bde <_atoi+0x16>
10001bce:	0083      	lsls	r3, r0, #2
10001bd0:	181b      	adds	r3, r3, r0
10001bd2:	005b      	lsls	r3, r3, #1
10001bd4:	1c50      	adds	r0, r2, #1
10001bd6:	6008      	str	r0, [r1, #0]
10001bd8:	7810      	ldrb	r0, [r2, #0]
10001bda:	18c0      	adds	r0, r0, r3
10001bdc:	3830      	subs	r0, #48	; 0x30
10001bde:	680a      	ldr	r2, [r1, #0]
10001be0:	7813      	ldrb	r3, [r2, #0]
10001be2:	3b30      	subs	r3, #48	; 0x30
10001be4:	b2db      	uxtb	r3, r3
10001be6:	2b09      	cmp	r3, #9
10001be8:	d9f1      	bls.n	10001bce <_atoi+0x6>
10001bea:	4770      	bx	lr

10001bec <_out_rev>:
10001bec:	b5f0      	push	{r4, r5, r6, r7, lr}
10001bee:	46de      	mov	lr, fp
10001bf0:	4657      	mov	r7, sl
10001bf2:	464e      	mov	r6, r9
10001bf4:	4645      	mov	r5, r8
10001bf6:	b5e0      	push	{r5, r6, r7, lr}
10001bf8:	b083      	sub	sp, #12
10001bfa:	4693      	mov	fp, r2
10001bfc:	001f      	movs	r7, r3
10001bfe:	9b0c      	ldr	r3, [sp, #48]	; 0x30
10001c00:	469a      	mov	sl, r3
10001c02:	9c0d      	ldr	r4, [sp, #52]	; 0x34
10001c04:	9b0e      	ldr	r3, [sp, #56]	; 0x38
10001c06:	4699      	mov	r9, r3
10001c08:	9b0f      	ldr	r3, [sp, #60]	; 0x3c
10001c0a:	079b      	lsls	r3, r3, #30
10001c0c:	d003      	beq.n	10001c16 <_out_rev+0x2a>
10001c0e:	46b8      	mov	r8, r7
10001c10:	000f      	movs	r7, r1
10001c12:	0006      	movs	r6, r0
10001c14:	e022      	b.n	10001c5c <_out_rev+0x70>
10001c16:	9201      	str	r2, [sp, #4]
10001c18:	46a3      	mov	fp, r4
10001c1a:	4688      	mov	r8, r1
10001c1c:	464e      	mov	r6, r9
10001c1e:	46b9      	mov	r9, r7
10001c20:	0007      	movs	r7, r0
10001c22:	42b4      	cmp	r4, r6
10001c24:	d207      	bcs.n	10001c36 <_out_rev+0x4a>
10001c26:	1c55      	adds	r5, r2, #1
10001c28:	464b      	mov	r3, r9
10001c2a:	4641      	mov	r1, r8
10001c2c:	2020      	movs	r0, #32
10001c2e:	47b8      	blx	r7
10001c30:	3401      	adds	r4, #1
10001c32:	002a      	movs	r2, r5
10001c34:	e7f5      	b.n	10001c22 <_out_rev+0x36>
10001c36:	003d      	movs	r5, r7
10001c38:	464f      	mov	r7, r9
10001c3a:	465c      	mov	r4, fp
10001c3c:	9b01      	ldr	r3, [sp, #4]
10001c3e:	469b      	mov	fp, r3
10001c40:	46b1      	mov	r9, r6
10001c42:	4646      	mov	r6, r8
10001c44:	46b8      	mov	r8, r7
10001c46:	0037      	movs	r7, r6
10001c48:	002e      	movs	r6, r5
10001c4a:	e007      	b.n	10001c5c <_out_rev+0x70>
10001c4c:	3c01      	subs	r4, #1
10001c4e:	1c55      	adds	r5, r2, #1
10001c50:	4653      	mov	r3, sl
10001c52:	5d18      	ldrb	r0, [r3, r4]
10001c54:	4643      	mov	r3, r8
10001c56:	0039      	movs	r1, r7
10001c58:	47b0      	blx	r6
10001c5a:	002a      	movs	r2, r5
10001c5c:	2c00      	cmp	r4, #0
10001c5e:	d1f5      	bne.n	10001c4c <_out_rev+0x60>
10001c60:	0035      	movs	r5, r6
10001c62:	003e      	movs	r6, r7
10001c64:	4647      	mov	r7, r8
10001c66:	9b0f      	ldr	r3, [sp, #60]	; 0x3c
10001c68:	079b      	lsls	r3, r3, #30
10001c6a:	d407      	bmi.n	10001c7c <_out_rev+0x90>
10001c6c:	0010      	movs	r0, r2
10001c6e:	b003      	add	sp, #12
10001c70:	bcf0      	pop	{r4, r5, r6, r7}
10001c72:	46bb      	mov	fp, r7
10001c74:	46b2      	mov	sl, r6
10001c76:	46a9      	mov	r9, r5
10001c78:	46a0      	mov	r8, r4
10001c7a:	bdf0      	pop	{r4, r5, r6, r7, pc}
10001c7c:	46b0      	mov	r8, r6
10001c7e:	464e      	mov	r6, r9
10001c80:	46b9      	mov	r9, r7
10001c82:	002f      	movs	r7, r5
10001c84:	465d      	mov	r5, fp
10001c86:	1b53      	subs	r3, r2, r5
10001c88:	42b3      	cmp	r3, r6
10001c8a:	d2ef      	bcs.n	10001c6c <_out_rev+0x80>
10001c8c:	1c54      	adds	r4, r2, #1
10001c8e:	464b      	mov	r3, r9
10001c90:	4641      	mov	r1, r8
10001c92:	2020      	movs	r0, #32
10001c94:	47b8      	blx	r7
10001c96:	0022      	movs	r2, r4
10001c98:	e7f5      	b.n	10001c86 <_out_rev+0x9a>

10001c9a <_ntoa_format>:
10001c9a:	b5f0      	push	{r4, r5, r6, r7, lr}
10001c9c:	46ce      	mov	lr, r9
10001c9e:	4647      	mov	r7, r8
10001ca0:	b580      	push	{r7, lr}
10001ca2:	b085      	sub	sp, #20
10001ca4:	4694      	mov	ip, r2
10001ca6:	4698      	mov	r8, r3
10001ca8:	9d0c      	ldr	r5, [sp, #48]	; 0x30
10001caa:	9c0d      	ldr	r4, [sp, #52]	; 0x34
10001cac:	ab0e      	add	r3, sp, #56	; 0x38
10001cae:	781b      	ldrb	r3, [r3, #0]
10001cb0:	4699      	mov	r9, r3
10001cb2:	9a10      	ldr	r2, [sp, #64]	; 0x40
10001cb4:	9b11      	ldr	r3, [sp, #68]	; 0x44
10001cb6:	9e12      	ldr	r6, [sp, #72]	; 0x48
10001cb8:	07b7      	lsls	r7, r6, #30
10001cba:	d41c      	bmi.n	10001cf6 <_ntoa_format+0x5c>
10001cbc:	2b00      	cmp	r3, #0
10001cbe:	d00c      	beq.n	10001cda <_ntoa_format+0x40>
10001cc0:	07f7      	lsls	r7, r6, #31
10001cc2:	d50a      	bpl.n	10001cda <_ntoa_format+0x40>
10001cc4:	464f      	mov	r7, r9
10001cc6:	2f00      	cmp	r7, #0
10001cc8:	d102      	bne.n	10001cd0 <_ntoa_format+0x36>
10001cca:	370c      	adds	r7, #12
10001ccc:	4237      	tst	r7, r6
10001cce:	d004      	beq.n	10001cda <_ntoa_format+0x40>
10001cd0:	3b01      	subs	r3, #1
10001cd2:	e002      	b.n	10001cda <_ntoa_format+0x40>
10001cd4:	2730      	movs	r7, #48	; 0x30
10001cd6:	552f      	strb	r7, [r5, r4]
10001cd8:	3401      	adds	r4, #1
10001cda:	4294      	cmp	r4, r2
10001cdc:	d201      	bcs.n	10001ce2 <_ntoa_format+0x48>
10001cde:	2c1f      	cmp	r4, #31
10001ce0:	d9f8      	bls.n	10001cd4 <_ntoa_format+0x3a>
10001ce2:	07f7      	lsls	r7, r6, #31
10001ce4:	d507      	bpl.n	10001cf6 <_ntoa_format+0x5c>
10001ce6:	429c      	cmp	r4, r3
10001ce8:	d205      	bcs.n	10001cf6 <_ntoa_format+0x5c>
10001cea:	2c1f      	cmp	r4, #31
10001cec:	d803      	bhi.n	10001cf6 <_ntoa_format+0x5c>
10001cee:	2730      	movs	r7, #48	; 0x30
10001cf0:	552f      	strb	r7, [r5, r4]
10001cf2:	3401      	adds	r4, #1
10001cf4:	e7f5      	b.n	10001ce2 <_ntoa_format+0x48>
10001cf6:	06f7      	lsls	r7, r6, #27
10001cf8:	d515      	bpl.n	10001d26 <_ntoa_format+0x8c>
10001cfa:	0577      	lsls	r7, r6, #21
10001cfc:	d405      	bmi.n	10001d0a <_ntoa_format+0x70>
10001cfe:	2c00      	cmp	r4, #0
10001d00:	d003      	beq.n	10001d0a <_ntoa_format+0x70>
10001d02:	4294      	cmp	r4, r2
10001d04:	d024      	beq.n	10001d50 <_ntoa_format+0xb6>
10001d06:	429c      	cmp	r4, r3
10001d08:	d022      	beq.n	10001d50 <_ntoa_format+0xb6>
10001d0a:	9a0f      	ldr	r2, [sp, #60]	; 0x3c
10001d0c:	2a10      	cmp	r2, #16
10001d0e:	d02b      	beq.n	10001d68 <_ntoa_format+0xce>
10001d10:	9a0f      	ldr	r2, [sp, #60]	; 0x3c
10001d12:	2a10      	cmp	r2, #16
10001d14:	d030      	beq.n	10001d78 <_ntoa_format+0xde>
10001d16:	9a0f      	ldr	r2, [sp, #60]	; 0x3c
10001d18:	2a02      	cmp	r2, #2
10001d1a:	d035      	beq.n	10001d88 <_ntoa_format+0xee>
10001d1c:	2c1f      	cmp	r4, #31
10001d1e:	d802      	bhi.n	10001d26 <_ntoa_format+0x8c>
10001d20:	2230      	movs	r2, #48	; 0x30
10001d22:	552a      	strb	r2, [r5, r4]
10001d24:	3401      	adds	r4, #1
10001d26:	2c1f      	cmp	r4, #31
10001d28:	d805      	bhi.n	10001d36 <_ntoa_format+0x9c>
10001d2a:	464a      	mov	r2, r9
10001d2c:	2a00      	cmp	r2, #0
10001d2e:	d031      	beq.n	10001d94 <_ntoa_format+0xfa>
10001d30:	222d      	movs	r2, #45	; 0x2d
10001d32:	552a      	strb	r2, [r5, r4]
10001d34:	3401      	adds	r4, #1
10001d36:	9603      	str	r6, [sp, #12]
10001d38:	9302      	str	r3, [sp, #8]
10001d3a:	9401      	str	r4, [sp, #4]
10001d3c:	9500      	str	r5, [sp, #0]
10001d3e:	4643      	mov	r3, r8
10001d40:	4662      	mov	r2, ip
10001d42:	f7ff ff53 	bl	10001bec <_out_rev>
10001d46:	b005      	add	sp, #20
10001d48:	bcc0      	pop	{r6, r7}
10001d4a:	46b9      	mov	r9, r7
10001d4c:	46b0      	mov	r8, r6
10001d4e:	bdf0      	pop	{r4, r5, r6, r7, pc}
10001d50:	1e62      	subs	r2, r4, #1
10001d52:	2c01      	cmp	r4, #1
10001d54:	d006      	beq.n	10001d64 <_ntoa_format+0xca>
10001d56:	9f0f      	ldr	r7, [sp, #60]	; 0x3c
10001d58:	2f10      	cmp	r7, #16
10001d5a:	d001      	beq.n	10001d60 <_ntoa_format+0xc6>
10001d5c:	0014      	movs	r4, r2
10001d5e:	e7d4      	b.n	10001d0a <_ntoa_format+0x70>
10001d60:	3c02      	subs	r4, #2
10001d62:	e7d2      	b.n	10001d0a <_ntoa_format+0x70>
10001d64:	0014      	movs	r4, r2
10001d66:	e7d0      	b.n	10001d0a <_ntoa_format+0x70>
10001d68:	06b2      	lsls	r2, r6, #26
10001d6a:	d4d1      	bmi.n	10001d10 <_ntoa_format+0x76>
10001d6c:	2c1f      	cmp	r4, #31
10001d6e:	d8cf      	bhi.n	10001d10 <_ntoa_format+0x76>
10001d70:	2278      	movs	r2, #120	; 0x78
10001d72:	552a      	strb	r2, [r5, r4]
10001d74:	3401      	adds	r4, #1
10001d76:	e7d1      	b.n	10001d1c <_ntoa_format+0x82>
10001d78:	06b2      	lsls	r2, r6, #26
10001d7a:	d5cc      	bpl.n	10001d16 <_ntoa_format+0x7c>
10001d7c:	2c1f      	cmp	r4, #31
10001d7e:	d8ca      	bhi.n	10001d16 <_ntoa_format+0x7c>
10001d80:	2258      	movs	r2, #88	; 0x58
10001d82:	552a      	strb	r2, [r5, r4]
10001d84:	3401      	adds	r4, #1
10001d86:	e7c9      	b.n	10001d1c <_ntoa_format+0x82>
10001d88:	2c1f      	cmp	r4, #31
10001d8a:	d8c7      	bhi.n	10001d1c <_ntoa_format+0x82>
10001d8c:	3260      	adds	r2, #96	; 0x60
10001d8e:	552a      	strb	r2, [r5, r4]
10001d90:	3401      	adds	r4, #1
10001d92:	e7c3      	b.n	10001d1c <_ntoa_format+0x82>
10001d94:	0772      	lsls	r2, r6, #29
10001d96:	d503      	bpl.n	10001da0 <_ntoa_format+0x106>
10001d98:	222b      	movs	r2, #43	; 0x2b
10001d9a:	552a      	strb	r2, [r5, r4]
10001d9c:	3401      	adds	r4, #1
10001d9e:	e7ca      	b.n	10001d36 <_ntoa_format+0x9c>
10001da0:	0732      	lsls	r2, r6, #28
10001da2:	d5c8      	bpl.n	10001d36 <_ntoa_format+0x9c>
10001da4:	2220      	movs	r2, #32
10001da6:	552a      	strb	r2, [r5, r4]
10001da8:	3401      	adds	r4, #1
10001daa:	e7c4      	b.n	10001d36 <_ntoa_format+0x9c>

10001dac <_ntoa_long>:
10001dac:	b5f0      	push	{r4, r5, r6, r7, lr}
10001dae:	46de      	mov	lr, fp
10001db0:	4657      	mov	r7, sl
10001db2:	464e      	mov	r6, r9
10001db4:	4645      	mov	r5, r8
10001db6:	b5e0      	push	{r5, r6, r7, lr}
10001db8:	b093      	sub	sp, #76	; 0x4c
10001dba:	4681      	mov	r9, r0
10001dbc:	468a      	mov	sl, r1
10001dbe:	9208      	str	r2, [sp, #32]
10001dc0:	9309      	str	r3, [sp, #36]	; 0x24
10001dc2:	ab1c      	add	r3, sp, #112	; 0x70
10001dc4:	cb10      	ldmia	r3!, {r4}
10001dc6:	781b      	ldrb	r3, [r3, #0]
10001dc8:	469b      	mov	fp, r3
10001dca:	9d1e      	ldr	r5, [sp, #120]	; 0x78
10001dcc:	9b21      	ldr	r3, [sp, #132]	; 0x84
10001dce:	4698      	mov	r8, r3
10001dd0:	2c00      	cmp	r4, #0
10001dd2:	d103      	bne.n	10001ddc <_ntoa_long+0x30>
10001dd4:	2310      	movs	r3, #16
10001dd6:	4642      	mov	r2, r8
10001dd8:	439a      	bics	r2, r3
10001dda:	4690      	mov	r8, r2
10001ddc:	2380      	movs	r3, #128	; 0x80
10001dde:	00db      	lsls	r3, r3, #3
10001de0:	4646      	mov	r6, r8
10001de2:	401e      	ands	r6, r3
10001de4:	4642      	mov	r2, r8
10001de6:	421a      	tst	r2, r3
10001de8:	d012      	beq.n	10001e10 <_ntoa_long+0x64>
10001dea:	2c00      	cmp	r4, #0
10001dec:	d022      	beq.n	10001e34 <_ntoa_long+0x88>
10001dee:	2600      	movs	r6, #0
10001df0:	e00e      	b.n	10001e10 <_ntoa_long+0x64>
10001df2:	3330      	adds	r3, #48	; 0x30
10001df4:	b2d9      	uxtb	r1, r3
10001df6:	1c77      	adds	r7, r6, #1
10001df8:	ab0a      	add	r3, sp, #40	; 0x28
10001dfa:	5599      	strb	r1, [r3, r6]
10001dfc:	0029      	movs	r1, r5
10001dfe:	0020      	movs	r0, r4
10001e00:	f000 ffd6 	bl	10002db0 <__wrap___aeabi_uidiv>
10001e04:	42ac      	cmp	r4, r5
10001e06:	d316      	bcc.n	10001e36 <_ntoa_long+0x8a>
10001e08:	2f1f      	cmp	r7, #31
10001e0a:	d814      	bhi.n	10001e36 <_ntoa_long+0x8a>
10001e0c:	003e      	movs	r6, r7
10001e0e:	0004      	movs	r4, r0
10001e10:	0029      	movs	r1, r5
10001e12:	0020      	movs	r0, r4
10001e14:	f000 ffcc 	bl	10002db0 <__wrap___aeabi_uidiv>
10001e18:	b2cb      	uxtb	r3, r1
10001e1a:	2b09      	cmp	r3, #9
10001e1c:	d9e9      	bls.n	10001df2 <_ntoa_long+0x46>
10001e1e:	4642      	mov	r2, r8
10001e20:	0692      	lsls	r2, r2, #26
10001e22:	d505      	bpl.n	10001e30 <_ntoa_long+0x84>
10001e24:	2141      	movs	r1, #65	; 0x41
10001e26:	18c9      	adds	r1, r1, r3
10001e28:	b2c9      	uxtb	r1, r1
10001e2a:	390a      	subs	r1, #10
10001e2c:	b2c9      	uxtb	r1, r1
10001e2e:	e7e2      	b.n	10001df6 <_ntoa_long+0x4a>
10001e30:	2161      	movs	r1, #97	; 0x61
10001e32:	e7f8      	b.n	10001e26 <_ntoa_long+0x7a>
10001e34:	0027      	movs	r7, r4
10001e36:	4643      	mov	r3, r8
10001e38:	9306      	str	r3, [sp, #24]
10001e3a:	9b20      	ldr	r3, [sp, #128]	; 0x80
10001e3c:	9305      	str	r3, [sp, #20]
10001e3e:	9b1f      	ldr	r3, [sp, #124]	; 0x7c
10001e40:	9304      	str	r3, [sp, #16]
10001e42:	9503      	str	r5, [sp, #12]
10001e44:	465b      	mov	r3, fp
10001e46:	9302      	str	r3, [sp, #8]
10001e48:	9701      	str	r7, [sp, #4]
10001e4a:	ab0a      	add	r3, sp, #40	; 0x28
10001e4c:	9300      	str	r3, [sp, #0]
10001e4e:	9b09      	ldr	r3, [sp, #36]	; 0x24
10001e50:	9a08      	ldr	r2, [sp, #32]
10001e52:	4651      	mov	r1, sl
10001e54:	4648      	mov	r0, r9
10001e56:	f7ff ff20 	bl	10001c9a <_ntoa_format>
10001e5a:	b013      	add	sp, #76	; 0x4c
10001e5c:	bcf0      	pop	{r4, r5, r6, r7}
10001e5e:	46bb      	mov	fp, r7
10001e60:	46b2      	mov	sl, r6
10001e62:	46a9      	mov	r9, r5
10001e64:	46a0      	mov	r8, r4
10001e66:	bdf0      	pop	{r4, r5, r6, r7, pc}

10001e68 <_ntoa_long_long>:
10001e68:	b5f0      	push	{r4, r5, r6, r7, lr}
10001e6a:	46de      	mov	lr, fp
10001e6c:	4657      	mov	r7, sl
10001e6e:	464e      	mov	r6, r9
10001e70:	4645      	mov	r5, r8
10001e72:	b5e0      	push	{r5, r6, r7, lr}
10001e74:	b095      	sub	sp, #84	; 0x54
10001e76:	9008      	str	r0, [sp, #32]
10001e78:	9109      	str	r1, [sp, #36]	; 0x24
10001e7a:	920a      	str	r2, [sp, #40]	; 0x28
10001e7c:	930b      	str	r3, [sp, #44]	; 0x2c
10001e7e:	9e1e      	ldr	r6, [sp, #120]	; 0x78
10001e80:	9c1f      	ldr	r4, [sp, #124]	; 0x7c
10001e82:	ab20      	add	r3, sp, #128	; 0x80
10001e84:	781b      	ldrb	r3, [r3, #0]
10001e86:	469b      	mov	fp, r3
10001e88:	9b22      	ldr	r3, [sp, #136]	; 0x88
10001e8a:	4699      	mov	r9, r3
10001e8c:	9d23      	ldr	r5, [sp, #140]	; 0x8c
10001e8e:	9b26      	ldr	r3, [sp, #152]	; 0x98
10001e90:	469a      	mov	sl, r3
10001e92:	0033      	movs	r3, r6
10001e94:	4323      	orrs	r3, r4
10001e96:	d103      	bne.n	10001ea0 <_ntoa_long_long+0x38>
10001e98:	3310      	adds	r3, #16
10001e9a:	4652      	mov	r2, sl
10001e9c:	439a      	bics	r2, r3
10001e9e:	4692      	mov	sl, r2
10001ea0:	2380      	movs	r3, #128	; 0x80
10001ea2:	00db      	lsls	r3, r3, #3
10001ea4:	4657      	mov	r7, sl
10001ea6:	401f      	ands	r7, r3
10001ea8:	4652      	mov	r2, sl
10001eaa:	421a      	tst	r2, r3
10001eac:	d019      	beq.n	10001ee2 <_ntoa_long_long+0x7a>
10001eae:	0033      	movs	r3, r6
10001eb0:	4323      	orrs	r3, r4
10001eb2:	d02d      	beq.n	10001f10 <_ntoa_long_long+0xa8>
10001eb4:	2700      	movs	r7, #0
10001eb6:	e014      	b.n	10001ee2 <_ntoa_long_long+0x7a>
10001eb8:	3330      	adds	r3, #48	; 0x30
10001eba:	b2da      	uxtb	r2, r3
10001ebc:	1c7b      	adds	r3, r7, #1
10001ebe:	4698      	mov	r8, r3
10001ec0:	ab0c      	add	r3, sp, #48	; 0x30
10001ec2:	55da      	strb	r2, [r3, r7]
10001ec4:	464a      	mov	r2, r9
10001ec6:	002b      	movs	r3, r5
10001ec8:	0030      	movs	r0, r6
10001eca:	0021      	movs	r1, r4
10001ecc:	f000 ffb2 	bl	10002e34 <__wrap___aeabi_uldivmod>
10001ed0:	42a5      	cmp	r5, r4
10001ed2:	d81f      	bhi.n	10001f14 <_ntoa_long_long+0xac>
10001ed4:	d019      	beq.n	10001f0a <_ntoa_long_long+0xa2>
10001ed6:	4643      	mov	r3, r8
10001ed8:	2b1f      	cmp	r3, #31
10001eda:	d81b      	bhi.n	10001f14 <_ntoa_long_long+0xac>
10001edc:	4647      	mov	r7, r8
10001ede:	0006      	movs	r6, r0
10001ee0:	000c      	movs	r4, r1
10001ee2:	464a      	mov	r2, r9
10001ee4:	002b      	movs	r3, r5
10001ee6:	0030      	movs	r0, r6
10001ee8:	0021      	movs	r1, r4
10001eea:	f000 ffa3 	bl	10002e34 <__wrap___aeabi_uldivmod>
10001eee:	b2d3      	uxtb	r3, r2
10001ef0:	2b09      	cmp	r3, #9
10001ef2:	d9e1      	bls.n	10001eb8 <_ntoa_long_long+0x50>
10001ef4:	4652      	mov	r2, sl
10001ef6:	0692      	lsls	r2, r2, #26
10001ef8:	d505      	bpl.n	10001f06 <_ntoa_long_long+0x9e>
10001efa:	2241      	movs	r2, #65	; 0x41
10001efc:	18d2      	adds	r2, r2, r3
10001efe:	b2d2      	uxtb	r2, r2
10001f00:	3a0a      	subs	r2, #10
10001f02:	b2d2      	uxtb	r2, r2
10001f04:	e7da      	b.n	10001ebc <_ntoa_long_long+0x54>
10001f06:	2261      	movs	r2, #97	; 0x61
10001f08:	e7f8      	b.n	10001efc <_ntoa_long_long+0x94>
10001f0a:	45b1      	cmp	r9, r6
10001f0c:	d9e3      	bls.n	10001ed6 <_ntoa_long_long+0x6e>
10001f0e:	e001      	b.n	10001f14 <_ntoa_long_long+0xac>
10001f10:	2300      	movs	r3, #0
10001f12:	4698      	mov	r8, r3
10001f14:	4653      	mov	r3, sl
10001f16:	9306      	str	r3, [sp, #24]
10001f18:	9b25      	ldr	r3, [sp, #148]	; 0x94
10001f1a:	9305      	str	r3, [sp, #20]
10001f1c:	9b24      	ldr	r3, [sp, #144]	; 0x90
10001f1e:	9304      	str	r3, [sp, #16]
10001f20:	464b      	mov	r3, r9
10001f22:	9303      	str	r3, [sp, #12]
10001f24:	465b      	mov	r3, fp
10001f26:	9302      	str	r3, [sp, #8]
10001f28:	4643      	mov	r3, r8
10001f2a:	9301      	str	r3, [sp, #4]
10001f2c:	ab0c      	add	r3, sp, #48	; 0x30
10001f2e:	9300      	str	r3, [sp, #0]
10001f30:	9b0b      	ldr	r3, [sp, #44]	; 0x2c
10001f32:	9a0a      	ldr	r2, [sp, #40]	; 0x28
10001f34:	9909      	ldr	r1, [sp, #36]	; 0x24
10001f36:	9808      	ldr	r0, [sp, #32]
10001f38:	f7ff feaf 	bl	10001c9a <_ntoa_format>
10001f3c:	b015      	add	sp, #84	; 0x54
10001f3e:	bcf0      	pop	{r4, r5, r6, r7}
10001f40:	46bb      	mov	fp, r7
10001f42:	46b2      	mov	sl, r6
10001f44:	46a9      	mov	r9, r5
10001f46:	46a0      	mov	r8, r4
10001f48:	bdf0      	pop	{r4, r5, r6, r7, pc}
	...

10001f4c <_etoa>:
10001f4c:	b5f0      	push	{r4, r5, r6, r7, lr}
10001f4e:	46de      	mov	lr, fp
10001f50:	4657      	mov	r7, sl
10001f52:	464e      	mov	r6, r9
10001f54:	4645      	mov	r5, r8
10001f56:	b5e0      	push	{r5, r6, r7, lr}
10001f58:	b091      	sub	sp, #68	; 0x44
10001f5a:	4683      	mov	fp, r0
10001f5c:	468a      	mov	sl, r1
10001f5e:	920c      	str	r2, [sp, #48]	; 0x30
10001f60:	4698      	mov	r8, r3
10001f62:	9c1a      	ldr	r4, [sp, #104]	; 0x68
10001f64:	9408      	str	r4, [sp, #32]
10001f66:	9d1b      	ldr	r5, [sp, #108]	; 0x6c
10001f68:	9509      	str	r5, [sp, #36]	; 0x24
10001f6a:	0022      	movs	r2, r4
10001f6c:	002b      	movs	r3, r5
10001f6e:	0020      	movs	r0, r4
10001f70:	0029      	movs	r1, r5
10001f72:	f001 f9ee 	bl	10003352 <__wrap___aeabi_dcmpun>
10001f76:	2800      	cmp	r0, #0
10001f78:	d000      	beq.n	10001f7c <_etoa+0x30>
10001f7a:	e0e5      	b.n	10002148 <_etoa+0x1fc>
10001f7c:	2201      	movs	r2, #1
10001f7e:	4252      	negs	r2, r2
10001f80:	4bd7      	ldr	r3, [pc, #860]	; (100022e0 <_etoa+0x394>)
10001f82:	0020      	movs	r0, r4
10001f84:	0029      	movs	r1, r5
10001f86:	f001 f9df 	bl	10003348 <__wrap___aeabi_dcmpgt>
10001f8a:	2800      	cmp	r0, #0
10001f8c:	d000      	beq.n	10001f90 <_etoa+0x44>
10001f8e:	e0db      	b.n	10002148 <_etoa+0x1fc>
10001f90:	2201      	movs	r2, #1
10001f92:	4252      	negs	r2, r2
10001f94:	4bd3      	ldr	r3, [pc, #844]	; (100022e4 <_etoa+0x398>)
10001f96:	0020      	movs	r0, r4
10001f98:	0029      	movs	r1, r5
10001f9a:	f001 f9bf 	bl	1000331c <__wrap___aeabi_dcmplt>
10001f9e:	2800      	cmp	r0, #0
10001fa0:	d000      	beq.n	10001fa4 <_etoa+0x58>
10001fa2:	e0d1      	b.n	10002148 <_etoa+0x1fc>
10001fa4:	2200      	movs	r2, #0
10001fa6:	2300      	movs	r3, #0
10001fa8:	9e08      	ldr	r6, [sp, #32]
10001faa:	0030      	movs	r0, r6
10001fac:	9d09      	ldr	r5, [sp, #36]	; 0x24
10001fae:	0029      	movs	r1, r5
10001fb0:	f001 f9b4 	bl	1000331c <__wrap___aeabi_dcmplt>
10001fb4:	2800      	cmp	r0, #0
10001fb6:	d000      	beq.n	10001fba <_etoa+0x6e>
10001fb8:	e0dd      	b.n	10002176 <_etoa+0x22a>
10001fba:	9808      	ldr	r0, [sp, #32]
10001fbc:	9909      	ldr	r1, [sp, #36]	; 0x24
10001fbe:	9006      	str	r0, [sp, #24]
10001fc0:	9107      	str	r1, [sp, #28]
10001fc2:	2380      	movs	r3, #128	; 0x80
10001fc4:	00db      	lsls	r3, r3, #3
10001fc6:	9a1e      	ldr	r2, [sp, #120]	; 0x78
10001fc8:	401a      	ands	r2, r3
10001fca:	920d      	str	r2, [sp, #52]	; 0x34
10001fcc:	9a1e      	ldr	r2, [sp, #120]	; 0x78
10001fce:	421a      	tst	r2, r3
10001fd0:	d101      	bne.n	10001fd6 <_etoa+0x8a>
10001fd2:	2306      	movs	r3, #6
10001fd4:	931c      	str	r3, [sp, #112]	; 0x70
10001fd6:	9806      	ldr	r0, [sp, #24]
10001fd8:	9907      	ldr	r1, [sp, #28]
10001fda:	0004      	movs	r4, r0
10001fdc:	000d      	movs	r5, r1
10001fde:	000a      	movs	r2, r1
10001fe0:	0006      	movs	r6, r0
10001fe2:	4302      	orrs	r2, r0
10001fe4:	d100      	bne.n	10001fe8 <_etoa+0x9c>
10001fe6:	e0d1      	b.n	1000218c <_etoa+0x240>
10001fe8:	0d08      	lsrs	r0, r1, #20
10001fea:	0540      	lsls	r0, r0, #21
10001fec:	0d40      	lsrs	r0, r0, #21
10001fee:	4cbe      	ldr	r4, [pc, #760]	; (100022e8 <_etoa+0x39c>)
10001ff0:	46a4      	mov	ip, r4
10001ff2:	4460      	add	r0, ip
10001ff4:	030a      	lsls	r2, r1, #12
10001ff6:	0b12      	lsrs	r2, r2, #12
10001ff8:	4bbc      	ldr	r3, [pc, #752]	; (100022ec <_etoa+0x3a0>)
10001ffa:	4313      	orrs	r3, r2
10001ffc:	001f      	movs	r7, r3
10001ffe:	f001 f9bb 	bl	10003378 <__wrap___aeabi_i2d>
10002002:	4abb      	ldr	r2, [pc, #748]	; (100022f0 <_etoa+0x3a4>)
10002004:	4bbb      	ldr	r3, [pc, #748]	; (100022f4 <_etoa+0x3a8>)
10002006:	f001 f946 	bl	10003296 <__wrap___aeabi_dmul>
1000200a:	4abb      	ldr	r2, [pc, #748]	; (100022f8 <_etoa+0x3ac>)
1000200c:	4bbb      	ldr	r3, [pc, #748]	; (100022fc <_etoa+0x3b0>)
1000200e:	f001 f91b 	bl	10003248 <__wrap___aeabi_dadd>
10002012:	0004      	movs	r4, r0
10002014:	000d      	movs	r5, r1
10002016:	2200      	movs	r2, #0
10002018:	4bb9      	ldr	r3, [pc, #740]	; (10002300 <_etoa+0x3b4>)
1000201a:	0030      	movs	r0, r6
1000201c:	0039      	movs	r1, r7
1000201e:	f001 f90a 	bl	10003236 <__wrap___aeabi_dsub>
10002022:	4ab8      	ldr	r2, [pc, #736]	; (10002304 <_etoa+0x3b8>)
10002024:	4bb8      	ldr	r3, [pc, #736]	; (10002308 <_etoa+0x3bc>)
10002026:	f001 f936 	bl	10003296 <__wrap___aeabi_dmul>
1000202a:	0002      	movs	r2, r0
1000202c:	000b      	movs	r3, r1
1000202e:	0020      	movs	r0, r4
10002030:	0029      	movs	r1, r5
10002032:	f001 f909 	bl	10003248 <__wrap___aeabi_dadd>
10002036:	f001 f9b7 	bl	100033a8 <__wrap___aeabi_d2iz>
1000203a:	4681      	mov	r9, r0
1000203c:	f001 f99c 	bl	10003378 <__wrap___aeabi_i2d>
10002040:	0004      	movs	r4, r0
10002042:	000d      	movs	r5, r1
10002044:	4ab1      	ldr	r2, [pc, #708]	; (1000230c <_etoa+0x3c0>)
10002046:	4bb2      	ldr	r3, [pc, #712]	; (10002310 <_etoa+0x3c4>)
10002048:	f001 f925 	bl	10003296 <__wrap___aeabi_dmul>
1000204c:	2200      	movs	r2, #0
1000204e:	4bb1      	ldr	r3, [pc, #708]	; (10002314 <_etoa+0x3c8>)
10002050:	f001 f8fa 	bl	10003248 <__wrap___aeabi_dadd>
10002054:	f001 f9a8 	bl	100033a8 <__wrap___aeabi_d2iz>
10002058:	0006      	movs	r6, r0
1000205a:	4aaf      	ldr	r2, [pc, #700]	; (10002318 <_etoa+0x3cc>)
1000205c:	4baf      	ldr	r3, [pc, #700]	; (1000231c <_etoa+0x3d0>)
1000205e:	0020      	movs	r0, r4
10002060:	0029      	movs	r1, r5
10002062:	f001 f918 	bl	10003296 <__wrap___aeabi_dmul>
10002066:	0004      	movs	r4, r0
10002068:	000d      	movs	r5, r1
1000206a:	0030      	movs	r0, r6
1000206c:	f001 f984 	bl	10003378 <__wrap___aeabi_i2d>
10002070:	4aab      	ldr	r2, [pc, #684]	; (10002320 <_etoa+0x3d4>)
10002072:	4bac      	ldr	r3, [pc, #688]	; (10002324 <_etoa+0x3d8>)
10002074:	f001 f90f 	bl	10003296 <__wrap___aeabi_dmul>
10002078:	0002      	movs	r2, r0
1000207a:	000b      	movs	r3, r1
1000207c:	0020      	movs	r0, r4
1000207e:	0029      	movs	r1, r5
10002080:	f001 f8d9 	bl	10003236 <__wrap___aeabi_dsub>
10002084:	0004      	movs	r4, r0
10002086:	000d      	movs	r5, r1
10002088:	0002      	movs	r2, r0
1000208a:	000b      	movs	r3, r1
1000208c:	f001 f903 	bl	10003296 <__wrap___aeabi_dmul>
10002090:	900a      	str	r0, [sp, #40]	; 0x28
10002092:	910b      	str	r1, [sp, #44]	; 0x2c
10002094:	4ba4      	ldr	r3, [pc, #656]	; (10002328 <_etoa+0x3dc>)
10002096:	18f3      	adds	r3, r6, r3
10002098:	2600      	movs	r6, #0
1000209a:	051f      	lsls	r7, r3, #20
1000209c:	0022      	movs	r2, r4
1000209e:	002b      	movs	r3, r5
100020a0:	0020      	movs	r0, r4
100020a2:	0029      	movs	r1, r5
100020a4:	f001 f8d0 	bl	10003248 <__wrap___aeabi_dadd>
100020a8:	900e      	str	r0, [sp, #56]	; 0x38
100020aa:	910f      	str	r1, [sp, #60]	; 0x3c
100020ac:	0022      	movs	r2, r4
100020ae:	002b      	movs	r3, r5
100020b0:	2000      	movs	r0, #0
100020b2:	2180      	movs	r1, #128	; 0x80
100020b4:	05c9      	lsls	r1, r1, #23
100020b6:	f001 f8be 	bl	10003236 <__wrap___aeabi_dsub>
100020ba:	0004      	movs	r4, r0
100020bc:	000d      	movs	r5, r1
100020be:	2200      	movs	r2, #0
100020c0:	4b9a      	ldr	r3, [pc, #616]	; (1000232c <_etoa+0x3e0>)
100020c2:	980a      	ldr	r0, [sp, #40]	; 0x28
100020c4:	990b      	ldr	r1, [sp, #44]	; 0x2c
100020c6:	f001 f8c8 	bl	1000325a <__wrap___aeabi_ddiv>
100020ca:	2200      	movs	r2, #0
100020cc:	4b98      	ldr	r3, [pc, #608]	; (10002330 <_etoa+0x3e4>)
100020ce:	f001 f8bb 	bl	10003248 <__wrap___aeabi_dadd>
100020d2:	0002      	movs	r2, r0
100020d4:	000b      	movs	r3, r1
100020d6:	980a      	ldr	r0, [sp, #40]	; 0x28
100020d8:	990b      	ldr	r1, [sp, #44]	; 0x2c
100020da:	f001 f8be 	bl	1000325a <__wrap___aeabi_ddiv>
100020de:	2200      	movs	r2, #0
100020e0:	4b94      	ldr	r3, [pc, #592]	; (10002334 <_etoa+0x3e8>)
100020e2:	f001 f8b1 	bl	10003248 <__wrap___aeabi_dadd>
100020e6:	0002      	movs	r2, r0
100020e8:	000b      	movs	r3, r1
100020ea:	980a      	ldr	r0, [sp, #40]	; 0x28
100020ec:	990b      	ldr	r1, [sp, #44]	; 0x2c
100020ee:	f001 f8b4 	bl	1000325a <__wrap___aeabi_ddiv>
100020f2:	0002      	movs	r2, r0
100020f4:	000b      	movs	r3, r1
100020f6:	0020      	movs	r0, r4
100020f8:	0029      	movs	r1, r5
100020fa:	f001 f8a5 	bl	10003248 <__wrap___aeabi_dadd>
100020fe:	0002      	movs	r2, r0
10002100:	000b      	movs	r3, r1
10002102:	980e      	ldr	r0, [sp, #56]	; 0x38
10002104:	990f      	ldr	r1, [sp, #60]	; 0x3c
10002106:	f001 f8a8 	bl	1000325a <__wrap___aeabi_ddiv>
1000210a:	2200      	movs	r2, #0
1000210c:	4b77      	ldr	r3, [pc, #476]	; (100022ec <_etoa+0x3a0>)
1000210e:	f001 f89b 	bl	10003248 <__wrap___aeabi_dadd>
10002112:	0032      	movs	r2, r6
10002114:	003b      	movs	r3, r7
10002116:	f001 f8be 	bl	10003296 <__wrap___aeabi_dmul>
1000211a:	0006      	movs	r6, r0
1000211c:	000f      	movs	r7, r1
1000211e:	0004      	movs	r4, r0
10002120:	000d      	movs	r5, r1
10002122:	9a06      	ldr	r2, [sp, #24]
10002124:	9b07      	ldr	r3, [sp, #28]
10002126:	f001 f90f 	bl	10003348 <__wrap___aeabi_dcmpgt>
1000212a:	2800      	cmp	r0, #0
1000212c:	d030      	beq.n	10002190 <_etoa+0x244>
1000212e:	2301      	movs	r3, #1
10002130:	425b      	negs	r3, r3
10002132:	469c      	mov	ip, r3
10002134:	44e1      	add	r9, ip
10002136:	2200      	movs	r2, #0
10002138:	4b7d      	ldr	r3, [pc, #500]	; (10002330 <_etoa+0x3e4>)
1000213a:	0030      	movs	r0, r6
1000213c:	0039      	movs	r1, r7
1000213e:	f001 f88c 	bl	1000325a <__wrap___aeabi_ddiv>
10002142:	0004      	movs	r4, r0
10002144:	000d      	movs	r5, r1
10002146:	e023      	b.n	10002190 <_etoa+0x244>
10002148:	9b1e      	ldr	r3, [sp, #120]	; 0x78
1000214a:	9304      	str	r3, [sp, #16]
1000214c:	9b1d      	ldr	r3, [sp, #116]	; 0x74
1000214e:	9303      	str	r3, [sp, #12]
10002150:	9b1c      	ldr	r3, [sp, #112]	; 0x70
10002152:	9302      	str	r3, [sp, #8]
10002154:	9a08      	ldr	r2, [sp, #32]
10002156:	9b09      	ldr	r3, [sp, #36]	; 0x24
10002158:	9200      	str	r2, [sp, #0]
1000215a:	9301      	str	r3, [sp, #4]
1000215c:	4643      	mov	r3, r8
1000215e:	9a0c      	ldr	r2, [sp, #48]	; 0x30
10002160:	4651      	mov	r1, sl
10002162:	4658      	mov	r0, fp
10002164:	f000 f8fc 	bl	10002360 <_ftoa>
10002168:	b011      	add	sp, #68	; 0x44
1000216a:	bcf0      	pop	{r4, r5, r6, r7}
1000216c:	46bb      	mov	fp, r7
1000216e:	46b2      	mov	sl, r6
10002170:	46a9      	mov	r9, r5
10002172:	46a0      	mov	r8, r4
10002174:	bdf0      	pop	{r4, r5, r6, r7, pc}
10002176:	2300      	movs	r3, #0
10002178:	2400      	movs	r4, #0
1000217a:	9306      	str	r3, [sp, #24]
1000217c:	9407      	str	r4, [sp, #28]
1000217e:	9606      	str	r6, [sp, #24]
10002180:	2380      	movs	r3, #128	; 0x80
10002182:	061b      	lsls	r3, r3, #24
10002184:	469c      	mov	ip, r3
10002186:	4465      	add	r5, ip
10002188:	9507      	str	r5, [sp, #28]
1000218a:	e71a      	b.n	10001fc2 <_etoa+0x76>
1000218c:	2300      	movs	r3, #0
1000218e:	4699      	mov	r9, r3
10002190:	464b      	mov	r3, r9
10002192:	3363      	adds	r3, #99	; 0x63
10002194:	2bc6      	cmp	r3, #198	; 0xc6
10002196:	d81e      	bhi.n	100021d6 <_etoa+0x28a>
10002198:	2604      	movs	r6, #4
1000219a:	9b1e      	ldr	r3, [sp, #120]	; 0x78
1000219c:	051b      	lsls	r3, r3, #20
1000219e:	d526      	bpl.n	100021ee <_etoa+0x2a2>
100021a0:	002b      	movs	r3, r5
100021a2:	4323      	orrs	r3, r4
100021a4:	d00f      	beq.n	100021c6 <_etoa+0x27a>
100021a6:	4a64      	ldr	r2, [pc, #400]	; (10002338 <_etoa+0x3ec>)
100021a8:	4b64      	ldr	r3, [pc, #400]	; (1000233c <_etoa+0x3f0>)
100021aa:	9806      	ldr	r0, [sp, #24]
100021ac:	9907      	ldr	r1, [sp, #28]
100021ae:	f001 f8c3 	bl	10003338 <__wrap___aeabi_dcmpge>
100021b2:	2800      	cmp	r0, #0
100021b4:	d079      	beq.n	100022aa <_etoa+0x35e>
100021b6:	2200      	movs	r2, #0
100021b8:	4b61      	ldr	r3, [pc, #388]	; (10002340 <_etoa+0x3f4>)
100021ba:	9806      	ldr	r0, [sp, #24]
100021bc:	9907      	ldr	r1, [sp, #28]
100021be:	f001 f8ad 	bl	1000331c <__wrap___aeabi_dcmplt>
100021c2:	2800      	cmp	r0, #0
100021c4:	d071      	beq.n	100022aa <_etoa+0x35e>
100021c6:	9b1c      	ldr	r3, [sp, #112]	; 0x70
100021c8:	454b      	cmp	r3, r9
100021ca:	dd06      	ble.n	100021da <_etoa+0x28e>
100021cc:	464a      	mov	r2, r9
100021ce:	1a98      	subs	r0, r3, r2
100021d0:	1e43      	subs	r3, r0, #1
100021d2:	931c      	str	r3, [sp, #112]	; 0x70
100021d4:	e003      	b.n	100021de <_etoa+0x292>
100021d6:	2605      	movs	r6, #5
100021d8:	e7df      	b.n	1000219a <_etoa+0x24e>
100021da:	2300      	movs	r3, #0
100021dc:	931c      	str	r3, [sp, #112]	; 0x70
100021de:	2380      	movs	r3, #128	; 0x80
100021e0:	00db      	lsls	r3, r3, #3
100021e2:	9a1e      	ldr	r2, [sp, #120]	; 0x78
100021e4:	431a      	orrs	r2, r3
100021e6:	921e      	str	r2, [sp, #120]	; 0x78
100021e8:	2600      	movs	r6, #0
100021ea:	2300      	movs	r3, #0
100021ec:	4699      	mov	r9, r3
100021ee:	9b1d      	ldr	r3, [sp, #116]	; 0x74
100021f0:	429e      	cmp	r6, r3
100021f2:	d264      	bcs.n	100022be <_etoa+0x372>
100021f4:	1b9f      	subs	r7, r3, r6
100021f6:	2302      	movs	r3, #2
100021f8:	9a1e      	ldr	r2, [sp, #120]	; 0x78
100021fa:	401a      	ands	r2, r3
100021fc:	920a      	str	r2, [sp, #40]	; 0x28
100021fe:	9a1e      	ldr	r2, [sp, #120]	; 0x78
10002200:	4213      	tst	r3, r2
10002202:	d002      	beq.n	1000220a <_etoa+0x2be>
10002204:	2e00      	cmp	r6, #0
10002206:	d000      	beq.n	1000220a <_etoa+0x2be>
10002208:	2700      	movs	r7, #0
1000220a:	464b      	mov	r3, r9
1000220c:	2b00      	cmp	r3, #0
1000220e:	d007      	beq.n	10002220 <_etoa+0x2d4>
10002210:	0022      	movs	r2, r4
10002212:	002b      	movs	r3, r5
10002214:	9806      	ldr	r0, [sp, #24]
10002216:	9907      	ldr	r1, [sp, #28]
10002218:	f001 f81f 	bl	1000325a <__wrap___aeabi_ddiv>
1000221c:	9006      	str	r0, [sp, #24]
1000221e:	9107      	str	r1, [sp, #28]
10002220:	2200      	movs	r2, #0
10002222:	2300      	movs	r3, #0
10002224:	9808      	ldr	r0, [sp, #32]
10002226:	9909      	ldr	r1, [sp, #36]	; 0x24
10002228:	f001 f878 	bl	1000331c <__wrap___aeabi_dcmplt>
1000222c:	2800      	cmp	r0, #0
1000222e:	d148      	bne.n	100022c2 <_etoa+0x376>
10002230:	4b44      	ldr	r3, [pc, #272]	; (10002344 <_etoa+0x3f8>)
10002232:	9a1e      	ldr	r2, [sp, #120]	; 0x78
10002234:	4013      	ands	r3, r2
10002236:	9304      	str	r3, [sp, #16]
10002238:	9703      	str	r7, [sp, #12]
1000223a:	9b1c      	ldr	r3, [sp, #112]	; 0x70
1000223c:	9302      	str	r3, [sp, #8]
1000223e:	9b06      	ldr	r3, [sp, #24]
10002240:	9c07      	ldr	r4, [sp, #28]
10002242:	9300      	str	r3, [sp, #0]
10002244:	9401      	str	r4, [sp, #4]
10002246:	4643      	mov	r3, r8
10002248:	9a0c      	ldr	r2, [sp, #48]	; 0x30
1000224a:	4651      	mov	r1, sl
1000224c:	4658      	mov	r0, fp
1000224e:	f000 f887 	bl	10002360 <_ftoa>
10002252:	2e00      	cmp	r6, #0
10002254:	d100      	bne.n	10002258 <_etoa+0x30c>
10002256:	e787      	b.n	10002168 <_etoa+0x21c>
10002258:	9b1e      	ldr	r3, [sp, #120]	; 0x78
1000225a:	069b      	lsls	r3, r3, #26
1000225c:	d53d      	bpl.n	100022da <_etoa+0x38e>
1000225e:	2545      	movs	r5, #69	; 0x45
10002260:	1c44      	adds	r4, r0, #1
10002262:	4643      	mov	r3, r8
10002264:	0002      	movs	r2, r0
10002266:	4651      	mov	r1, sl
10002268:	0028      	movs	r0, r5
1000226a:	47d8      	blx	fp
1000226c:	464b      	mov	r3, r9
1000226e:	17da      	asrs	r2, r3, #31
10002270:	189b      	adds	r3, r3, r2
10002272:	4053      	eors	r3, r2
10002274:	2205      	movs	r2, #5
10002276:	9205      	str	r2, [sp, #20]
10002278:	3e01      	subs	r6, #1
1000227a:	9604      	str	r6, [sp, #16]
1000227c:	2200      	movs	r2, #0
1000227e:	9203      	str	r2, [sp, #12]
10002280:	320a      	adds	r2, #10
10002282:	9202      	str	r2, [sp, #8]
10002284:	464a      	mov	r2, r9
10002286:	0fd0      	lsrs	r0, r2, #31
10002288:	9001      	str	r0, [sp, #4]
1000228a:	9300      	str	r3, [sp, #0]
1000228c:	4643      	mov	r3, r8
1000228e:	0022      	movs	r2, r4
10002290:	4651      	mov	r1, sl
10002292:	4658      	mov	r0, fp
10002294:	f7ff fd8a 	bl	10001dac <_ntoa_long>
10002298:	9b0a      	ldr	r3, [sp, #40]	; 0x28
1000229a:	2b00      	cmp	r3, #0
1000229c:	d100      	bne.n	100022a0 <_etoa+0x354>
1000229e:	e763      	b.n	10002168 <_etoa+0x21c>
100022a0:	0002      	movs	r2, r0
100022a2:	465f      	mov	r7, fp
100022a4:	9e0c      	ldr	r6, [sp, #48]	; 0x30
100022a6:	9d1d      	ldr	r5, [sp, #116]	; 0x74
100022a8:	e054      	b.n	10002354 <_etoa+0x408>
100022aa:	9b1c      	ldr	r3, [sp, #112]	; 0x70
100022ac:	2b00      	cmp	r3, #0
100022ae:	d09e      	beq.n	100021ee <_etoa+0x2a2>
100022b0:	9b0d      	ldr	r3, [sp, #52]	; 0x34
100022b2:	2b00      	cmp	r3, #0
100022b4:	d09b      	beq.n	100021ee <_etoa+0x2a2>
100022b6:	9b1c      	ldr	r3, [sp, #112]	; 0x70
100022b8:	3b01      	subs	r3, #1
100022ba:	931c      	str	r3, [sp, #112]	; 0x70
100022bc:	e797      	b.n	100021ee <_etoa+0x2a2>
100022be:	2700      	movs	r7, #0
100022c0:	e799      	b.n	100021f6 <_etoa+0x2aa>
100022c2:	9c06      	ldr	r4, [sp, #24]
100022c4:	9d07      	ldr	r5, [sp, #28]
100022c6:	0022      	movs	r2, r4
100022c8:	0029      	movs	r1, r5
100022ca:	2080      	movs	r0, #128	; 0x80
100022cc:	0600      	lsls	r0, r0, #24
100022ce:	4684      	mov	ip, r0
100022d0:	4461      	add	r1, ip
100022d2:	000b      	movs	r3, r1
100022d4:	9206      	str	r2, [sp, #24]
100022d6:	9307      	str	r3, [sp, #28]
100022d8:	e7aa      	b.n	10002230 <_etoa+0x2e4>
100022da:	2565      	movs	r5, #101	; 0x65
100022dc:	e7c0      	b.n	10002260 <_etoa+0x314>
100022de:	46c0      	nop			; (mov r8, r8)
100022e0:	7fefffff 	.word	0x7fefffff
100022e4:	ffefffff 	.word	0xffefffff
100022e8:	fffffc01 	.word	0xfffffc01
100022ec:	3ff00000 	.word	0x3ff00000
100022f0:	509f79fb 	.word	0x509f79fb
100022f4:	3fd34413 	.word	0x3fd34413
100022f8:	8b60c8b3 	.word	0x8b60c8b3
100022fc:	3fc68a28 	.word	0x3fc68a28
10002300:	3ff80000 	.word	0x3ff80000
10002304:	636f4361 	.word	0x636f4361
10002308:	3fd287a7 	.word	0x3fd287a7
1000230c:	0979a371 	.word	0x0979a371
10002310:	400a934f 	.word	0x400a934f
10002314:	3fe00000 	.word	0x3fe00000
10002318:	bbb55516 	.word	0xbbb55516
1000231c:	40026bb1 	.word	0x40026bb1
10002320:	fefa39ef 	.word	0xfefa39ef
10002324:	3fe62e42 	.word	0x3fe62e42
10002328:	000003ff 	.word	0x000003ff
1000232c:	402c0000 	.word	0x402c0000
10002330:	40240000 	.word	0x40240000
10002334:	40180000 	.word	0x40180000
10002338:	eb1c432d 	.word	0xeb1c432d
1000233c:	3f1a36e2 	.word	0x3f1a36e2
10002340:	412e8480 	.word	0x412e8480
10002344:	fffff7ff 	.word	0xfffff7ff
10002348:	1c54      	adds	r4, r2, #1
1000234a:	4643      	mov	r3, r8
1000234c:	4651      	mov	r1, sl
1000234e:	2020      	movs	r0, #32
10002350:	47b8      	blx	r7
10002352:	0022      	movs	r2, r4
10002354:	1b93      	subs	r3, r2, r6
10002356:	42ab      	cmp	r3, r5
10002358:	d3f6      	bcc.n	10002348 <_etoa+0x3fc>
1000235a:	0010      	movs	r0, r2
1000235c:	e704      	b.n	10002168 <_etoa+0x21c>
1000235e:	46c0      	nop			; (mov r8, r8)

10002360 <_ftoa>:
10002360:	b5f0      	push	{r4, r5, r6, r7, lr}
10002362:	46de      	mov	lr, fp
10002364:	4657      	mov	r7, sl
10002366:	464e      	mov	r6, r9
10002368:	4645      	mov	r5, r8
1000236a:	b5e0      	push	{r5, r6, r7, lr}
1000236c:	b095      	sub	sp, #84	; 0x54
1000236e:	9006      	str	r0, [sp, #24]
10002370:	9107      	str	r1, [sp, #28]
10002372:	4693      	mov	fp, r2
10002374:	4699      	mov	r9, r3
10002376:	9f20      	ldr	r7, [sp, #128]	; 0x80
10002378:	9a1e      	ldr	r2, [sp, #120]	; 0x78
1000237a:	9b1f      	ldr	r3, [sp, #124]	; 0x7c
1000237c:	0010      	movs	r0, r2
1000237e:	0019      	movs	r1, r3
10002380:	f000 ffe7 	bl	10003352 <__wrap___aeabi_dcmpun>
10002384:	2800      	cmp	r0, #0
10002386:	d131      	bne.n	100023ec <_ftoa+0x8c>
10002388:	2201      	movs	r2, #1
1000238a:	4252      	negs	r2, r2
1000238c:	4bbf      	ldr	r3, [pc, #764]	; (1000268c <_ftoa+0x32c>)
1000238e:	981e      	ldr	r0, [sp, #120]	; 0x78
10002390:	991f      	ldr	r1, [sp, #124]	; 0x7c
10002392:	f000 ffc3 	bl	1000331c <__wrap___aeabi_dcmplt>
10002396:	2800      	cmp	r0, #0
10002398:	d137      	bne.n	1000240a <_ftoa+0xaa>
1000239a:	2201      	movs	r2, #1
1000239c:	4252      	negs	r2, r2
1000239e:	4bbc      	ldr	r3, [pc, #752]	; (10002690 <_ftoa+0x330>)
100023a0:	981e      	ldr	r0, [sp, #120]	; 0x78
100023a2:	991f      	ldr	r1, [sp, #124]	; 0x7c
100023a4:	f000 ffd0 	bl	10003348 <__wrap___aeabi_dcmpgt>
100023a8:	2800      	cmp	r0, #0
100023aa:	d13d      	bne.n	10002428 <_ftoa+0xc8>
100023ac:	2200      	movs	r2, #0
100023ae:	4bb9      	ldr	r3, [pc, #740]	; (10002694 <_ftoa+0x334>)
100023b0:	981e      	ldr	r0, [sp, #120]	; 0x78
100023b2:	991f      	ldr	r1, [sp, #124]	; 0x7c
100023b4:	f000 ffc8 	bl	10003348 <__wrap___aeabi_dcmpgt>
100023b8:	2800      	cmp	r0, #0
100023ba:	d150      	bne.n	1000245e <_ftoa+0xfe>
100023bc:	2200      	movs	r2, #0
100023be:	4bb6      	ldr	r3, [pc, #728]	; (10002698 <_ftoa+0x338>)
100023c0:	981e      	ldr	r0, [sp, #120]	; 0x78
100023c2:	991f      	ldr	r1, [sp, #124]	; 0x7c
100023c4:	f000 ffaa 	bl	1000331c <__wrap___aeabi_dcmplt>
100023c8:	2800      	cmp	r0, #0
100023ca:	d148      	bne.n	1000245e <_ftoa+0xfe>
100023cc:	2200      	movs	r2, #0
100023ce:	2300      	movs	r3, #0
100023d0:	981e      	ldr	r0, [sp, #120]	; 0x78
100023d2:	991f      	ldr	r1, [sp, #124]	; 0x7c
100023d4:	f000 ffa2 	bl	1000331c <__wrap___aeabi_dcmplt>
100023d8:	2800      	cmp	r0, #0
100023da:	d150      	bne.n	1000247e <_ftoa+0x11e>
100023dc:	2300      	movs	r3, #0
100023de:	4698      	mov	r8, r3
100023e0:	9b22      	ldr	r3, [sp, #136]	; 0x88
100023e2:	055b      	lsls	r3, r3, #21
100023e4:	d400      	bmi.n	100023e8 <_ftoa+0x88>
100023e6:	e0b6      	b.n	10002556 <_ftoa+0x1f6>
100023e8:	2400      	movs	r4, #0
100023ea:	e058      	b.n	1000249e <_ftoa+0x13e>
100023ec:	9b22      	ldr	r3, [sp, #136]	; 0x88
100023ee:	9303      	str	r3, [sp, #12]
100023f0:	9b21      	ldr	r3, [sp, #132]	; 0x84
100023f2:	9302      	str	r3, [sp, #8]
100023f4:	2303      	movs	r3, #3
100023f6:	9301      	str	r3, [sp, #4]
100023f8:	4ba8      	ldr	r3, [pc, #672]	; (1000269c <_ftoa+0x33c>)
100023fa:	9300      	str	r3, [sp, #0]
100023fc:	464b      	mov	r3, r9
100023fe:	465a      	mov	r2, fp
10002400:	9907      	ldr	r1, [sp, #28]
10002402:	9806      	ldr	r0, [sp, #24]
10002404:	f7ff fbf2 	bl	10001bec <_out_rev>
10002408:	e10e      	b.n	10002628 <_ftoa+0x2c8>
1000240a:	9b22      	ldr	r3, [sp, #136]	; 0x88
1000240c:	9303      	str	r3, [sp, #12]
1000240e:	9b21      	ldr	r3, [sp, #132]	; 0x84
10002410:	9302      	str	r3, [sp, #8]
10002412:	2304      	movs	r3, #4
10002414:	9301      	str	r3, [sp, #4]
10002416:	4ba2      	ldr	r3, [pc, #648]	; (100026a0 <_ftoa+0x340>)
10002418:	9300      	str	r3, [sp, #0]
1000241a:	464b      	mov	r3, r9
1000241c:	465a      	mov	r2, fp
1000241e:	9907      	ldr	r1, [sp, #28]
10002420:	9806      	ldr	r0, [sp, #24]
10002422:	f7ff fbe3 	bl	10001bec <_out_rev>
10002426:	e0ff      	b.n	10002628 <_ftoa+0x2c8>
10002428:	2304      	movs	r3, #4
1000242a:	9a22      	ldr	r2, [sp, #136]	; 0x88
1000242c:	401a      	ands	r2, r3
1000242e:	9922      	ldr	r1, [sp, #136]	; 0x88
10002430:	420b      	tst	r3, r1
10002432:	d010      	beq.n	10002456 <_ftoa+0xf6>
10002434:	4b9b      	ldr	r3, [pc, #620]	; (100026a4 <_ftoa+0x344>)
10002436:	2a00      	cmp	r2, #0
10002438:	d00f      	beq.n	1000245a <_ftoa+0xfa>
1000243a:	2204      	movs	r2, #4
1000243c:	9922      	ldr	r1, [sp, #136]	; 0x88
1000243e:	9103      	str	r1, [sp, #12]
10002440:	9921      	ldr	r1, [sp, #132]	; 0x84
10002442:	9102      	str	r1, [sp, #8]
10002444:	9201      	str	r2, [sp, #4]
10002446:	9300      	str	r3, [sp, #0]
10002448:	464b      	mov	r3, r9
1000244a:	465a      	mov	r2, fp
1000244c:	9907      	ldr	r1, [sp, #28]
1000244e:	9806      	ldr	r0, [sp, #24]
10002450:	f7ff fbcc 	bl	10001bec <_out_rev>
10002454:	e0e8      	b.n	10002628 <_ftoa+0x2c8>
10002456:	4b94      	ldr	r3, [pc, #592]	; (100026a8 <_ftoa+0x348>)
10002458:	e7ed      	b.n	10002436 <_ftoa+0xd6>
1000245a:	2203      	movs	r2, #3
1000245c:	e7ee      	b.n	1000243c <_ftoa+0xdc>
1000245e:	9b22      	ldr	r3, [sp, #136]	; 0x88
10002460:	9304      	str	r3, [sp, #16]
10002462:	9b21      	ldr	r3, [sp, #132]	; 0x84
10002464:	9303      	str	r3, [sp, #12]
10002466:	9702      	str	r7, [sp, #8]
10002468:	9b1e      	ldr	r3, [sp, #120]	; 0x78
1000246a:	9c1f      	ldr	r4, [sp, #124]	; 0x7c
1000246c:	9300      	str	r3, [sp, #0]
1000246e:	9401      	str	r4, [sp, #4]
10002470:	464b      	mov	r3, r9
10002472:	465a      	mov	r2, fp
10002474:	9907      	ldr	r1, [sp, #28]
10002476:	9806      	ldr	r0, [sp, #24]
10002478:	f7ff fd68 	bl	10001f4c <_etoa>
1000247c:	e0d4      	b.n	10002628 <_ftoa+0x2c8>
1000247e:	9a1e      	ldr	r2, [sp, #120]	; 0x78
10002480:	9b1f      	ldr	r3, [sp, #124]	; 0x7c
10002482:	2000      	movs	r0, #0
10002484:	2100      	movs	r1, #0
10002486:	f000 fed6 	bl	10003236 <__wrap___aeabi_dsub>
1000248a:	901e      	str	r0, [sp, #120]	; 0x78
1000248c:	911f      	str	r1, [sp, #124]	; 0x7c
1000248e:	2301      	movs	r3, #1
10002490:	4698      	mov	r8, r3
10002492:	e7a5      	b.n	100023e0 <_ftoa+0x80>
10002494:	ab0c      	add	r3, sp, #48	; 0x30
10002496:	2230      	movs	r2, #48	; 0x30
10002498:	551a      	strb	r2, [r3, r4]
1000249a:	3f01      	subs	r7, #1
1000249c:	3401      	adds	r4, #1
1000249e:	2c1f      	cmp	r4, #31
100024a0:	d801      	bhi.n	100024a6 <_ftoa+0x146>
100024a2:	2f09      	cmp	r7, #9
100024a4:	d8f6      	bhi.n	10002494 <_ftoa+0x134>
100024a6:	981e      	ldr	r0, [sp, #120]	; 0x78
100024a8:	991f      	ldr	r1, [sp, #124]	; 0x7c
100024aa:	f000 ff7d 	bl	100033a8 <__wrap___aeabi_d2iz>
100024ae:	0005      	movs	r5, r0
100024b0:	f000 ff62 	bl	10003378 <__wrap___aeabi_i2d>
100024b4:	0002      	movs	r2, r0
100024b6:	000b      	movs	r3, r1
100024b8:	981e      	ldr	r0, [sp, #120]	; 0x78
100024ba:	991f      	ldr	r1, [sp, #124]	; 0x7c
100024bc:	f000 febb 	bl	10003236 <__wrap___aeabi_dsub>
100024c0:	00fa      	lsls	r2, r7, #3
100024c2:	4b7a      	ldr	r3, [pc, #488]	; (100026ac <_ftoa+0x34c>)
100024c4:	189b      	adds	r3, r3, r2
100024c6:	681a      	ldr	r2, [r3, #0]
100024c8:	685b      	ldr	r3, [r3, #4]
100024ca:	920a      	str	r2, [sp, #40]	; 0x28
100024cc:	930b      	str	r3, [sp, #44]	; 0x2c
100024ce:	f000 fee2 	bl	10003296 <__wrap___aeabi_dmul>
100024d2:	9008      	str	r0, [sp, #32]
100024d4:	9109      	str	r1, [sp, #36]	; 0x24
100024d6:	f000 ff8b 	bl	100033f0 <__wrap___aeabi_d2uiz>
100024da:	0006      	movs	r6, r0
100024dc:	f000 ff48 	bl	10003370 <__wrap___aeabi_ui2d>
100024e0:	0002      	movs	r2, r0
100024e2:	000b      	movs	r3, r1
100024e4:	9808      	ldr	r0, [sp, #32]
100024e6:	9909      	ldr	r1, [sp, #36]	; 0x24
100024e8:	f000 fea5 	bl	10003236 <__wrap___aeabi_dsub>
100024ec:	9008      	str	r0, [sp, #32]
100024ee:	9109      	str	r1, [sp, #36]	; 0x24
100024f0:	2200      	movs	r2, #0
100024f2:	4b6f      	ldr	r3, [pc, #444]	; (100026b0 <_ftoa+0x350>)
100024f4:	f000 ff28 	bl	10003348 <__wrap___aeabi_dcmpgt>
100024f8:	2800      	cmp	r0, #0
100024fa:	d02e      	beq.n	1000255a <_ftoa+0x1fa>
100024fc:	3601      	adds	r6, #1
100024fe:	0030      	movs	r0, r6
10002500:	f000 ff36 	bl	10003370 <__wrap___aeabi_ui2d>
10002504:	0002      	movs	r2, r0
10002506:	000b      	movs	r3, r1
10002508:	980a      	ldr	r0, [sp, #40]	; 0x28
1000250a:	990b      	ldr	r1, [sp, #44]	; 0x2c
1000250c:	f000 ff0c 	bl	10003328 <__wrap___aeabi_dcmple>
10002510:	2800      	cmp	r0, #0
10002512:	d001      	beq.n	10002518 <_ftoa+0x1b8>
10002514:	3501      	adds	r5, #1
10002516:	2600      	movs	r6, #0
10002518:	2f00      	cmp	r7, #0
1000251a:	d12c      	bne.n	10002576 <_ftoa+0x216>
1000251c:	0028      	movs	r0, r5
1000251e:	f000 ff2b 	bl	10003378 <__wrap___aeabi_i2d>
10002522:	0002      	movs	r2, r0
10002524:	000b      	movs	r3, r1
10002526:	981e      	ldr	r0, [sp, #120]	; 0x78
10002528:	991f      	ldr	r1, [sp, #124]	; 0x7c
1000252a:	f000 fe84 	bl	10003236 <__wrap___aeabi_dsub>
1000252e:	0006      	movs	r6, r0
10002530:	000f      	movs	r7, r1
10002532:	2200      	movs	r2, #0
10002534:	4b5e      	ldr	r3, [pc, #376]	; (100026b0 <_ftoa+0x350>)
10002536:	f000 fef1 	bl	1000331c <__wrap___aeabi_dcmplt>
1000253a:	2800      	cmp	r0, #0
1000253c:	d146      	bne.n	100025cc <_ftoa+0x26c>
1000253e:	2200      	movs	r2, #0
10002540:	4b5b      	ldr	r3, [pc, #364]	; (100026b0 <_ftoa+0x350>)
10002542:	0030      	movs	r0, r6
10002544:	0039      	movs	r1, r7
10002546:	f000 feff 	bl	10003348 <__wrap___aeabi_dcmpgt>
1000254a:	2800      	cmp	r0, #0
1000254c:	d13e      	bne.n	100025cc <_ftoa+0x26c>
1000254e:	07eb      	lsls	r3, r5, #31
10002550:	d53c      	bpl.n	100025cc <_ftoa+0x26c>
10002552:	3501      	adds	r5, #1
10002554:	e03a      	b.n	100025cc <_ftoa+0x26c>
10002556:	2706      	movs	r7, #6
10002558:	e746      	b.n	100023e8 <_ftoa+0x88>
1000255a:	2200      	movs	r2, #0
1000255c:	4b54      	ldr	r3, [pc, #336]	; (100026b0 <_ftoa+0x350>)
1000255e:	9808      	ldr	r0, [sp, #32]
10002560:	9909      	ldr	r1, [sp, #36]	; 0x24
10002562:	f000 fedb 	bl	1000331c <__wrap___aeabi_dcmplt>
10002566:	2800      	cmp	r0, #0
10002568:	d1d6      	bne.n	10002518 <_ftoa+0x1b8>
1000256a:	2e00      	cmp	r6, #0
1000256c:	d001      	beq.n	10002572 <_ftoa+0x212>
1000256e:	07f3      	lsls	r3, r6, #31
10002570:	d5d2      	bpl.n	10002518 <_ftoa+0x1b8>
10002572:	3601      	adds	r6, #1
10002574:	e7d0      	b.n	10002518 <_ftoa+0x1b8>
10002576:	46aa      	mov	sl, r5
10002578:	2c1f      	cmp	r4, #31
1000257a:	d811      	bhi.n	100025a0 <_ftoa+0x240>
1000257c:	3f01      	subs	r7, #1
1000257e:	210a      	movs	r1, #10
10002580:	0030      	movs	r0, r6
10002582:	f000 fc15 	bl	10002db0 <__wrap___aeabi_uidiv>
10002586:	1c65      	adds	r5, r4, #1
10002588:	3130      	adds	r1, #48	; 0x30
1000258a:	ab0c      	add	r3, sp, #48	; 0x30
1000258c:	5519      	strb	r1, [r3, r4]
1000258e:	210a      	movs	r1, #10
10002590:	0030      	movs	r0, r6
10002592:	f000 fc0d 	bl	10002db0 <__wrap___aeabi_uidiv>
10002596:	2e09      	cmp	r6, #9
10002598:	d90e      	bls.n	100025b8 <_ftoa+0x258>
1000259a:	0006      	movs	r6, r0
1000259c:	002c      	movs	r4, r5
1000259e:	e7eb      	b.n	10002578 <_ftoa+0x218>
100025a0:	4655      	mov	r5, sl
100025a2:	2c1f      	cmp	r4, #31
100025a4:	d80c      	bhi.n	100025c0 <_ftoa+0x260>
100025a6:	1e7b      	subs	r3, r7, #1
100025a8:	2f00      	cmp	r7, #0
100025aa:	d009      	beq.n	100025c0 <_ftoa+0x260>
100025ac:	aa0c      	add	r2, sp, #48	; 0x30
100025ae:	2130      	movs	r1, #48	; 0x30
100025b0:	5511      	strb	r1, [r2, r4]
100025b2:	001f      	movs	r7, r3
100025b4:	3401      	adds	r4, #1
100025b6:	e7f4      	b.n	100025a2 <_ftoa+0x242>
100025b8:	002b      	movs	r3, r5
100025ba:	4655      	mov	r5, sl
100025bc:	001c      	movs	r4, r3
100025be:	e7f0      	b.n	100025a2 <_ftoa+0x242>
100025c0:	2c1f      	cmp	r4, #31
100025c2:	d803      	bhi.n	100025cc <_ftoa+0x26c>
100025c4:	ab0c      	add	r3, sp, #48	; 0x30
100025c6:	222e      	movs	r2, #46	; 0x2e
100025c8:	551a      	strb	r2, [r3, r4]
100025ca:	3401      	adds	r4, #1
100025cc:	2c1f      	cmp	r4, #31
100025ce:	d810      	bhi.n	100025f2 <_ftoa+0x292>
100025d0:	210a      	movs	r1, #10
100025d2:	0028      	movs	r0, r5
100025d4:	f000 fbc4 	bl	10002d60 <__wrap___aeabi_idiv>
100025d8:	1c66      	adds	r6, r4, #1
100025da:	3130      	adds	r1, #48	; 0x30
100025dc:	ab0c      	add	r3, sp, #48	; 0x30
100025de:	5519      	strb	r1, [r3, r4]
100025e0:	210a      	movs	r1, #10
100025e2:	0028      	movs	r0, r5
100025e4:	f000 fbbc 	bl	10002d60 <__wrap___aeabi_idiv>
100025e8:	1e05      	subs	r5, r0, #0
100025ea:	d001      	beq.n	100025f0 <_ftoa+0x290>
100025ec:	0034      	movs	r4, r6
100025ee:	e7ed      	b.n	100025cc <_ftoa+0x26c>
100025f0:	0034      	movs	r4, r6
100025f2:	2303      	movs	r3, #3
100025f4:	9a22      	ldr	r2, [sp, #136]	; 0x88
100025f6:	4013      	ands	r3, r2
100025f8:	2b01      	cmp	r3, #1
100025fa:	d01c      	beq.n	10002636 <_ftoa+0x2d6>
100025fc:	2c1f      	cmp	r4, #31
100025fe:	d806      	bhi.n	1000260e <_ftoa+0x2ae>
10002600:	4643      	mov	r3, r8
10002602:	2b00      	cmp	r3, #0
10002604:	d032      	beq.n	1000266c <_ftoa+0x30c>
10002606:	ab0c      	add	r3, sp, #48	; 0x30
10002608:	222d      	movs	r2, #45	; 0x2d
1000260a:	551a      	strb	r2, [r3, r4]
1000260c:	3401      	adds	r4, #1
1000260e:	9b22      	ldr	r3, [sp, #136]	; 0x88
10002610:	9303      	str	r3, [sp, #12]
10002612:	9b21      	ldr	r3, [sp, #132]	; 0x84
10002614:	9302      	str	r3, [sp, #8]
10002616:	9401      	str	r4, [sp, #4]
10002618:	ab0c      	add	r3, sp, #48	; 0x30
1000261a:	9300      	str	r3, [sp, #0]
1000261c:	464b      	mov	r3, r9
1000261e:	465a      	mov	r2, fp
10002620:	9907      	ldr	r1, [sp, #28]
10002622:	9806      	ldr	r0, [sp, #24]
10002624:	f7ff fae2 	bl	10001bec <_out_rev>
10002628:	b015      	add	sp, #84	; 0x54
1000262a:	bcf0      	pop	{r4, r5, r6, r7}
1000262c:	46bb      	mov	fp, r7
1000262e:	46b2      	mov	sl, r6
10002630:	46a9      	mov	r9, r5
10002632:	46a0      	mov	r8, r4
10002634:	bdf0      	pop	{r4, r5, r6, r7, pc}
10002636:	9b21      	ldr	r3, [sp, #132]	; 0x84
10002638:	2b00      	cmp	r3, #0
1000263a:	d013      	beq.n	10002664 <_ftoa+0x304>
1000263c:	4643      	mov	r3, r8
1000263e:	2b00      	cmp	r3, #0
10002640:	d102      	bne.n	10002648 <_ftoa+0x2e8>
10002642:	330c      	adds	r3, #12
10002644:	4213      	tst	r3, r2
10002646:	d00f      	beq.n	10002668 <_ftoa+0x308>
10002648:	9b21      	ldr	r3, [sp, #132]	; 0x84
1000264a:	3b01      	subs	r3, #1
1000264c:	9321      	str	r3, [sp, #132]	; 0x84
1000264e:	0019      	movs	r1, r3
10002650:	e003      	b.n	1000265a <_ftoa+0x2fa>
10002652:	ab0c      	add	r3, sp, #48	; 0x30
10002654:	2230      	movs	r2, #48	; 0x30
10002656:	551a      	strb	r2, [r3, r4]
10002658:	3401      	adds	r4, #1
1000265a:	428c      	cmp	r4, r1
1000265c:	d2ce      	bcs.n	100025fc <_ftoa+0x29c>
1000265e:	2c1f      	cmp	r4, #31
10002660:	d9f7      	bls.n	10002652 <_ftoa+0x2f2>
10002662:	e7cb      	b.n	100025fc <_ftoa+0x29c>
10002664:	9921      	ldr	r1, [sp, #132]	; 0x84
10002666:	e7f8      	b.n	1000265a <_ftoa+0x2fa>
10002668:	9921      	ldr	r1, [sp, #132]	; 0x84
1000266a:	e7f6      	b.n	1000265a <_ftoa+0x2fa>
1000266c:	9b22      	ldr	r3, [sp, #136]	; 0x88
1000266e:	075b      	lsls	r3, r3, #29
10002670:	d504      	bpl.n	1000267c <_ftoa+0x31c>
10002672:	ab0c      	add	r3, sp, #48	; 0x30
10002674:	222b      	movs	r2, #43	; 0x2b
10002676:	551a      	strb	r2, [r3, r4]
10002678:	3401      	adds	r4, #1
1000267a:	e7c8      	b.n	1000260e <_ftoa+0x2ae>
1000267c:	9b22      	ldr	r3, [sp, #136]	; 0x88
1000267e:	071b      	lsls	r3, r3, #28
10002680:	d5c5      	bpl.n	1000260e <_ftoa+0x2ae>
10002682:	ab0c      	add	r3, sp, #48	; 0x30
10002684:	2220      	movs	r2, #32
10002686:	551a      	strb	r2, [r3, r4]
10002688:	3401      	adds	r4, #1
1000268a:	e7c0      	b.n	1000260e <_ftoa+0x2ae>
1000268c:	ffefffff 	.word	0xffefffff
10002690:	7fefffff 	.word	0x7fefffff
10002694:	41cdcd65 	.word	0x41cdcd65
10002698:	c1cdcd65 	.word	0xc1cdcd65
1000269c:	100074e8 	.word	0x100074e8
100026a0:	100074ec 	.word	0x100074ec
100026a4:	100074e0 	.word	0x100074e0
100026a8:	100074dc 	.word	0x100074dc
100026ac:	100076d8 	.word	0x100076d8
100026b0:	3fe00000 	.word	0x3fe00000

100026b4 <_vsnprintf>:
100026b4:	b5f0      	push	{r4, r5, r6, r7, lr}
100026b6:	46de      	mov	lr, fp
100026b8:	4657      	mov	r7, sl
100026ba:	464e      	mov	r6, r9
100026bc:	4645      	mov	r5, r8
100026be:	b5e0      	push	{r5, r6, r7, lr}
100026c0:	b093      	sub	sp, #76	; 0x4c
100026c2:	4682      	mov	sl, r0
100026c4:	468b      	mov	fp, r1
100026c6:	4690      	mov	r8, r2
100026c8:	9311      	str	r3, [sp, #68]	; 0x44
100026ca:	2900      	cmp	r1, #0
100026cc:	d100      	bne.n	100026d0 <_vsnprintf+0x1c>
100026ce:	e2eb      	b.n	10002ca8 <_vsnprintf+0x5f4>
100026d0:	2700      	movs	r7, #0
100026d2:	4655      	mov	r5, sl
100026d4:	9b11      	ldr	r3, [sp, #68]	; 0x44
100026d6:	7818      	ldrb	r0, [r3, #0]
100026d8:	2800      	cmp	r0, #0
100026da:	d100      	bne.n	100026de <_vsnprintf+0x2a>
100026dc:	e2e7      	b.n	10002cae <_vsnprintf+0x5fa>
100026de:	2825      	cmp	r0, #37	; 0x25
100026e0:	d009      	beq.n	100026f6 <_vsnprintf+0x42>
100026e2:	1c7c      	adds	r4, r7, #1
100026e4:	4643      	mov	r3, r8
100026e6:	003a      	movs	r2, r7
100026e8:	4659      	mov	r1, fp
100026ea:	47a8      	blx	r5
100026ec:	9b11      	ldr	r3, [sp, #68]	; 0x44
100026ee:	3301      	adds	r3, #1
100026f0:	9311      	str	r3, [sp, #68]	; 0x44
100026f2:	0027      	movs	r7, r4
100026f4:	e7ee      	b.n	100026d4 <_vsnprintf+0x20>
100026f6:	3301      	adds	r3, #1
100026f8:	9311      	str	r3, [sp, #68]	; 0x44
100026fa:	2400      	movs	r4, #0
100026fc:	9a11      	ldr	r2, [sp, #68]	; 0x44
100026fe:	7811      	ldrb	r1, [r2, #0]
10002700:	000b      	movs	r3, r1
10002702:	3b20      	subs	r3, #32
10002704:	b2d8      	uxtb	r0, r3
10002706:	2810      	cmp	r0, #16
10002708:	d803      	bhi.n	10002712 <_vsnprintf+0x5e>
1000270a:	0083      	lsls	r3, r0, #2
1000270c:	48d0      	ldr	r0, [pc, #832]	; (10002a50 <_vsnprintf+0x39c>)
1000270e:	58c3      	ldr	r3, [r0, r3]
10002710:	469f      	mov	pc, r3
10002712:	000b      	movs	r3, r1
10002714:	3b30      	subs	r3, #48	; 0x30
10002716:	b2db      	uxtb	r3, r3
10002718:	2b09      	cmp	r3, #9
1000271a:	d92c      	bls.n	10002776 <_vsnprintf+0xc2>
1000271c:	292a      	cmp	r1, #42	; 0x2a
1000271e:	d02f      	beq.n	10002780 <_vsnprintf+0xcc>
10002720:	2300      	movs	r3, #0
10002722:	930a      	str	r3, [sp, #40]	; 0x28
10002724:	9b11      	ldr	r3, [sp, #68]	; 0x44
10002726:	781a      	ldrb	r2, [r3, #0]
10002728:	2a2e      	cmp	r2, #46	; 0x2e
1000272a:	d039      	beq.n	100027a0 <_vsnprintf+0xec>
1000272c:	2300      	movs	r3, #0
1000272e:	469a      	mov	sl, r3
10002730:	9a11      	ldr	r2, [sp, #68]	; 0x44
10002732:	7813      	ldrb	r3, [r2, #0]
10002734:	3b68      	subs	r3, #104	; 0x68
10002736:	b2d9      	uxtb	r1, r3
10002738:	2912      	cmp	r1, #18
1000273a:	d876      	bhi.n	1000282a <_vsnprintf+0x176>
1000273c:	008b      	lsls	r3, r1, #2
1000273e:	49c5      	ldr	r1, [pc, #788]	; (10002a54 <_vsnprintf+0x3a0>)
10002740:	58cb      	ldr	r3, [r1, r3]
10002742:	469f      	mov	pc, r3
10002744:	2301      	movs	r3, #1
10002746:	431c      	orrs	r4, r3
10002748:	3201      	adds	r2, #1
1000274a:	9211      	str	r2, [sp, #68]	; 0x44
1000274c:	e7d6      	b.n	100026fc <_vsnprintf+0x48>
1000274e:	2302      	movs	r3, #2
10002750:	431c      	orrs	r4, r3
10002752:	3201      	adds	r2, #1
10002754:	9211      	str	r2, [sp, #68]	; 0x44
10002756:	e7d1      	b.n	100026fc <_vsnprintf+0x48>
10002758:	2304      	movs	r3, #4
1000275a:	431c      	orrs	r4, r3
1000275c:	3201      	adds	r2, #1
1000275e:	9211      	str	r2, [sp, #68]	; 0x44
10002760:	e7cc      	b.n	100026fc <_vsnprintf+0x48>
10002762:	2308      	movs	r3, #8
10002764:	431c      	orrs	r4, r3
10002766:	3201      	adds	r2, #1
10002768:	9211      	str	r2, [sp, #68]	; 0x44
1000276a:	e7c7      	b.n	100026fc <_vsnprintf+0x48>
1000276c:	2310      	movs	r3, #16
1000276e:	431c      	orrs	r4, r3
10002770:	3201      	adds	r2, #1
10002772:	9211      	str	r2, [sp, #68]	; 0x44
10002774:	e7c2      	b.n	100026fc <_vsnprintf+0x48>
10002776:	a811      	add	r0, sp, #68	; 0x44
10002778:	f7ff fa26 	bl	10001bc8 <_atoi>
1000277c:	900a      	str	r0, [sp, #40]	; 0x28
1000277e:	e7d1      	b.n	10002724 <_vsnprintf+0x70>
10002780:	9b1c      	ldr	r3, [sp, #112]	; 0x70
10002782:	1d1a      	adds	r2, r3, #4
10002784:	921c      	str	r2, [sp, #112]	; 0x70
10002786:	6818      	ldr	r0, [r3, #0]
10002788:	2800      	cmp	r0, #0
1000278a:	db04      	blt.n	10002796 <_vsnprintf+0xe2>
1000278c:	900a      	str	r0, [sp, #40]	; 0x28
1000278e:	9b11      	ldr	r3, [sp, #68]	; 0x44
10002790:	3301      	adds	r3, #1
10002792:	9311      	str	r3, [sp, #68]	; 0x44
10002794:	e7c6      	b.n	10002724 <_vsnprintf+0x70>
10002796:	2302      	movs	r3, #2
10002798:	431c      	orrs	r4, r3
1000279a:	4243      	negs	r3, r0
1000279c:	930a      	str	r3, [sp, #40]	; 0x28
1000279e:	e7f6      	b.n	1000278e <_vsnprintf+0xda>
100027a0:	2280      	movs	r2, #128	; 0x80
100027a2:	00d2      	lsls	r2, r2, #3
100027a4:	4314      	orrs	r4, r2
100027a6:	1c5a      	adds	r2, r3, #1
100027a8:	9211      	str	r2, [sp, #68]	; 0x44
100027aa:	785a      	ldrb	r2, [r3, #1]
100027ac:	0013      	movs	r3, r2
100027ae:	3b30      	subs	r3, #48	; 0x30
100027b0:	b2db      	uxtb	r3, r3
100027b2:	2b09      	cmp	r3, #9
100027b4:	d904      	bls.n	100027c0 <_vsnprintf+0x10c>
100027b6:	2a2a      	cmp	r2, #42	; 0x2a
100027b8:	d007      	beq.n	100027ca <_vsnprintf+0x116>
100027ba:	2300      	movs	r3, #0
100027bc:	469a      	mov	sl, r3
100027be:	e7b7      	b.n	10002730 <_vsnprintf+0x7c>
100027c0:	a811      	add	r0, sp, #68	; 0x44
100027c2:	f7ff fa01 	bl	10001bc8 <_atoi>
100027c6:	4682      	mov	sl, r0
100027c8:	e7b2      	b.n	10002730 <_vsnprintf+0x7c>
100027ca:	9b1c      	ldr	r3, [sp, #112]	; 0x70
100027cc:	1d1a      	adds	r2, r3, #4
100027ce:	921c      	str	r2, [sp, #112]	; 0x70
100027d0:	6818      	ldr	r0, [r3, #0]
100027d2:	2800      	cmp	r0, #0
100027d4:	db04      	blt.n	100027e0 <_vsnprintf+0x12c>
100027d6:	4682      	mov	sl, r0
100027d8:	9b11      	ldr	r3, [sp, #68]	; 0x44
100027da:	3301      	adds	r3, #1
100027dc:	9311      	str	r3, [sp, #68]	; 0x44
100027de:	e7a7      	b.n	10002730 <_vsnprintf+0x7c>
100027e0:	2000      	movs	r0, #0
100027e2:	e7f8      	b.n	100027d6 <_vsnprintf+0x122>
100027e4:	2380      	movs	r3, #128	; 0x80
100027e6:	005b      	lsls	r3, r3, #1
100027e8:	4323      	orrs	r3, r4
100027ea:	1c51      	adds	r1, r2, #1
100027ec:	9111      	str	r1, [sp, #68]	; 0x44
100027ee:	7852      	ldrb	r2, [r2, #1]
100027f0:	2a6c      	cmp	r2, #108	; 0x6c
100027f2:	d001      	beq.n	100027f8 <_vsnprintf+0x144>
100027f4:	001c      	movs	r4, r3
100027f6:	e018      	b.n	1000282a <_vsnprintf+0x176>
100027f8:	23c0      	movs	r3, #192	; 0xc0
100027fa:	009b      	lsls	r3, r3, #2
100027fc:	431c      	orrs	r4, r3
100027fe:	3101      	adds	r1, #1
10002800:	9111      	str	r1, [sp, #68]	; 0x44
10002802:	e012      	b.n	1000282a <_vsnprintf+0x176>
10002804:	2380      	movs	r3, #128	; 0x80
10002806:	4323      	orrs	r3, r4
10002808:	1c51      	adds	r1, r2, #1
1000280a:	9111      	str	r1, [sp, #68]	; 0x44
1000280c:	7852      	ldrb	r2, [r2, #1]
1000280e:	2a68      	cmp	r2, #104	; 0x68
10002810:	d001      	beq.n	10002816 <_vsnprintf+0x162>
10002812:	001c      	movs	r4, r3
10002814:	e009      	b.n	1000282a <_vsnprintf+0x176>
10002816:	23c0      	movs	r3, #192	; 0xc0
10002818:	431c      	orrs	r4, r3
1000281a:	3101      	adds	r1, #1
1000281c:	9111      	str	r1, [sp, #68]	; 0x44
1000281e:	e004      	b.n	1000282a <_vsnprintf+0x176>
10002820:	2380      	movs	r3, #128	; 0x80
10002822:	005b      	lsls	r3, r3, #1
10002824:	431c      	orrs	r4, r3
10002826:	3201      	adds	r2, #1
10002828:	9211      	str	r2, [sp, #68]	; 0x44
1000282a:	9b11      	ldr	r3, [sp, #68]	; 0x44
1000282c:	7818      	ldrb	r0, [r3, #0]
1000282e:	0003      	movs	r3, r0
10002830:	3b25      	subs	r3, #37	; 0x25
10002832:	b2da      	uxtb	r2, r3
10002834:	2a53      	cmp	r2, #83	; 0x53
10002836:	d900      	bls.n	1000283a <_vsnprintf+0x186>
10002838:	e22c      	b.n	10002c94 <_vsnprintf+0x5e0>
1000283a:	0093      	lsls	r3, r2, #2
1000283c:	4a86      	ldr	r2, [pc, #536]	; (10002a58 <_vsnprintf+0x3a4>)
1000283e:	58d3      	ldr	r3, [r2, r3]
10002840:	469f      	mov	pc, r3
10002842:	2380      	movs	r3, #128	; 0x80
10002844:	009b      	lsls	r3, r3, #2
10002846:	431c      	orrs	r4, r3
10002848:	3201      	adds	r2, #1
1000284a:	9211      	str	r2, [sp, #68]	; 0x44
1000284c:	e7ed      	b.n	1000282a <_vsnprintf+0x176>
1000284e:	2380      	movs	r3, #128	; 0x80
10002850:	005b      	lsls	r3, r3, #1
10002852:	431c      	orrs	r4, r3
10002854:	3201      	adds	r2, #1
10002856:	9211      	str	r2, [sp, #68]	; 0x44
10002858:	e7e7      	b.n	1000282a <_vsnprintf+0x176>
1000285a:	2878      	cmp	r0, #120	; 0x78
1000285c:	d009      	beq.n	10002872 <_vsnprintf+0x1be>
1000285e:	2858      	cmp	r0, #88	; 0x58
10002860:	d038      	beq.n	100028d4 <_vsnprintf+0x220>
10002862:	286f      	cmp	r0, #111	; 0x6f
10002864:	d038      	beq.n	100028d8 <_vsnprintf+0x224>
10002866:	2862      	cmp	r0, #98	; 0x62
10002868:	d038      	beq.n	100028dc <_vsnprintf+0x228>
1000286a:	2310      	movs	r3, #16
1000286c:	439c      	bics	r4, r3
1000286e:	260a      	movs	r6, #10
10002870:	e000      	b.n	10002874 <_vsnprintf+0x1c0>
10002872:	2610      	movs	r6, #16
10002874:	2858      	cmp	r0, #88	; 0x58
10002876:	d033      	beq.n	100028e0 <_vsnprintf+0x22c>
10002878:	2869      	cmp	r0, #105	; 0x69
1000287a:	d003      	beq.n	10002884 <_vsnprintf+0x1d0>
1000287c:	2864      	cmp	r0, #100	; 0x64
1000287e:	d001      	beq.n	10002884 <_vsnprintf+0x1d0>
10002880:	220c      	movs	r2, #12
10002882:	4394      	bics	r4, r2
10002884:	0563      	lsls	r3, r4, #21
10002886:	d501      	bpl.n	1000288c <_vsnprintf+0x1d8>
10002888:	2201      	movs	r2, #1
1000288a:	4394      	bics	r4, r2
1000288c:	2869      	cmp	r0, #105	; 0x69
1000288e:	d02a      	beq.n	100028e6 <_vsnprintf+0x232>
10002890:	2864      	cmp	r0, #100	; 0x64
10002892:	d028      	beq.n	100028e6 <_vsnprintf+0x232>
10002894:	05a3      	lsls	r3, r4, #22
10002896:	d500      	bpl.n	1000289a <_vsnprintf+0x1e6>
10002898:	e09f      	b.n	100029da <_vsnprintf+0x326>
1000289a:	05e3      	lsls	r3, r4, #23
1000289c:	d500      	bpl.n	100028a0 <_vsnprintf+0x1ec>
1000289e:	e0b8      	b.n	10002a12 <_vsnprintf+0x35e>
100028a0:	0663      	lsls	r3, r4, #25
100028a2:	d400      	bmi.n	100028a6 <_vsnprintf+0x1f2>
100028a4:	e0ca      	b.n	10002a3c <_vsnprintf+0x388>
100028a6:	9a1c      	ldr	r2, [sp, #112]	; 0x70
100028a8:	1d11      	adds	r1, r2, #4
100028aa:	911c      	str	r1, [sp, #112]	; 0x70
100028ac:	6811      	ldr	r1, [r2, #0]
100028ae:	22ff      	movs	r2, #255	; 0xff
100028b0:	400a      	ands	r2, r1
100028b2:	9405      	str	r4, [sp, #20]
100028b4:	9b0a      	ldr	r3, [sp, #40]	; 0x28
100028b6:	9304      	str	r3, [sp, #16]
100028b8:	4653      	mov	r3, sl
100028ba:	9303      	str	r3, [sp, #12]
100028bc:	9602      	str	r6, [sp, #8]
100028be:	2300      	movs	r3, #0
100028c0:	9301      	str	r3, [sp, #4]
100028c2:	9200      	str	r2, [sp, #0]
100028c4:	4643      	mov	r3, r8
100028c6:	003a      	movs	r2, r7
100028c8:	4659      	mov	r1, fp
100028ca:	0028      	movs	r0, r5
100028cc:	f7ff fa6e 	bl	10001dac <_ntoa_long>
100028d0:	0007      	movs	r7, r0
100028d2:	e027      	b.n	10002924 <_vsnprintf+0x270>
100028d4:	2610      	movs	r6, #16
100028d6:	e7cd      	b.n	10002874 <_vsnprintf+0x1c0>
100028d8:	2608      	movs	r6, #8
100028da:	e7cb      	b.n	10002874 <_vsnprintf+0x1c0>
100028dc:	2602      	movs	r6, #2
100028de:	e7c9      	b.n	10002874 <_vsnprintf+0x1c0>
100028e0:	2220      	movs	r2, #32
100028e2:	4314      	orrs	r4, r2
100028e4:	e7c8      	b.n	10002878 <_vsnprintf+0x1c4>
100028e6:	05a3      	lsls	r3, r4, #22
100028e8:	d420      	bmi.n	1000292c <_vsnprintf+0x278>
100028ea:	05e3      	lsls	r3, r4, #23
100028ec:	d450      	bmi.n	10002990 <_vsnprintf+0x2dc>
100028ee:	0663      	lsls	r3, r4, #25
100028f0:	d566      	bpl.n	100029c0 <_vsnprintf+0x30c>
100028f2:	9a1c      	ldr	r2, [sp, #112]	; 0x70
100028f4:	1d11      	adds	r1, r2, #4
100028f6:	911c      	str	r1, [sp, #112]	; 0x70
100028f8:	6811      	ldr	r1, [r2, #0]
100028fa:	22ff      	movs	r2, #255	; 0xff
100028fc:	400a      	ands	r2, r1
100028fe:	17d3      	asrs	r3, r2, #31
10002900:	18d1      	adds	r1, r2, r3
10002902:	4059      	eors	r1, r3
10002904:	9405      	str	r4, [sp, #20]
10002906:	9b0a      	ldr	r3, [sp, #40]	; 0x28
10002908:	9304      	str	r3, [sp, #16]
1000290a:	4653      	mov	r3, sl
1000290c:	9303      	str	r3, [sp, #12]
1000290e:	9602      	str	r6, [sp, #8]
10002910:	0fd2      	lsrs	r2, r2, #31
10002912:	9201      	str	r2, [sp, #4]
10002914:	9100      	str	r1, [sp, #0]
10002916:	4643      	mov	r3, r8
10002918:	003a      	movs	r2, r7
1000291a:	4659      	mov	r1, fp
1000291c:	0028      	movs	r0, r5
1000291e:	f7ff fa45 	bl	10001dac <_ntoa_long>
10002922:	0007      	movs	r7, r0
10002924:	9b11      	ldr	r3, [sp, #68]	; 0x44
10002926:	3301      	adds	r3, #1
10002928:	9311      	str	r3, [sp, #68]	; 0x44
1000292a:	e6d3      	b.n	100026d4 <_vsnprintf+0x20>
1000292c:	9b1c      	ldr	r3, [sp, #112]	; 0x70
1000292e:	1dda      	adds	r2, r3, #7
10002930:	2107      	movs	r1, #7
10002932:	438a      	bics	r2, r1
10002934:	0011      	movs	r1, r2
10002936:	3108      	adds	r1, #8
10002938:	911c      	str	r1, [sp, #112]	; 0x70
1000293a:	6811      	ldr	r1, [r2, #0]
1000293c:	6853      	ldr	r3, [r2, #4]
1000293e:	469c      	mov	ip, r3
10002940:	17db      	asrs	r3, r3, #31
10002942:	930c      	str	r3, [sp, #48]	; 0x30
10002944:	930d      	str	r3, [sp, #52]	; 0x34
10002946:	9a0c      	ldr	r2, [sp, #48]	; 0x30
10002948:	9b0d      	ldr	r3, [sp, #52]	; 0x34
1000294a:	0010      	movs	r0, r2
1000294c:	4048      	eors	r0, r1
1000294e:	900e      	str	r0, [sp, #56]	; 0x38
10002950:	4662      	mov	r2, ip
10002952:	4053      	eors	r3, r2
10002954:	930f      	str	r3, [sp, #60]	; 0x3c
10002956:	980e      	ldr	r0, [sp, #56]	; 0x38
10002958:	990f      	ldr	r1, [sp, #60]	; 0x3c
1000295a:	9a0c      	ldr	r2, [sp, #48]	; 0x30
1000295c:	9b0d      	ldr	r3, [sp, #52]	; 0x34
1000295e:	1a80      	subs	r0, r0, r2
10002960:	4199      	sbcs	r1, r3
10002962:	900e      	str	r0, [sp, #56]	; 0x38
10002964:	910f      	str	r1, [sp, #60]	; 0x3c
10002966:	9408      	str	r4, [sp, #32]
10002968:	9b0a      	ldr	r3, [sp, #40]	; 0x28
1000296a:	9307      	str	r3, [sp, #28]
1000296c:	4653      	mov	r3, sl
1000296e:	9306      	str	r3, [sp, #24]
10002970:	9604      	str	r6, [sp, #16]
10002972:	2300      	movs	r3, #0
10002974:	9305      	str	r3, [sp, #20]
10002976:	4663      	mov	r3, ip
10002978:	0fda      	lsrs	r2, r3, #31
1000297a:	9202      	str	r2, [sp, #8]
1000297c:	9000      	str	r0, [sp, #0]
1000297e:	9101      	str	r1, [sp, #4]
10002980:	4643      	mov	r3, r8
10002982:	003a      	movs	r2, r7
10002984:	4659      	mov	r1, fp
10002986:	0028      	movs	r0, r5
10002988:	f7ff fa6e 	bl	10001e68 <_ntoa_long_long>
1000298c:	0007      	movs	r7, r0
1000298e:	e7c9      	b.n	10002924 <_vsnprintf+0x270>
10002990:	9a1c      	ldr	r2, [sp, #112]	; 0x70
10002992:	1d11      	adds	r1, r2, #4
10002994:	911c      	str	r1, [sp, #112]	; 0x70
10002996:	6812      	ldr	r2, [r2, #0]
10002998:	17d3      	asrs	r3, r2, #31
1000299a:	18d1      	adds	r1, r2, r3
1000299c:	4059      	eors	r1, r3
1000299e:	9405      	str	r4, [sp, #20]
100029a0:	9b0a      	ldr	r3, [sp, #40]	; 0x28
100029a2:	9304      	str	r3, [sp, #16]
100029a4:	4653      	mov	r3, sl
100029a6:	9303      	str	r3, [sp, #12]
100029a8:	9602      	str	r6, [sp, #8]
100029aa:	0fd2      	lsrs	r2, r2, #31
100029ac:	9201      	str	r2, [sp, #4]
100029ae:	9100      	str	r1, [sp, #0]
100029b0:	4643      	mov	r3, r8
100029b2:	003a      	movs	r2, r7
100029b4:	4659      	mov	r1, fp
100029b6:	0028      	movs	r0, r5
100029b8:	f7ff f9f8 	bl	10001dac <_ntoa_long>
100029bc:	0007      	movs	r7, r0
100029be:	e7b1      	b.n	10002924 <_vsnprintf+0x270>
100029c0:	0623      	lsls	r3, r4, #24
100029c2:	d505      	bpl.n	100029d0 <_vsnprintf+0x31c>
100029c4:	9a1c      	ldr	r2, [sp, #112]	; 0x70
100029c6:	1d11      	adds	r1, r2, #4
100029c8:	911c      	str	r1, [sp, #112]	; 0x70
100029ca:	2300      	movs	r3, #0
100029cc:	5ed2      	ldrsh	r2, [r2, r3]
100029ce:	e796      	b.n	100028fe <_vsnprintf+0x24a>
100029d0:	9a1c      	ldr	r2, [sp, #112]	; 0x70
100029d2:	1d11      	adds	r1, r2, #4
100029d4:	911c      	str	r1, [sp, #112]	; 0x70
100029d6:	6812      	ldr	r2, [r2, #0]
100029d8:	e791      	b.n	100028fe <_vsnprintf+0x24a>
100029da:	9b1c      	ldr	r3, [sp, #112]	; 0x70
100029dc:	1dda      	adds	r2, r3, #7
100029de:	2107      	movs	r1, #7
100029e0:	438a      	bics	r2, r1
100029e2:	0011      	movs	r1, r2
100029e4:	3108      	adds	r1, #8
100029e6:	911c      	str	r1, [sp, #112]	; 0x70
100029e8:	9408      	str	r4, [sp, #32]
100029ea:	9b0a      	ldr	r3, [sp, #40]	; 0x28
100029ec:	9307      	str	r3, [sp, #28]
100029ee:	4653      	mov	r3, sl
100029f0:	9306      	str	r3, [sp, #24]
100029f2:	9604      	str	r6, [sp, #16]
100029f4:	2300      	movs	r3, #0
100029f6:	9305      	str	r3, [sp, #20]
100029f8:	9302      	str	r3, [sp, #8]
100029fa:	6813      	ldr	r3, [r2, #0]
100029fc:	6854      	ldr	r4, [r2, #4]
100029fe:	9300      	str	r3, [sp, #0]
10002a00:	9401      	str	r4, [sp, #4]
10002a02:	4643      	mov	r3, r8
10002a04:	003a      	movs	r2, r7
10002a06:	4659      	mov	r1, fp
10002a08:	0028      	movs	r0, r5
10002a0a:	f7ff fa2d 	bl	10001e68 <_ntoa_long_long>
10002a0e:	0007      	movs	r7, r0
10002a10:	e788      	b.n	10002924 <_vsnprintf+0x270>
10002a12:	9a1c      	ldr	r2, [sp, #112]	; 0x70
10002a14:	1d11      	adds	r1, r2, #4
10002a16:	911c      	str	r1, [sp, #112]	; 0x70
10002a18:	9405      	str	r4, [sp, #20]
10002a1a:	9b0a      	ldr	r3, [sp, #40]	; 0x28
10002a1c:	9304      	str	r3, [sp, #16]
10002a1e:	4653      	mov	r3, sl
10002a20:	9303      	str	r3, [sp, #12]
10002a22:	9602      	str	r6, [sp, #8]
10002a24:	2300      	movs	r3, #0
10002a26:	9301      	str	r3, [sp, #4]
10002a28:	6813      	ldr	r3, [r2, #0]
10002a2a:	9300      	str	r3, [sp, #0]
10002a2c:	4643      	mov	r3, r8
10002a2e:	003a      	movs	r2, r7
10002a30:	4659      	mov	r1, fp
10002a32:	0028      	movs	r0, r5
10002a34:	f7ff f9ba 	bl	10001dac <_ntoa_long>
10002a38:	0007      	movs	r7, r0
10002a3a:	e773      	b.n	10002924 <_vsnprintf+0x270>
10002a3c:	0623      	lsls	r3, r4, #24
10002a3e:	d50d      	bpl.n	10002a5c <_vsnprintf+0x3a8>
10002a40:	9a1c      	ldr	r2, [sp, #112]	; 0x70
10002a42:	1d11      	adds	r1, r2, #4
10002a44:	911c      	str	r1, [sp, #112]	; 0x70
10002a46:	6812      	ldr	r2, [r2, #0]
10002a48:	0412      	lsls	r2, r2, #16
10002a4a:	0c12      	lsrs	r2, r2, #16
10002a4c:	e731      	b.n	100028b2 <_vsnprintf+0x1fe>
10002a4e:	46c0      	nop			; (mov r8, r8)
10002a50:	100074f4 	.word	0x100074f4
10002a54:	10007538 	.word	0x10007538
10002a58:	10007584 	.word	0x10007584
10002a5c:	9a1c      	ldr	r2, [sp, #112]	; 0x70
10002a5e:	1d11      	adds	r1, r2, #4
10002a60:	911c      	str	r1, [sp, #112]	; 0x70
10002a62:	6812      	ldr	r2, [r2, #0]
10002a64:	e725      	b.n	100028b2 <_vsnprintf+0x1fe>
10002a66:	2846      	cmp	r0, #70	; 0x46
10002a68:	d01a      	beq.n	10002aa0 <_vsnprintf+0x3ec>
10002a6a:	9b1c      	ldr	r3, [sp, #112]	; 0x70
10002a6c:	3307      	adds	r3, #7
10002a6e:	2207      	movs	r2, #7
10002a70:	4393      	bics	r3, r2
10002a72:	001a      	movs	r2, r3
10002a74:	3208      	adds	r2, #8
10002a76:	921c      	str	r2, [sp, #112]	; 0x70
10002a78:	9404      	str	r4, [sp, #16]
10002a7a:	9a0a      	ldr	r2, [sp, #40]	; 0x28
10002a7c:	9203      	str	r2, [sp, #12]
10002a7e:	4652      	mov	r2, sl
10002a80:	9202      	str	r2, [sp, #8]
10002a82:	685c      	ldr	r4, [r3, #4]
10002a84:	681b      	ldr	r3, [r3, #0]
10002a86:	9300      	str	r3, [sp, #0]
10002a88:	9401      	str	r4, [sp, #4]
10002a8a:	4643      	mov	r3, r8
10002a8c:	003a      	movs	r2, r7
10002a8e:	4659      	mov	r1, fp
10002a90:	0028      	movs	r0, r5
10002a92:	f7ff fc65 	bl	10002360 <_ftoa>
10002a96:	0007      	movs	r7, r0
10002a98:	9b11      	ldr	r3, [sp, #68]	; 0x44
10002a9a:	3301      	adds	r3, #1
10002a9c:	9311      	str	r3, [sp, #68]	; 0x44
10002a9e:	e619      	b.n	100026d4 <_vsnprintf+0x20>
10002aa0:	2320      	movs	r3, #32
10002aa2:	431c      	orrs	r4, r3
10002aa4:	e7e1      	b.n	10002a6a <_vsnprintf+0x3b6>
10002aa6:	2867      	cmp	r0, #103	; 0x67
10002aa8:	d001      	beq.n	10002aae <_vsnprintf+0x3fa>
10002aaa:	2847      	cmp	r0, #71	; 0x47
10002aac:	d102      	bne.n	10002ab4 <_vsnprintf+0x400>
10002aae:	2380      	movs	r3, #128	; 0x80
10002ab0:	011b      	lsls	r3, r3, #4
10002ab2:	431c      	orrs	r4, r3
10002ab4:	2845      	cmp	r0, #69	; 0x45
10002ab6:	d001      	beq.n	10002abc <_vsnprintf+0x408>
10002ab8:	2847      	cmp	r0, #71	; 0x47
10002aba:	d101      	bne.n	10002ac0 <_vsnprintf+0x40c>
10002abc:	2320      	movs	r3, #32
10002abe:	431c      	orrs	r4, r3
10002ac0:	9b1c      	ldr	r3, [sp, #112]	; 0x70
10002ac2:	3307      	adds	r3, #7
10002ac4:	2207      	movs	r2, #7
10002ac6:	4393      	bics	r3, r2
10002ac8:	001a      	movs	r2, r3
10002aca:	3208      	adds	r2, #8
10002acc:	921c      	str	r2, [sp, #112]	; 0x70
10002ace:	9404      	str	r4, [sp, #16]
10002ad0:	9a0a      	ldr	r2, [sp, #40]	; 0x28
10002ad2:	9203      	str	r2, [sp, #12]
10002ad4:	4652      	mov	r2, sl
10002ad6:	9202      	str	r2, [sp, #8]
10002ad8:	685c      	ldr	r4, [r3, #4]
10002ada:	681b      	ldr	r3, [r3, #0]
10002adc:	9300      	str	r3, [sp, #0]
10002ade:	9401      	str	r4, [sp, #4]
10002ae0:	4643      	mov	r3, r8
10002ae2:	003a      	movs	r2, r7
10002ae4:	4659      	mov	r1, fp
10002ae6:	0028      	movs	r0, r5
10002ae8:	f7ff fa30 	bl	10001f4c <_etoa>
10002aec:	0007      	movs	r7, r0
10002aee:	9b11      	ldr	r3, [sp, #68]	; 0x44
10002af0:	3301      	adds	r3, #1
10002af2:	9311      	str	r3, [sp, #68]	; 0x44
10002af4:	e5ee      	b.n	100026d4 <_vsnprintf+0x20>
10002af6:	2302      	movs	r3, #2
10002af8:	001a      	movs	r2, r3
10002afa:	4022      	ands	r2, r4
10002afc:	4692      	mov	sl, r2
10002afe:	4223      	tst	r3, r4
10002b00:	d01f      	beq.n	10002b42 <_vsnprintf+0x48e>
10002b02:	2401      	movs	r4, #1
10002b04:	9b1c      	ldr	r3, [sp, #112]	; 0x70
10002b06:	1d1a      	adds	r2, r3, #4
10002b08:	921c      	str	r2, [sp, #112]	; 0x70
10002b0a:	1c7a      	adds	r2, r7, #1
10002b0c:	4691      	mov	r9, r2
10002b0e:	7818      	ldrb	r0, [r3, #0]
10002b10:	4643      	mov	r3, r8
10002b12:	003a      	movs	r2, r7
10002b14:	4659      	mov	r1, fp
10002b16:	47a8      	blx	r5
10002b18:	4653      	mov	r3, sl
10002b1a:	2b00      	cmp	r3, #0
10002b1c:	d116      	bne.n	10002b4c <_vsnprintf+0x498>
10002b1e:	9b11      	ldr	r3, [sp, #68]	; 0x44
10002b20:	3301      	adds	r3, #1
10002b22:	9311      	str	r3, [sp, #68]	; 0x44
10002b24:	464f      	mov	r7, r9
10002b26:	e5d5      	b.n	100026d4 <_vsnprintf+0x20>
10002b28:	1c56      	adds	r6, r2, #1
10002b2a:	4643      	mov	r3, r8
10002b2c:	4659      	mov	r1, fp
10002b2e:	2020      	movs	r0, #32
10002b30:	47b8      	blx	r7
10002b32:	0023      	movs	r3, r4
10002b34:	0032      	movs	r2, r6
10002b36:	1c5c      	adds	r4, r3, #1
10002b38:	429d      	cmp	r5, r3
10002b3a:	d8f5      	bhi.n	10002b28 <_vsnprintf+0x474>
10002b3c:	003d      	movs	r5, r7
10002b3e:	0017      	movs	r7, r2
10002b40:	e7e0      	b.n	10002b04 <_vsnprintf+0x450>
10002b42:	2301      	movs	r3, #1
10002b44:	003a      	movs	r2, r7
10002b46:	002f      	movs	r7, r5
10002b48:	9d0a      	ldr	r5, [sp, #40]	; 0x28
10002b4a:	e7f4      	b.n	10002b36 <_vsnprintf+0x482>
10002b4c:	464a      	mov	r2, r9
10002b4e:	46a9      	mov	r9, r5
10002b50:	9d0a      	ldr	r5, [sp, #40]	; 0x28
10002b52:	e006      	b.n	10002b62 <_vsnprintf+0x4ae>
10002b54:	1c57      	adds	r7, r2, #1
10002b56:	4643      	mov	r3, r8
10002b58:	4659      	mov	r1, fp
10002b5a:	2020      	movs	r0, #32
10002b5c:	47c8      	blx	r9
10002b5e:	0034      	movs	r4, r6
10002b60:	003a      	movs	r2, r7
10002b62:	1c66      	adds	r6, r4, #1
10002b64:	42a5      	cmp	r5, r4
10002b66:	d8f5      	bhi.n	10002b54 <_vsnprintf+0x4a0>
10002b68:	464d      	mov	r5, r9
10002b6a:	4691      	mov	r9, r2
10002b6c:	e7d7      	b.n	10002b1e <_vsnprintf+0x46a>
10002b6e:	9b1c      	ldr	r3, [sp, #112]	; 0x70
10002b70:	1d1a      	adds	r2, r3, #4
10002b72:	921c      	str	r2, [sp, #112]	; 0x70
10002b74:	681b      	ldr	r3, [r3, #0]
10002b76:	4699      	mov	r9, r3
10002b78:	4653      	mov	r3, sl
10002b7a:	2b00      	cmp	r3, #0
10002b7c:	d100      	bne.n	10002b80 <_vsnprintf+0x4cc>
10002b7e:	3b01      	subs	r3, #1
10002b80:	464e      	mov	r6, r9
10002b82:	e001      	b.n	10002b88 <_vsnprintf+0x4d4>
10002b84:	3601      	adds	r6, #1
10002b86:	0013      	movs	r3, r2
10002b88:	7832      	ldrb	r2, [r6, #0]
10002b8a:	2a00      	cmp	r2, #0
10002b8c:	d002      	beq.n	10002b94 <_vsnprintf+0x4e0>
10002b8e:	1e5a      	subs	r2, r3, #1
10002b90:	2b00      	cmp	r3, #0
10002b92:	d1f7      	bne.n	10002b84 <_vsnprintf+0x4d0>
10002b94:	464b      	mov	r3, r9
10002b96:	1af2      	subs	r2, r6, r3
10002b98:	9210      	str	r2, [sp, #64]	; 0x40
10002b9a:	2380      	movs	r3, #128	; 0x80
10002b9c:	00db      	lsls	r3, r3, #3
10002b9e:	0026      	movs	r6, r4
10002ba0:	401e      	ands	r6, r3
10002ba2:	421c      	tst	r4, r3
10002ba4:	d003      	beq.n	10002bae <_vsnprintf+0x4fa>
10002ba6:	4552      	cmp	r2, sl
10002ba8:	d901      	bls.n	10002bae <_vsnprintf+0x4fa>
10002baa:	4653      	mov	r3, sl
10002bac:	9310      	str	r3, [sp, #64]	; 0x40
10002bae:	2302      	movs	r3, #2
10002bb0:	001a      	movs	r2, r3
10002bb2:	4022      	ands	r2, r4
10002bb4:	920b      	str	r2, [sp, #44]	; 0x2c
10002bb6:	4223      	tst	r3, r4
10002bb8:	d005      	beq.n	10002bc6 <_vsnprintf+0x512>
10002bba:	003a      	movs	r2, r7
10002bbc:	0037      	movs	r7, r6
10002bbe:	464c      	mov	r4, r9
10002bc0:	46a9      	mov	r9, r5
10002bc2:	4655      	mov	r5, sl
10002bc4:	e020      	b.n	10002c08 <_vsnprintf+0x554>
10002bc6:	003a      	movs	r2, r7
10002bc8:	9b10      	ldr	r3, [sp, #64]	; 0x40
10002bca:	465f      	mov	r7, fp
10002bcc:	46b3      	mov	fp, r6
10002bce:	002e      	movs	r6, r5
10002bd0:	e006      	b.n	10002be0 <_vsnprintf+0x52c>
10002bd2:	1c55      	adds	r5, r2, #1
10002bd4:	4643      	mov	r3, r8
10002bd6:	0039      	movs	r1, r7
10002bd8:	2020      	movs	r0, #32
10002bda:	47b0      	blx	r6
10002bdc:	0023      	movs	r3, r4
10002bde:	002a      	movs	r2, r5
10002be0:	1c5c      	adds	r4, r3, #1
10002be2:	990a      	ldr	r1, [sp, #40]	; 0x28
10002be4:	4299      	cmp	r1, r3
10002be6:	d8f4      	bhi.n	10002bd2 <_vsnprintf+0x51e>
10002be8:	0035      	movs	r5, r6
10002bea:	465e      	mov	r6, fp
10002bec:	46bb      	mov	fp, r7
10002bee:	9410      	str	r4, [sp, #64]	; 0x40
10002bf0:	0037      	movs	r7, r6
10002bf2:	464c      	mov	r4, r9
10002bf4:	46a9      	mov	r9, r5
10002bf6:	4655      	mov	r5, sl
10002bf8:	e006      	b.n	10002c08 <_vsnprintf+0x554>
10002bfa:	001d      	movs	r5, r3
10002bfc:	3401      	adds	r4, #1
10002bfe:	1c56      	adds	r6, r2, #1
10002c00:	4643      	mov	r3, r8
10002c02:	4659      	mov	r1, fp
10002c04:	47c8      	blx	r9
10002c06:	0032      	movs	r2, r6
10002c08:	7820      	ldrb	r0, [r4, #0]
10002c0a:	2800      	cmp	r0, #0
10002c0c:	d004      	beq.n	10002c18 <_vsnprintf+0x564>
10002c0e:	2f00      	cmp	r7, #0
10002c10:	d0f4      	beq.n	10002bfc <_vsnprintf+0x548>
10002c12:	1e6b      	subs	r3, r5, #1
10002c14:	2d00      	cmp	r5, #0
10002c16:	d1f0      	bne.n	10002bfa <_vsnprintf+0x546>
10002c18:	0017      	movs	r7, r2
10002c1a:	464d      	mov	r5, r9
10002c1c:	9b0b      	ldr	r3, [sp, #44]	; 0x2c
10002c1e:	2b00      	cmp	r3, #0
10002c20:	d103      	bne.n	10002c2a <_vsnprintf+0x576>
10002c22:	9b11      	ldr	r3, [sp, #68]	; 0x44
10002c24:	3301      	adds	r3, #1
10002c26:	9311      	str	r3, [sp, #68]	; 0x44
10002c28:	e554      	b.n	100026d4 <_vsnprintf+0x20>
10002c2a:	9f0a      	ldr	r7, [sp, #40]	; 0x28
10002c2c:	9b10      	ldr	r3, [sp, #64]	; 0x40
10002c2e:	e006      	b.n	10002c3e <_vsnprintf+0x58a>
10002c30:	1c56      	adds	r6, r2, #1
10002c32:	4643      	mov	r3, r8
10002c34:	4659      	mov	r1, fp
10002c36:	2020      	movs	r0, #32
10002c38:	47a8      	blx	r5
10002c3a:	0023      	movs	r3, r4
10002c3c:	0032      	movs	r2, r6
10002c3e:	1c5c      	adds	r4, r3, #1
10002c40:	429f      	cmp	r7, r3
10002c42:	d8f5      	bhi.n	10002c30 <_vsnprintf+0x57c>
10002c44:	0017      	movs	r7, r2
10002c46:	e7ec      	b.n	10002c22 <_vsnprintf+0x56e>
10002c48:	2321      	movs	r3, #33	; 0x21
10002c4a:	431c      	orrs	r4, r3
10002c4c:	9b1c      	ldr	r3, [sp, #112]	; 0x70
10002c4e:	1d1a      	adds	r2, r3, #4
10002c50:	921c      	str	r2, [sp, #112]	; 0x70
10002c52:	681b      	ldr	r3, [r3, #0]
10002c54:	9300      	str	r3, [sp, #0]
10002c56:	9405      	str	r4, [sp, #20]
10002c58:	2308      	movs	r3, #8
10002c5a:	9304      	str	r3, [sp, #16]
10002c5c:	4653      	mov	r3, sl
10002c5e:	9303      	str	r3, [sp, #12]
10002c60:	2310      	movs	r3, #16
10002c62:	9302      	str	r3, [sp, #8]
10002c64:	2300      	movs	r3, #0
10002c66:	9301      	str	r3, [sp, #4]
10002c68:	4643      	mov	r3, r8
10002c6a:	003a      	movs	r2, r7
10002c6c:	4659      	mov	r1, fp
10002c6e:	0028      	movs	r0, r5
10002c70:	f7ff f89c 	bl	10001dac <_ntoa_long>
10002c74:	0007      	movs	r7, r0
10002c76:	9b11      	ldr	r3, [sp, #68]	; 0x44
10002c78:	3301      	adds	r3, #1
10002c7a:	9311      	str	r3, [sp, #68]	; 0x44
10002c7c:	e52a      	b.n	100026d4 <_vsnprintf+0x20>
10002c7e:	1c7c      	adds	r4, r7, #1
10002c80:	4643      	mov	r3, r8
10002c82:	003a      	movs	r2, r7
10002c84:	4659      	mov	r1, fp
10002c86:	2025      	movs	r0, #37	; 0x25
10002c88:	47a8      	blx	r5
10002c8a:	9b11      	ldr	r3, [sp, #68]	; 0x44
10002c8c:	3301      	adds	r3, #1
10002c8e:	9311      	str	r3, [sp, #68]	; 0x44
10002c90:	0027      	movs	r7, r4
10002c92:	e51f      	b.n	100026d4 <_vsnprintf+0x20>
10002c94:	1c7c      	adds	r4, r7, #1
10002c96:	4643      	mov	r3, r8
10002c98:	003a      	movs	r2, r7
10002c9a:	4659      	mov	r1, fp
10002c9c:	47a8      	blx	r5
10002c9e:	9b11      	ldr	r3, [sp, #68]	; 0x44
10002ca0:	3301      	adds	r3, #1
10002ca2:	9311      	str	r3, [sp, #68]	; 0x44
10002ca4:	0027      	movs	r7, r4
10002ca6:	e515      	b.n	100026d4 <_vsnprintf+0x20>
10002ca8:	4b0a      	ldr	r3, [pc, #40]	; (10002cd4 <_vsnprintf+0x620>)
10002caa:	469a      	mov	sl, r3
10002cac:	e510      	b.n	100026d0 <_vsnprintf+0x1c>
10002cae:	46aa      	mov	sl, r5
10002cb0:	4547      	cmp	r7, r8
10002cb2:	d302      	bcc.n	10002cba <_vsnprintf+0x606>
10002cb4:	4643      	mov	r3, r8
10002cb6:	1e5a      	subs	r2, r3, #1
10002cb8:	e000      	b.n	10002cbc <_vsnprintf+0x608>
10002cba:	003a      	movs	r2, r7
10002cbc:	4643      	mov	r3, r8
10002cbe:	4659      	mov	r1, fp
10002cc0:	2000      	movs	r0, #0
10002cc2:	47d0      	blx	sl
10002cc4:	0038      	movs	r0, r7
10002cc6:	b013      	add	sp, #76	; 0x4c
10002cc8:	bcf0      	pop	{r4, r5, r6, r7}
10002cca:	46bb      	mov	fp, r7
10002ccc:	46b2      	mov	sl, r6
10002cce:	46a9      	mov	r9, r5
10002cd0:	46a0      	mov	r8, r4
10002cd2:	bdf0      	pop	{r4, r5, r6, r7, pc}
10002cd4:	10001bb9 	.word	0x10001bb9

10002cd8 <vfctprintf>:
10002cd8:	b500      	push	{lr}
10002cda:	b085      	sub	sp, #20
10002cdc:	9002      	str	r0, [sp, #8]
10002cde:	9103      	str	r1, [sp, #12]
10002ce0:	2101      	movs	r1, #1
10002ce2:	9300      	str	r3, [sp, #0]
10002ce4:	0013      	movs	r3, r2
10002ce6:	424a      	negs	r2, r1
10002ce8:	a902      	add	r1, sp, #8
10002cea:	4802      	ldr	r0, [pc, #8]	; (10002cf4 <vfctprintf+0x1c>)
10002cec:	f7ff fce2 	bl	100026b4 <_vsnprintf>
10002cf0:	b005      	add	sp, #20
10002cf2:	bd00      	pop	{pc}
10002cf4:	10001bbb 	.word	0x10001bbb

10002cf8 <__aeabi_bits_init>:
10002cf8:	4801      	ldr	r0, [pc, #4]	; (10002d00 <__aeabi_bits_init+0x8>)
10002cfa:	2104      	movs	r1, #4
10002cfc:	4b01      	ldr	r3, [pc, #4]	; (10002d04 <__aeabi_bits_init+0xc>)
10002cfe:	4718      	bx	r3
10002d00:	20000230 	.word	0x20000230
10002d04:	10002d29 	.word	0x10002d29

10002d08 <rom_func_lookup>:
10002d08:	b510      	push	{r4, lr}
10002d0a:	0001      	movs	r1, r0
10002d0c:	2318      	movs	r3, #24
10002d0e:	881b      	ldrh	r3, [r3, #0]
10002d10:	2214      	movs	r2, #20
10002d12:	8810      	ldrh	r0, [r2, #0]
10002d14:	4798      	blx	r3
10002d16:	bd10      	pop	{r4, pc}

10002d18 <rom_data_lookup>:
10002d18:	b510      	push	{r4, lr}
10002d1a:	0001      	movs	r1, r0
10002d1c:	2318      	movs	r3, #24
10002d1e:	881b      	ldrh	r3, [r3, #0]
10002d20:	2216      	movs	r2, #22
10002d22:	8810      	ldrh	r0, [r2, #0]
10002d24:	4798      	blx	r3
10002d26:	bd10      	pop	{r4, pc}

10002d28 <rom_funcs_lookup>:
10002d28:	b5f0      	push	{r4, r5, r6, r7, lr}
10002d2a:	46c6      	mov	lr, r8
10002d2c:	b500      	push	{lr}
10002d2e:	0007      	movs	r7, r0
10002d30:	000e      	movs	r6, r1
10002d32:	2500      	movs	r5, #0
10002d34:	2301      	movs	r3, #1
10002d36:	4698      	mov	r8, r3
10002d38:	e000      	b.n	10002d3c <rom_funcs_lookup+0x14>
10002d3a:	3501      	adds	r5, #1
10002d3c:	42b5      	cmp	r5, r6
10002d3e:	d20a      	bcs.n	10002d56 <rom_funcs_lookup+0x2e>
10002d40:	00ac      	lsls	r4, r5, #2
10002d42:	193c      	adds	r4, r7, r4
10002d44:	6820      	ldr	r0, [r4, #0]
10002d46:	f7ff ffdf 	bl	10002d08 <rom_func_lookup>
10002d4a:	6020      	str	r0, [r4, #0]
10002d4c:	2800      	cmp	r0, #0
10002d4e:	d1f4      	bne.n	10002d3a <rom_funcs_lookup+0x12>
10002d50:	2300      	movs	r3, #0
10002d52:	4698      	mov	r8, r3
10002d54:	e7f1      	b.n	10002d3a <rom_funcs_lookup+0x12>
10002d56:	4640      	mov	r0, r8
10002d58:	bc80      	pop	{r7}
10002d5a:	46b8      	mov	r8, r7
10002d5c:	bdf0      	pop	{r4, r5, r6, r7, pc}
	...

10002d60 <__wrap___aeabi_idiv>:
10002d60:	4a12      	ldr	r2, [pc, #72]	; (10002dac <divmod_s32s32_savestate+0x18>)
10002d62:	6f93      	ldr	r3, [r2, #120]	; 0x78
10002d64:	089b      	lsrs	r3, r3, #2
10002d66:	d215      	bcs.n	10002d94 <divmod_s32s32_savestate>

10002d68 <divmod_s32s32_unsafe>:
10002d68:	6690      	str	r0, [r2, #104]	; 0x68
10002d6a:	66d1      	str	r1, [r2, #108]	; 0x6c
10002d6c:	2900      	cmp	r1, #0
10002d6e:	d005      	beq.n	10002d7c <divmod_s32s32_unsafe+0x14>
10002d70:	e7ff      	b.n	10002d72 <divmod_s32s32_unsafe+0xa>
10002d72:	e7ff      	b.n	10002d74 <divmod_s32s32_unsafe+0xc>
10002d74:	e7ff      	b.n	10002d76 <divmod_s32s32_unsafe+0xe>
10002d76:	6f51      	ldr	r1, [r2, #116]	; 0x74
10002d78:	6f10      	ldr	r0, [r2, #112]	; 0x70
10002d7a:	4770      	bx	lr
10002d7c:	b504      	push	{r2, lr}
10002d7e:	2180      	movs	r1, #128	; 0x80
10002d80:	0609      	lsls	r1, r1, #24
10002d82:	17c2      	asrs	r2, r0, #31
10002d84:	4051      	eors	r1, r2
10002d86:	2800      	cmp	r0, #0
10002d88:	d000      	beq.n	10002d8c <divmod_s32s32_unsafe+0x24>
10002d8a:	43c8      	mvns	r0, r1
10002d8c:	f003 fea0 	bl	10006ad0 <____aeabi_idiv0_veneer>
10002d90:	2100      	movs	r1, #0
10002d92:	bd04      	pop	{r2, pc}

10002d94 <divmod_s32s32_savestate>:
10002d94:	b5f0      	push	{r4, r5, r6, r7, lr}
10002d96:	6e14      	ldr	r4, [r2, #96]	; 0x60
10002d98:	6e55      	ldr	r5, [r2, #100]	; 0x64
10002d9a:	6f57      	ldr	r7, [r2, #116]	; 0x74
10002d9c:	6f16      	ldr	r6, [r2, #112]	; 0x70
10002d9e:	f7ff ffe3 	bl	10002d68 <divmod_s32s32_unsafe>
10002da2:	6614      	str	r4, [r2, #96]	; 0x60
10002da4:	6655      	str	r5, [r2, #100]	; 0x64
10002da6:	6757      	str	r7, [r2, #116]	; 0x74
10002da8:	6716      	str	r6, [r2, #112]	; 0x70
10002daa:	bdf0      	pop	{r4, r5, r6, r7, pc}
10002dac:	d0000000 	.word	0xd0000000

10002db0 <__wrap___aeabi_uidiv>:
10002db0:	4a11      	ldr	r2, [pc, #68]	; (10002df8 <divmod_u32u32_savestate+0x18>)
10002db2:	6f93      	ldr	r3, [r2, #120]	; 0x78
10002db4:	089b      	lsrs	r3, r3, #2
10002db6:	d213      	bcs.n	10002de0 <divmod_u32u32_savestate>

10002db8 <divmod_u32u32_unsafe>:
10002db8:	6610      	str	r0, [r2, #96]	; 0x60
10002dba:	6651      	str	r1, [r2, #100]	; 0x64
10002dbc:	2900      	cmp	r1, #0
10002dbe:	d005      	beq.n	10002dcc <divmod_u32u32_unsafe+0x14>
10002dc0:	e7ff      	b.n	10002dc2 <divmod_u32u32_unsafe+0xa>
10002dc2:	e7ff      	b.n	10002dc4 <divmod_u32u32_unsafe+0xc>
10002dc4:	e7ff      	b.n	10002dc6 <divmod_u32u32_unsafe+0xe>
10002dc6:	6f51      	ldr	r1, [r2, #116]	; 0x74
10002dc8:	6f10      	ldr	r0, [r2, #112]	; 0x70
10002dca:	4770      	bx	lr
10002dcc:	b504      	push	{r2, lr}
10002dce:	2800      	cmp	r0, #0
10002dd0:	d001      	beq.n	10002dd6 <divmod_u32u32_unsafe+0x1e>
10002dd2:	2000      	movs	r0, #0
10002dd4:	43c0      	mvns	r0, r0
10002dd6:	f003 fe7b 	bl	10006ad0 <____aeabi_idiv0_veneer>
10002dda:	2100      	movs	r1, #0
10002ddc:	bd04      	pop	{r2, pc}
10002dde:	46c0      	nop			; (mov r8, r8)

10002de0 <divmod_u32u32_savestate>:
10002de0:	b5f0      	push	{r4, r5, r6, r7, lr}
10002de2:	6e14      	ldr	r4, [r2, #96]	; 0x60
10002de4:	6e55      	ldr	r5, [r2, #100]	; 0x64
10002de6:	6f57      	ldr	r7, [r2, #116]	; 0x74
10002de8:	6f16      	ldr	r6, [r2, #112]	; 0x70
10002dea:	f7ff ffe5 	bl	10002db8 <divmod_u32u32_unsafe>
10002dee:	6614      	str	r4, [r2, #96]	; 0x60
10002df0:	6655      	str	r5, [r2, #100]	; 0x64
10002df2:	6757      	str	r7, [r2, #116]	; 0x74
10002df4:	6716      	str	r6, [r2, #112]	; 0x70
10002df6:	bdf0      	pop	{r4, r5, r6, r7, pc}
10002df8:	d0000000 	.word	0xd0000000

10002dfc <__wrap___aeabi_ldivmod>:
10002dfc:	4694      	mov	ip, r2
10002dfe:	4a4e      	ldr	r2, [pc, #312]	; (10002f38 <udiv0+0x1a>)
10002e00:	6f92      	ldr	r2, [r2, #120]	; 0x78
10002e02:	0892      	lsrs	r2, r2, #2
10002e04:	4662      	mov	r2, ip
10002e06:	d201      	bcs.n	10002e0c <divmod_s64s64_savestate>
10002e08:	e030      	b.n	10002e6c <divmod_s64s64_unsafe>
10002e0a:	46c0      	nop			; (mov r8, r8)

10002e0c <divmod_s64s64_savestate>:
10002e0c:	b5f0      	push	{r4, r5, r6, r7, lr}
10002e0e:	4e4a      	ldr	r6, [pc, #296]	; (10002f38 <udiv0+0x1a>)
10002e10:	6fb5      	ldr	r5, [r6, #120]	; 0x78
10002e12:	086d      	lsrs	r5, r5, #1
10002e14:	d3fc      	bcc.n	10002e10 <divmod_s64s64_savestate+0x4>
10002e16:	6e34      	ldr	r4, [r6, #96]	; 0x60
10002e18:	6e75      	ldr	r5, [r6, #100]	; 0x64
10002e1a:	6f77      	ldr	r7, [r6, #116]	; 0x74
10002e1c:	6f36      	ldr	r6, [r6, #112]	; 0x70
10002e1e:	f000 f825 	bl	10002e6c <divmod_s64s64_unsafe>
10002e22:	4694      	mov	ip, r2
10002e24:	4a44      	ldr	r2, [pc, #272]	; (10002f38 <udiv0+0x1a>)
10002e26:	6614      	str	r4, [r2, #96]	; 0x60
10002e28:	6655      	str	r5, [r2, #100]	; 0x64
10002e2a:	6757      	str	r7, [r2, #116]	; 0x74
10002e2c:	6716      	str	r6, [r2, #112]	; 0x70
10002e2e:	4662      	mov	r2, ip
10002e30:	bdf0      	pop	{r4, r5, r6, r7, pc}
10002e32:	46c0      	nop			; (mov r8, r8)

10002e34 <__wrap___aeabi_uldivmod>:
10002e34:	4694      	mov	ip, r2
10002e36:	4a40      	ldr	r2, [pc, #256]	; (10002f38 <udiv0+0x1a>)
10002e38:	6f92      	ldr	r2, [r2, #120]	; 0x78
10002e3a:	0892      	lsrs	r2, r2, #2
10002e3c:	4662      	mov	r2, ip
10002e3e:	d201      	bcs.n	10002e44 <divmod_u64u64_savestate>
10002e40:	e058      	b.n	10002ef4 <divmod_u64u64_unsafe>
10002e42:	46c0      	nop			; (mov r8, r8)

10002e44 <divmod_u64u64_savestate>:
10002e44:	b5f0      	push	{r4, r5, r6, r7, lr}
10002e46:	4e3c      	ldr	r6, [pc, #240]	; (10002f38 <udiv0+0x1a>)
10002e48:	6fb5      	ldr	r5, [r6, #120]	; 0x78
10002e4a:	086d      	lsrs	r5, r5, #1
10002e4c:	d3fc      	bcc.n	10002e48 <divmod_u64u64_savestate+0x4>
10002e4e:	6e34      	ldr	r4, [r6, #96]	; 0x60
10002e50:	6e75      	ldr	r5, [r6, #100]	; 0x64
10002e52:	6f77      	ldr	r7, [r6, #116]	; 0x74
10002e54:	6f36      	ldr	r6, [r6, #112]	; 0x70
10002e56:	f000 f84d 	bl	10002ef4 <divmod_u64u64_unsafe>
10002e5a:	4694      	mov	ip, r2
10002e5c:	4a36      	ldr	r2, [pc, #216]	; (10002f38 <udiv0+0x1a>)
10002e5e:	6614      	str	r4, [r2, #96]	; 0x60
10002e60:	6655      	str	r5, [r2, #100]	; 0x64
10002e62:	6757      	str	r7, [r2, #116]	; 0x74
10002e64:	6716      	str	r6, [r2, #112]	; 0x70
10002e66:	4662      	mov	r2, ip
10002e68:	bdf0      	pop	{r4, r5, r6, r7, pc}
10002e6a:	46c0      	nop			; (mov r8, r8)

10002e6c <divmod_s64s64_unsafe>:
10002e6c:	2b00      	cmp	r3, #0
10002e6e:	db24      	blt.n	10002eba <l41_1+0x26>
10002e70:	d011      	beq.n	10002e96 <l41_1+0x2>
10002e72:	2900      	cmp	r1, #0
10002e74:	da3e      	bge.n	10002ef4 <divmod_u64u64_unsafe>
10002e76:	b500      	push	{lr}
10002e78:	43c9      	mvns	r1, r1
10002e7a:	4240      	negs	r0, r0
10002e7c:	d100      	bne.n	10002e80 <l39_1>
10002e7e:	3101      	adds	r1, #1

10002e80 <l39_1>:
10002e80:	f000 f838 	bl	10002ef4 <divmod_u64u64_unsafe>
10002e84:	43c9      	mvns	r1, r1
10002e86:	4240      	negs	r0, r0
10002e88:	d100      	bne.n	10002e8c <l40_1>
10002e8a:	3101      	adds	r1, #1

10002e8c <l40_1>:
10002e8c:	43db      	mvns	r3, r3
10002e8e:	4252      	negs	r2, r2
10002e90:	d100      	bne.n	10002e94 <l41_1>
10002e92:	3301      	adds	r3, #1

10002e94 <l41_1>:
10002e94:	bd00      	pop	{pc}
10002e96:	2a00      	cmp	r2, #0
10002e98:	d1eb      	bne.n	10002e72 <divmod_s64s64_unsafe+0x6>
10002e9a:	2800      	cmp	r0, #0
10002e9c:	d101      	bne.n	10002ea2 <l41_1+0xe>
10002e9e:	2900      	cmp	r1, #0
10002ea0:	d005      	beq.n	10002eae <l41_1+0x1a>
10002ea2:	2000      	movs	r0, #0
10002ea4:	0fc9      	lsrs	r1, r1, #31
10002ea6:	07c9      	lsls	r1, r1, #31
10002ea8:	d101      	bne.n	10002eae <l41_1+0x1a>
10002eaa:	43c0      	mvns	r0, r0
10002eac:	0841      	lsrs	r1, r0, #1
10002eae:	b500      	push	{lr}
10002eb0:	f003 fe06 	bl	10006ac0 <____aeabi_ldiv0_veneer>
10002eb4:	2200      	movs	r2, #0
10002eb6:	2300      	movs	r3, #0
10002eb8:	bd00      	pop	{pc}
10002eba:	b500      	push	{lr}
10002ebc:	2900      	cmp	r1, #0
10002ebe:	db0a      	blt.n	10002ed6 <l43_1+0x2>
10002ec0:	43db      	mvns	r3, r3
10002ec2:	4252      	negs	r2, r2
10002ec4:	d100      	bne.n	10002ec8 <l42_1>
10002ec6:	3301      	adds	r3, #1

10002ec8 <l42_1>:
10002ec8:	f000 f814 	bl	10002ef4 <divmod_u64u64_unsafe>
10002ecc:	43c9      	mvns	r1, r1
10002ece:	4240      	negs	r0, r0
10002ed0:	d100      	bne.n	10002ed4 <l43_1>
10002ed2:	3101      	adds	r1, #1

10002ed4 <l43_1>:
10002ed4:	bd00      	pop	{pc}
10002ed6:	43c9      	mvns	r1, r1
10002ed8:	4240      	negs	r0, r0
10002eda:	d100      	bne.n	10002ede <l44_1>
10002edc:	3101      	adds	r1, #1

10002ede <l44_1>:
10002ede:	43db      	mvns	r3, r3
10002ee0:	4252      	negs	r2, r2
10002ee2:	d100      	bne.n	10002ee6 <l45_1>
10002ee4:	3301      	adds	r3, #1

10002ee6 <l45_1>:
10002ee6:	f000 f805 	bl	10002ef4 <divmod_u64u64_unsafe>
10002eea:	43db      	mvns	r3, r3
10002eec:	4252      	negs	r2, r2
10002eee:	d100      	bne.n	10002ef2 <l46_1>
10002ef0:	3301      	adds	r3, #1

10002ef2 <l46_1>:
10002ef2:	bd00      	pop	{pc}

10002ef4 <divmod_u64u64_unsafe>:
10002ef4:	2900      	cmp	r1, #0
10002ef6:	d123      	bne.n	10002f40 <y64>
10002ef8:	2b00      	cmp	r3, #0
10002efa:	d118      	bne.n	10002f2e <udiv0+0x10>
10002efc:	2a00      	cmp	r2, #0
10002efe:	d00c      	beq.n	10002f1a <divmod_u64u64_unsafe+0x26>
10002f00:	46bc      	mov	ip, r7
10002f02:	4f0d      	ldr	r7, [pc, #52]	; (10002f38 <udiv0+0x1a>)
10002f04:	6638      	str	r0, [r7, #96]	; 0x60
10002f06:	667a      	str	r2, [r7, #100]	; 0x64
10002f08:	2100      	movs	r1, #0
10002f0a:	2300      	movs	r3, #0
10002f0c:	e7ff      	b.n	10002f0e <divmod_u64u64_unsafe+0x1a>
10002f0e:	e7ff      	b.n	10002f10 <divmod_u64u64_unsafe+0x1c>
10002f10:	e7ff      	b.n	10002f12 <divmod_u64u64_unsafe+0x1e>
10002f12:	6f7a      	ldr	r2, [r7, #116]	; 0x74
10002f14:	6f38      	ldr	r0, [r7, #112]	; 0x70
10002f16:	4667      	mov	r7, ip
10002f18:	4770      	bx	lr
10002f1a:	2800      	cmp	r0, #0
10002f1c:	d001      	beq.n	10002f22 <udiv0+0x4>

10002f1e <udiv0>:
10002f1e:	4807      	ldr	r0, [pc, #28]	; (10002f3c <udiv0+0x1e>)
10002f20:	0001      	movs	r1, r0
10002f22:	b500      	push	{lr}
10002f24:	f003 fdcc 	bl	10006ac0 <____aeabi_ldiv0_veneer>
10002f28:	2200      	movs	r2, #0
10002f2a:	2300      	movs	r3, #0
10002f2c:	bd00      	pop	{pc}
10002f2e:	0002      	movs	r2, r0
10002f30:	000b      	movs	r3, r1
10002f32:	2000      	movs	r0, #0
10002f34:	2100      	movs	r1, #0
10002f36:	4770      	bx	lr
10002f38:	d0000000 	.word	0xd0000000
10002f3c:	ffffffff 	.word	0xffffffff

10002f40 <y64>:
10002f40:	2b00      	cmp	r3, #0
10002f42:	d000      	beq.n	10002f46 <y64+0x6>
10002f44:	e0bf      	b.n	100030c6 <y64_x48>
10002f46:	0c13      	lsrs	r3, r2, #16
10002f48:	d128      	bne.n	10002f9c <y64_x32>
10002f4a:	2a00      	cmp	r2, #0
10002f4c:	d0e7      	beq.n	10002f1e <udiv0>
10002f4e:	b480      	push	{r7}
10002f50:	4f11      	ldr	r7, [pc, #68]	; (10002f98 <y64+0x58>)
10002f52:	6639      	str	r1, [r7, #96]	; 0x60
10002f54:	667a      	str	r2, [r7, #100]	; 0x64
10002f56:	e7ff      	b.n	10002f58 <y64+0x18>
10002f58:	e7ff      	b.n	10002f5a <y64+0x1a>
10002f5a:	b430      	push	{r4, r5}
10002f5c:	0c04      	lsrs	r4, r0, #16
10002f5e:	6f7b      	ldr	r3, [r7, #116]	; 0x74
10002f60:	6f39      	ldr	r1, [r7, #112]	; 0x70
10002f62:	041b      	lsls	r3, r3, #16
10002f64:	4323      	orrs	r3, r4
10002f66:	663b      	str	r3, [r7, #96]	; 0x60
10002f68:	667a      	str	r2, [r7, #100]	; 0x64
10002f6a:	e7ff      	b.n	10002f6c <y64+0x2c>
10002f6c:	e7ff      	b.n	10002f6e <y64+0x2e>
10002f6e:	e7ff      	b.n	10002f70 <y64+0x30>
10002f70:	46c0      	nop			; (mov r8, r8)
10002f72:	b284      	uxth	r4, r0
10002f74:	6f7b      	ldr	r3, [r7, #116]	; 0x74
10002f76:	6f3d      	ldr	r5, [r7, #112]	; 0x70
10002f78:	041b      	lsls	r3, r3, #16
10002f7a:	4323      	orrs	r3, r4
10002f7c:	663b      	str	r3, [r7, #96]	; 0x60
10002f7e:	667a      	str	r2, [r7, #100]	; 0x64
10002f80:	e7ff      	b.n	10002f82 <y64+0x42>
10002f82:	e7ff      	b.n	10002f84 <y64+0x44>
10002f84:	46c0      	nop			; (mov r8, r8)
10002f86:	2300      	movs	r3, #0
10002f88:	042c      	lsls	r4, r5, #16
10002f8a:	0c2d      	lsrs	r5, r5, #16
10002f8c:	6f7a      	ldr	r2, [r7, #116]	; 0x74
10002f8e:	6f38      	ldr	r0, [r7, #112]	; 0x70
10002f90:	1900      	adds	r0, r0, r4
10002f92:	4169      	adcs	r1, r5
10002f94:	bcb0      	pop	{r4, r5, r7}
10002f96:	4770      	bx	lr
10002f98:	d0000000 	.word	0xd0000000

10002f9c <y64_x32>:
10002f9c:	b5f0      	push	{r4, r5, r6, r7, lr}
10002f9e:	4694      	mov	ip, r2
10002fa0:	2500      	movs	r5, #0
10002fa2:	0e14      	lsrs	r4, r2, #24
10002fa4:	d101      	bne.n	10002faa <y64_x32+0xe>
10002fa6:	0212      	lsls	r2, r2, #8
10002fa8:	3508      	adds	r5, #8
10002faa:	0f14      	lsrs	r4, r2, #28
10002fac:	d101      	bne.n	10002fb2 <y64_x32+0x16>
10002fae:	0112      	lsls	r2, r2, #4
10002fb0:	3504      	adds	r5, #4
10002fb2:	0f94      	lsrs	r4, r2, #30
10002fb4:	d101      	bne.n	10002fba <y64_x32+0x1e>
10002fb6:	0092      	lsls	r2, r2, #2
10002fb8:	3502      	adds	r5, #2
10002fba:	0fd4      	lsrs	r4, r2, #31
10002fbc:	d101      	bne.n	10002fc2 <y64_x32+0x26>
10002fbe:	0052      	lsls	r2, r2, #1
10002fc0:	3501      	adds	r5, #1
10002fc2:	0bd4      	lsrs	r4, r2, #15
10002fc4:	3401      	adds	r4, #1
10002fc6:	4f25      	ldr	r7, [pc, #148]	; (1000305c <y64_x32+0xc0>)
10002fc8:	667c      	str	r4, [r7, #100]	; 0x64
10002fca:	4c25      	ldr	r4, [pc, #148]	; (10003060 <y64_x32+0xc4>)
10002fcc:	663c      	str	r4, [r7, #96]	; 0x60
10002fce:	0c0e      	lsrs	r6, r1, #16
10002fd0:	b293      	uxth	r3, r2
10002fd2:	e7ff      	b.n	10002fd4 <y64_x32+0x38>
10002fd4:	e7ff      	b.n	10002fd6 <y64_x32+0x3a>
10002fd6:	e7ff      	b.n	10002fd8 <y64_x32+0x3c>
10002fd8:	6f3c      	ldr	r4, [r7, #112]	; 0x70
10002fda:	4366      	muls	r6, r4
10002fdc:	0c36      	lsrs	r6, r6, #16
10002fde:	0377      	lsls	r7, r6, #13
10002fe0:	46be      	mov	lr, r7
10002fe2:	4373      	muls	r3, r6
10002fe4:	0bdf      	lsrs	r7, r3, #15
10002fe6:	045b      	lsls	r3, r3, #17
10002fe8:	1ac0      	subs	r0, r0, r3
10002fea:	41b9      	sbcs	r1, r7
10002fec:	0c13      	lsrs	r3, r2, #16
10002fee:	4373      	muls	r3, r6
10002ff0:	18db      	adds	r3, r3, r3
10002ff2:	1ac9      	subs	r1, r1, r3
10002ff4:	08ce      	lsrs	r6, r1, #3
10002ff6:	4366      	muls	r6, r4
10002ff8:	0c36      	lsrs	r6, r6, #16
10002ffa:	44b6      	add	lr, r6
10002ffc:	b293      	uxth	r3, r2
10002ffe:	4373      	muls	r3, r6
10003000:	0f1f      	lsrs	r7, r3, #28
10003002:	011b      	lsls	r3, r3, #4
10003004:	1ac0      	subs	r0, r0, r3
10003006:	41b9      	sbcs	r1, r7
10003008:	0c13      	lsrs	r3, r2, #16
1000300a:	4373      	muls	r3, r6
1000300c:	0b1f      	lsrs	r7, r3, #12
1000300e:	051b      	lsls	r3, r3, #20
10003010:	1ac0      	subs	r0, r0, r3
10003012:	41b9      	sbcs	r1, r7
10003014:	0d86      	lsrs	r6, r0, #22
10003016:	028f      	lsls	r7, r1, #10
10003018:	433e      	orrs	r6, r7
1000301a:	4366      	muls	r6, r4
1000301c:	0c36      	lsrs	r6, r6, #16
1000301e:	2d09      	cmp	r5, #9
10003020:	db24      	blt.n	1000306c <last0>
10003022:	0a52      	lsrs	r2, r2, #9
10003024:	4372      	muls	r2, r6
10003026:	1a80      	subs	r0, r0, r2
10003028:	0377      	lsls	r7, r6, #13
1000302a:	0a46      	lsrs	r6, r0, #9
1000302c:	4366      	muls	r6, r4
1000302e:	0c36      	lsrs	r6, r6, #16
10003030:	2316      	movs	r3, #22
10003032:	1b5b      	subs	r3, r3, r5
10003034:	40de      	lsrs	r6, r3
10003036:	40df      	lsrs	r7, r3
10003038:	19bf      	adds	r7, r7, r6
1000303a:	4664      	mov	r4, ip
1000303c:	4366      	muls	r6, r4
1000303e:	1b82      	subs	r2, r0, r6
10003040:	4670      	mov	r0, lr
10003042:	3504      	adds	r5, #4
10003044:	3306      	adds	r3, #6
10003046:	0001      	movs	r1, r0
10003048:	40d9      	lsrs	r1, r3
1000304a:	40a8      	lsls	r0, r5
1000304c:	19c0      	adds	r0, r0, r7
1000304e:	d300      	bcc.n	10003052 <y64_x32+0xb6>
10003050:	3101      	adds	r1, #1
10003052:	42a2      	cmp	r2, r4
10003054:	d206      	bcs.n	10003064 <y64_x32+0xc8>
10003056:	2300      	movs	r3, #0
10003058:	bdf0      	pop	{r4, r5, r6, r7, pc}
1000305a:	0000      	.short	0x0000
1000305c:	d0000000 	.word	0xd0000000
10003060:	ffffffff 	.word	0xffffffff
10003064:	1b12      	subs	r2, r2, r4
10003066:	3001      	adds	r0, #1
10003068:	d3f3      	bcc.n	10003052 <y64_x32+0xb6>
1000306a:	e7f1      	b.n	10003050 <y64_x32+0xb4>

1000306c <last0>:
1000306c:	2709      	movs	r7, #9
1000306e:	1b7f      	subs	r7, r7, r5
10003070:	40fe      	lsrs	r6, r7
10003072:	4664      	mov	r4, ip
10003074:	b2a2      	uxth	r2, r4
10003076:	4372      	muls	r2, r6
10003078:	1a80      	subs	r0, r0, r2
1000307a:	d200      	bcs.n	1000307e <last0+0x12>
1000307c:	3901      	subs	r1, #1
1000307e:	0c22      	lsrs	r2, r4, #16
10003080:	4372      	muls	r2, r6
10003082:	0c13      	lsrs	r3, r2, #16
10003084:	0412      	lsls	r2, r2, #16
10003086:	1a82      	subs	r2, r0, r2
10003088:	4199      	sbcs	r1, r3
1000308a:	000b      	movs	r3, r1
1000308c:	4670      	mov	r0, lr
1000308e:	3504      	adds	r5, #4
10003090:	3713      	adds	r7, #19
10003092:	0001      	movs	r1, r0
10003094:	40f9      	lsrs	r1, r7
10003096:	40a8      	lsls	r0, r5
10003098:	1980      	adds	r0, r0, r6
1000309a:	d300      	bcc.n	1000309e <last0+0x32>
1000309c:	3101      	adds	r1, #1
1000309e:	2b00      	cmp	r3, #0
100030a0:	d102      	bne.n	100030a8 <last0+0x3c>
100030a2:	42a2      	cmp	r2, r4
100030a4:	d20a      	bcs.n	100030bc <last0+0x50>
100030a6:	bdf0      	pop	{r4, r5, r6, r7, pc}
100030a8:	3001      	adds	r0, #1
100030aa:	d300      	bcc.n	100030ae <last0+0x42>
100030ac:	3101      	adds	r1, #1
100030ae:	1b12      	subs	r2, r2, r4
100030b0:	d2fa      	bcs.n	100030a8 <last0+0x3c>
100030b2:	3b01      	subs	r3, #1
100030b4:	d1f8      	bne.n	100030a8 <last0+0x3c>
100030b6:	42a2      	cmp	r2, r4
100030b8:	d200      	bcs.n	100030bc <last0+0x50>
100030ba:	bdf0      	pop	{r4, r5, r6, r7, pc}
100030bc:	3001      	adds	r0, #1
100030be:	d300      	bcc.n	100030c2 <last0+0x56>
100030c0:	3101      	adds	r1, #1
100030c2:	1b12      	subs	r2, r2, r4
100030c4:	e7f7      	b.n	100030b6 <last0+0x4a>

100030c6 <y64_x48>:
100030c6:	b5f0      	push	{r4, r5, r6, r7, lr}
100030c8:	0c1c      	lsrs	r4, r3, #16
100030ca:	d000      	beq.n	100030ce <y64_x48+0x8>
100030cc:	e080      	b.n	100031d0 <y64_x64>
100030ce:	b40c      	push	{r2, r3}
100030d0:	2500      	movs	r5, #0
100030d2:	0a1c      	lsrs	r4, r3, #8
100030d4:	d104      	bne.n	100030e0 <y64_x48+0x1a>
100030d6:	021b      	lsls	r3, r3, #8
100030d8:	0e16      	lsrs	r6, r2, #24
100030da:	4333      	orrs	r3, r6
100030dc:	0212      	lsls	r2, r2, #8
100030de:	3508      	adds	r5, #8
100030e0:	0b1c      	lsrs	r4, r3, #12
100030e2:	d104      	bne.n	100030ee <y64_x48+0x28>
100030e4:	011b      	lsls	r3, r3, #4
100030e6:	0f16      	lsrs	r6, r2, #28
100030e8:	4333      	orrs	r3, r6
100030ea:	0112      	lsls	r2, r2, #4
100030ec:	3504      	adds	r5, #4
100030ee:	0b9c      	lsrs	r4, r3, #14
100030f0:	d104      	bne.n	100030fc <y64_x48+0x36>
100030f2:	009b      	lsls	r3, r3, #2
100030f4:	0f96      	lsrs	r6, r2, #30
100030f6:	4333      	orrs	r3, r6
100030f8:	0092      	lsls	r2, r2, #2
100030fa:	3502      	adds	r5, #2
100030fc:	0bdc      	lsrs	r4, r3, #15
100030fe:	d102      	bne.n	10003106 <y64_x48+0x40>
10003100:	1892      	adds	r2, r2, r2
10003102:	415b      	adcs	r3, r3
10003104:	3501      	adds	r5, #1
10003106:	001c      	movs	r4, r3
10003108:	1897      	adds	r7, r2, r2
1000310a:	4164      	adcs	r4, r4
1000310c:	3401      	adds	r4, #1
1000310e:	4f46      	ldr	r7, [pc, #280]	; (10003228 <y64_x64+0x58>)
10003110:	667c      	str	r4, [r7, #100]	; 0x64
10003112:	4c46      	ldr	r4, [pc, #280]	; (1000322c <y64_x64+0x5c>)
10003114:	663c      	str	r4, [r7, #96]	; 0x60
10003116:	0c0e      	lsrs	r6, r1, #16
10003118:	e7ff      	b.n	1000311a <y64_x48+0x54>
1000311a:	e7ff      	b.n	1000311c <y64_x48+0x56>
1000311c:	e7ff      	b.n	1000311e <y64_x48+0x58>
1000311e:	46c0      	nop			; (mov r8, r8)
10003120:	6f3c      	ldr	r4, [r7, #112]	; 0x70
10003122:	4366      	muls	r6, r4
10003124:	0c36      	lsrs	r6, r6, #16
10003126:	0377      	lsls	r7, r6, #13
10003128:	46be      	mov	lr, r7
1000312a:	b297      	uxth	r7, r2
1000312c:	4377      	muls	r7, r6
1000312e:	1bc0      	subs	r0, r0, r7
10003130:	d200      	bcs.n	10003134 <y64_x48+0x6e>
10003132:	3901      	subs	r1, #1
10003134:	1bc0      	subs	r0, r0, r7
10003136:	d200      	bcs.n	1000313a <y64_x48+0x74>
10003138:	3901      	subs	r1, #1
1000313a:	b29f      	uxth	r7, r3
1000313c:	4377      	muls	r7, r6
1000313e:	1bc9      	subs	r1, r1, r7
10003140:	1bc9      	subs	r1, r1, r7
10003142:	0c17      	lsrs	r7, r2, #16
10003144:	4377      	muls	r7, r6
10003146:	047e      	lsls	r6, r7, #17
10003148:	0bff      	lsrs	r7, r7, #15
1000314a:	1b80      	subs	r0, r0, r6
1000314c:	41b9      	sbcs	r1, r7
1000314e:	08ce      	lsrs	r6, r1, #3
10003150:	4366      	muls	r6, r4
10003152:	0c36      	lsrs	r6, r6, #16
10003154:	2d0c      	cmp	r5, #12
10003156:	db33      	blt.n	100031c0 <last1>
10003158:	44b6      	add	lr, r6
1000315a:	0b12      	lsrs	r2, r2, #12
1000315c:	051f      	lsls	r7, r3, #20
1000315e:	433a      	orrs	r2, r7
10003160:	0b1b      	lsrs	r3, r3, #12
10003162:	b297      	uxth	r7, r2
10003164:	4377      	muls	r7, r6
10003166:	1bc0      	subs	r0, r0, r7
10003168:	d200      	bcs.n	1000316c <y64_x48+0xa6>
1000316a:	3901      	subs	r1, #1
1000316c:	b29f      	uxth	r7, r3
1000316e:	4377      	muls	r7, r6
10003170:	1bc9      	subs	r1, r1, r7
10003172:	0c17      	lsrs	r7, r2, #16
10003174:	4377      	muls	r7, r6
10003176:	043e      	lsls	r6, r7, #16
10003178:	0c3f      	lsrs	r7, r7, #16
1000317a:	1b80      	subs	r0, r0, r6
1000317c:	41b9      	sbcs	r1, r7
1000317e:	0d86      	lsrs	r6, r0, #22
10003180:	028f      	lsls	r7, r1, #10
10003182:	433e      	orrs	r6, r7
10003184:	4366      	muls	r6, r4
10003186:	2729      	movs	r7, #41	; 0x29
10003188:	1b7f      	subs	r7, r7, r5
1000318a:	40fe      	lsrs	r6, r7
1000318c:	3d0c      	subs	r5, #12
1000318e:	4677      	mov	r7, lr
10003190:	40af      	lsls	r7, r5
10003192:	19bf      	adds	r7, r7, r6
10003194:	bc30      	pop	{r4, r5}
10003196:	b2a2      	uxth	r2, r4
10003198:	b2ab      	uxth	r3, r5
1000319a:	4372      	muls	r2, r6
1000319c:	4373      	muls	r3, r6
1000319e:	1a80      	subs	r0, r0, r2
100031a0:	4199      	sbcs	r1, r3
100031a2:	0c22      	lsrs	r2, r4, #16
100031a4:	4372      	muls	r2, r6
100031a6:	0c13      	lsrs	r3, r2, #16
100031a8:	0412      	lsls	r2, r2, #16
100031aa:	1a80      	subs	r0, r0, r2
100031ac:	4199      	sbcs	r1, r3
100031ae:	0002      	movs	r2, r0
100031b0:	000b      	movs	r3, r1
100031b2:	3701      	adds	r7, #1
100031b4:	1b00      	subs	r0, r0, r4
100031b6:	41a9      	sbcs	r1, r5
100031b8:	d2f9      	bcs.n	100031ae <y64_x48+0xe8>
100031ba:	1e78      	subs	r0, r7, #1
100031bc:	2100      	movs	r1, #0
100031be:	bdf0      	pop	{r4, r5, r6, r7, pc}

100031c0 <last1>:
100031c0:	270c      	movs	r7, #12
100031c2:	1b7f      	subs	r7, r7, r5
100031c4:	40fe      	lsrs	r6, r7
100031c6:	4677      	mov	r7, lr
100031c8:	0b7f      	lsrs	r7, r7, #13
100031ca:	40af      	lsls	r7, r5
100031cc:	19ff      	adds	r7, r7, r7
100031ce:	e7e0      	b.n	10003192 <y64_x48+0xcc>

100031d0 <y64_x64>:
100031d0:	2400      	movs	r4, #0
100031d2:	1c5d      	adds	r5, r3, #1
100031d4:	d007      	beq.n	100031e6 <y64_x64+0x16>
100031d6:	4f14      	ldr	r7, [pc, #80]	; (10003228 <y64_x64+0x58>)
100031d8:	667d      	str	r5, [r7, #100]	; 0x64
100031da:	6639      	str	r1, [r7, #96]	; 0x60
100031dc:	e7ff      	b.n	100031de <y64_x64+0xe>
100031de:	e7ff      	b.n	100031e0 <y64_x64+0x10>
100031e0:	e7ff      	b.n	100031e2 <y64_x64+0x12>
100031e2:	e7ff      	b.n	100031e4 <y64_x64+0x14>
100031e4:	6f3c      	ldr	r4, [r7, #112]	; 0x70
100031e6:	b295      	uxth	r5, r2
100031e8:	b29e      	uxth	r6, r3
100031ea:	4365      	muls	r5, r4
100031ec:	4366      	muls	r6, r4
100031ee:	1b40      	subs	r0, r0, r5
100031f0:	41b1      	sbcs	r1, r6
100031f2:	0c15      	lsrs	r5, r2, #16
100031f4:	0c1e      	lsrs	r6, r3, #16
100031f6:	4365      	muls	r5, r4
100031f8:	4366      	muls	r6, r4
100031fa:	0436      	lsls	r6, r6, #16
100031fc:	0c2f      	lsrs	r7, r5, #16
100031fe:	433e      	orrs	r6, r7
10003200:	042d      	lsls	r5, r5, #16
10003202:	1b40      	subs	r0, r0, r5
10003204:	41b1      	sbcs	r1, r6
10003206:	4299      	cmp	r1, r3
10003208:	d204      	bcs.n	10003214 <y64_x64+0x44>
1000320a:	0002      	movs	r2, r0
1000320c:	000b      	movs	r3, r1
1000320e:	0020      	movs	r0, r4
10003210:	2100      	movs	r1, #0
10003212:	bdf0      	pop	{r4, r5, r6, r7, pc}
10003214:	d101      	bne.n	1000321a <y64_x64+0x4a>
10003216:	4290      	cmp	r0, r2
10003218:	d3f7      	bcc.n	1000320a <y64_x64+0x3a>
1000321a:	1a80      	subs	r0, r0, r2
1000321c:	4199      	sbcs	r1, r3
1000321e:	3401      	adds	r4, #1
10003220:	4299      	cmp	r1, r3
10003222:	d3f2      	bcc.n	1000320a <y64_x64+0x3a>
10003224:	e7f6      	b.n	10003214 <y64_x64+0x44>
10003226:	0000      	.short	0x0000
10003228:	d0000000 	.word	0xd0000000
1000322c:	ffffffff 	.word	0xffffffff

10003230 <__wrap___aeabi_drsub>:
10003230:	4048      	eors	r0, r1
10003232:	4041      	eors	r1, r0
10003234:	4048      	eors	r0, r1

10003236 <__wrap___aeabi_dsub>:
10003236:	b418      	push	{r3, r4}
10003238:	4b1b      	ldr	r3, [pc, #108]	; (100032a8 <__wrap___aeabi_dmul+0x12>)
1000323a:	685b      	ldr	r3, [r3, #4]
1000323c:	46fc      	mov	ip, pc
1000323e:	9301      	str	r3, [sp, #4]
10003240:	bd08      	pop	{r3, pc}
10003242:	df04      	.short	0xdf04
10003244:	1000350b 	.word	0x1000350b

10003248 <__wrap___aeabi_dadd>:
10003248:	b418      	push	{r3, r4}
1000324a:	4b17      	ldr	r3, [pc, #92]	; (100032a8 <__wrap___aeabi_dmul+0x12>)
1000324c:	681b      	ldr	r3, [r3, #0]
1000324e:	46fc      	mov	ip, pc
10003250:	9301      	str	r3, [sp, #4]
10003252:	bd08      	pop	{r3, pc}
10003254:	3515df00 	.word	0x3515df00
10003258:	1000      	.short	0x1000

1000325a <__wrap___aeabi_ddiv>:
1000325a:	4694      	mov	ip, r2
1000325c:	4a13      	ldr	r2, [pc, #76]	; (100032ac <__wrap___aeabi_dmul+0x16>)
1000325e:	6f92      	ldr	r2, [r2, #120]	; 0x78
10003260:	0892      	lsrs	r2, r2, #2
10003262:	d209      	bcs.n	10003278 <ddiv_save_state>
10003264:	4662      	mov	r2, ip

10003266 <ddiv_shim_call>:
10003266:	b418      	push	{r3, r4}
10003268:	4b0f      	ldr	r3, [pc, #60]	; (100032a8 <__wrap___aeabi_dmul+0x12>)
1000326a:	68db      	ldr	r3, [r3, #12]
1000326c:	46fc      	mov	ip, pc
1000326e:	9301      	str	r3, [sp, #4]
10003270:	bd08      	pop	{r3, pc}
10003272:	df0c      	.short	0xdf0c
10003274:	100037cd 	.word	0x100037cd

10003278 <ddiv_save_state>:
10003278:	4a0c      	ldr	r2, [pc, #48]	; (100032ac <__wrap___aeabi_dmul+0x16>)
1000327a:	b5f0      	push	{r4, r5, r6, r7, lr}
1000327c:	6e14      	ldr	r4, [r2, #96]	; 0x60
1000327e:	6e55      	ldr	r5, [r2, #100]	; 0x64
10003280:	6f57      	ldr	r7, [r2, #116]	; 0x74
10003282:	6f16      	ldr	r6, [r2, #112]	; 0x70
10003284:	4662      	mov	r2, ip
10003286:	f7ff ffee 	bl	10003266 <ddiv_shim_call>
1000328a:	4a08      	ldr	r2, [pc, #32]	; (100032ac <__wrap___aeabi_dmul+0x16>)
1000328c:	6614      	str	r4, [r2, #96]	; 0x60
1000328e:	6655      	str	r5, [r2, #100]	; 0x64
10003290:	6757      	str	r7, [r2, #116]	; 0x74
10003292:	6716      	str	r6, [r2, #112]	; 0x70
10003294:	bdf0      	pop	{r4, r5, r6, r7, pc}

10003296 <__wrap___aeabi_dmul>:
10003296:	b418      	push	{r3, r4}
10003298:	4b03      	ldr	r3, [pc, #12]	; (100032a8 <__wrap___aeabi_dmul+0x12>)
1000329a:	689b      	ldr	r3, [r3, #8]
1000329c:	46fc      	mov	ip, pc
1000329e:	9301      	str	r3, [sp, #4]
100032a0:	bd08      	pop	{r3, pc}
100032a2:	df08      	.short	0xdf08
100032a4:	10003671 	.word	0x10003671
100032a8:	20000e44 	.word	0x20000e44
100032ac:	d0000000 	.word	0xd0000000

100032b0 <__wrap___aeabi_cdrcmple>:
100032b0:	b5ff      	push	{r0, r1, r2, r3, r4, r5, r6, r7, lr}
100032b2:	4050      	eors	r0, r2
100032b4:	4042      	eors	r2, r0
100032b6:	4050      	eors	r0, r2
100032b8:	4059      	eors	r1, r3
100032ba:	404b      	eors	r3, r1
100032bc:	4059      	eors	r1, r3
100032be:	e000      	b.n	100032c2 <__aeabi_dfcmple_guts>

100032c0 <__wrap___aeabi_cdcmpeq>:
100032c0:	b5ff      	push	{r0, r1, r2, r3, r4, r5, r6, r7, lr}

100032c2 <__aeabi_dfcmple_guts>:
100032c2:	4f15      	ldr	r7, [pc, #84]	; (10003318 <__aeabi_dfcmple_guts+0x56>)
100032c4:	004c      	lsls	r4, r1, #1
100032c6:	0d64      	lsrs	r4, r4, #21
100032c8:	d003      	beq.n	100032d2 <__aeabi_dfcmple_guts+0x10>
100032ca:	42bc      	cmp	r4, r7
100032cc:	d104      	bne.n	100032d8 <__aeabi_dfcmple_guts+0x16>
100032ce:	030c      	lsls	r4, r1, #12
100032d0:	d814      	bhi.n	100032fc <__aeabi_dfcmple_guts+0x3a>
100032d2:	2000      	movs	r0, #0
100032d4:	0d09      	lsrs	r1, r1, #20
100032d6:	0509      	lsls	r1, r1, #20
100032d8:	005c      	lsls	r4, r3, #1
100032da:	0d64      	lsrs	r4, r4, #21
100032dc:	d003      	beq.n	100032e6 <__aeabi_dfcmple_guts+0x24>
100032de:	42bc      	cmp	r4, r7
100032e0:	d104      	bne.n	100032ec <__aeabi_dfcmple_guts+0x2a>
100032e2:	031c      	lsls	r4, r3, #12
100032e4:	d80a      	bhi.n	100032fc <__aeabi_dfcmple_guts+0x3a>
100032e6:	2200      	movs	r2, #0
100032e8:	0d1b      	lsrs	r3, r3, #20
100032ea:	051b      	lsls	r3, r3, #20
100032ec:	2601      	movs	r6, #1
100032ee:	404b      	eors	r3, r1
100032f0:	d409      	bmi.n	10003306 <__aeabi_dfcmple_guts+0x44>
100032f2:	404b      	eors	r3, r1
100032f4:	d503      	bpl.n	100032fe <__aeabi_dfcmple_guts+0x3c>
100032f6:	428b      	cmp	r3, r1
100032f8:	d100      	bne.n	100032fc <__aeabi_dfcmple_guts+0x3a>
100032fa:	4282      	cmp	r2, r0
100032fc:	bdff      	pop	{r0, r1, r2, r3, r4, r5, r6, r7, pc}
100032fe:	4299      	cmp	r1, r3
10003300:	d1fc      	bne.n	100032fc <__aeabi_dfcmple_guts+0x3a>
10003302:	4290      	cmp	r0, r2
10003304:	bdff      	pop	{r0, r1, r2, r3, r4, r5, r6, r7, pc}
10003306:	430b      	orrs	r3, r1
10003308:	18db      	adds	r3, r3, r3
1000330a:	4303      	orrs	r3, r0
1000330c:	4313      	orrs	r3, r2
1000330e:	d0f5      	beq.n	100032fc <__aeabi_dfcmple_guts+0x3a>
10003310:	43c9      	mvns	r1, r1
10003312:	1849      	adds	r1, r1, r1
10003314:	bdff      	pop	{r0, r1, r2, r3, r4, r5, r6, r7, pc}
10003316:	0000      	.short	0x0000
10003318:	000007ff 	.word	0x000007ff

1000331c <__wrap___aeabi_dcmplt>:
1000331c:	b500      	push	{lr}
1000331e:	f7ff ffcf 	bl	100032c0 <__wrap___aeabi_cdcmpeq>
10003322:	4180      	sbcs	r0, r0
10003324:	bd00      	pop	{pc}
10003326:	46c0      	nop			; (mov r8, r8)

10003328 <__wrap___aeabi_dcmple>:
10003328:	b500      	push	{lr}
1000332a:	f7ff ffc9 	bl	100032c0 <__wrap___aeabi_cdcmpeq>
1000332e:	d901      	bls.n	10003334 <__wrap___aeabi_dcmple+0xc>
10003330:	2000      	movs	r0, #0
10003332:	bd00      	pop	{pc}
10003334:	2001      	movs	r0, #1
10003336:	bd00      	pop	{pc}

10003338 <__wrap___aeabi_dcmpge>:
10003338:	b500      	push	{lr}
1000333a:	f7ff ffb9 	bl	100032b0 <__wrap___aeabi_cdrcmple>
1000333e:	d901      	bls.n	10003344 <__wrap___aeabi_dcmpge+0xc>
10003340:	2000      	movs	r0, #0
10003342:	bd00      	pop	{pc}
10003344:	2001      	movs	r0, #1
10003346:	bd00      	pop	{pc}

10003348 <__wrap___aeabi_dcmpgt>:
10003348:	b500      	push	{lr}
1000334a:	f7ff ffb1 	bl	100032b0 <__wrap___aeabi_cdrcmple>
1000334e:	4180      	sbcs	r0, r0
10003350:	bd00      	pop	{pc}

10003352 <__wrap___aeabi_dcmpun>:
10003352:	2001      	movs	r0, #1
10003354:	0540      	lsls	r0, r0, #21
10003356:	004a      	lsls	r2, r1, #1
10003358:	1812      	adds	r2, r2, r0
1000335a:	d804      	bhi.n	10003366 <__wrap___aeabi_dcmpun+0x14>
1000335c:	005a      	lsls	r2, r3, #1
1000335e:	1812      	adds	r2, r2, r0
10003360:	d801      	bhi.n	10003366 <__wrap___aeabi_dcmpun+0x14>
10003362:	2000      	movs	r0, #0
10003364:	4770      	bx	lr
10003366:	2001      	movs	r0, #1
10003368:	4770      	bx	lr
1000336a:	2000      	movs	r0, #0
1000336c:	4770      	bx	lr
	...

10003370 <__wrap___aeabi_ui2d>:
10003370:	2100      	movs	r1, #0
10003372:	2800      	cmp	r0, #0
10003374:	d105      	bne.n	10003382 <__wrap___aeabi_i2d+0xa>
10003376:	4770      	bx	lr

10003378 <__wrap___aeabi_i2d>:
10003378:	17c1      	asrs	r1, r0, #31
1000337a:	4048      	eors	r0, r1
1000337c:	1a40      	subs	r0, r0, r1
1000337e:	d0fa      	beq.n	10003376 <__wrap___aeabi_ui2d+0x6>
10003380:	07c9      	lsls	r1, r1, #31
10003382:	b513      	push	{r0, r1, r4, lr}
10003384:	4b06      	ldr	r3, [pc, #24]	; (100033a0 <__wrap___aeabi_i2d+0x28>)
10003386:	681b      	ldr	r3, [r3, #0]
10003388:	4798      	blx	r3
1000338a:	bc0c      	pop	{r2, r3}
1000338c:	1c44      	adds	r4, r0, #1
1000338e:	40a2      	lsls	r2, r4
10003390:	0510      	lsls	r0, r2, #20
10003392:	0b12      	lsrs	r2, r2, #12
10003394:	4903      	ldr	r1, [pc, #12]	; (100033a4 <__wrap___aeabi_i2d+0x2c>)
10003396:	1b09      	subs	r1, r1, r4
10003398:	0509      	lsls	r1, r1, #20
1000339a:	4319      	orrs	r1, r3
1000339c:	4311      	orrs	r1, r2
1000339e:	bd10      	pop	{r4, pc}
100033a0:	20000f44 	.word	0x20000f44
100033a4:	0000041f 	.word	0x0000041f

100033a8 <__wrap___aeabi_d2iz>:
100033a8:	b510      	push	{r4, lr}
100033aa:	004c      	lsls	r4, r1, #1
100033ac:	0d62      	lsrs	r2, r4, #21
100033ae:	2380      	movs	r3, #128	; 0x80
100033b0:	18d2      	adds	r2, r2, r3
100033b2:	00db      	lsls	r3, r3, #3
100033b4:	1ad2      	subs	r2, r2, r3
100033b6:	055b      	lsls	r3, r3, #21
100033b8:	2a7e      	cmp	r2, #126	; 0x7e
100033ba:	dd10      	ble.n	100033de <__wrap___aeabi_d2iz+0x36>
100033bc:	3a9e      	subs	r2, #158	; 0x9e
100033be:	da13      	bge.n	100033e8 <__wrap___aeabi_d2iz+0x40>
100033c0:	17cc      	asrs	r4, r1, #31
100033c2:	0309      	lsls	r1, r1, #12
100033c4:	0849      	lsrs	r1, r1, #1
100033c6:	4319      	orrs	r1, r3
100033c8:	4252      	negs	r2, r2
100033ca:	40d1      	lsrs	r1, r2
100033cc:	0064      	lsls	r4, r4, #1
100033ce:	3401      	adds	r4, #1
100033d0:	3215      	adds	r2, #21
100033d2:	2a20      	cmp	r2, #32
100033d4:	da05      	bge.n	100033e2 <__wrap___aeabi_d2iz+0x3a>
100033d6:	40d0      	lsrs	r0, r2
100033d8:	4308      	orrs	r0, r1
100033da:	4360      	muls	r0, r4
100033dc:	bd10      	pop	{r4, pc}
100033de:	2000      	movs	r0, #0
100033e0:	bd10      	pop	{r4, pc}
100033e2:	4608      	mov	r0, r1
100033e4:	4360      	muls	r0, r4
100033e6:	bd10      	pop	{r4, pc}
100033e8:	0fc8      	lsrs	r0, r1, #31
100033ea:	18c0      	adds	r0, r0, r3
100033ec:	3801      	subs	r0, #1
100033ee:	bd10      	pop	{r4, pc}

100033f0 <__wrap___aeabi_d2uiz>:
100033f0:	b418      	push	{r3, r4}
100033f2:	4b04      	ldr	r3, [pc, #16]	; (10003404 <__wrap___aeabi_d2uiz+0x14>)
100033f4:	6a5b      	ldr	r3, [r3, #36]	; 0x24
100033f6:	46fc      	mov	ip, pc
100033f8:	9301      	str	r3, [sp, #4]
100033fa:	bd08      	pop	{r3, pc}
100033fc:	397ddf24 	.word	0x397ddf24
10003400:	00001000 	.word	0x00001000
10003404:	20000e44 	.word	0x20000e44

10003408 <__aeabi_double_init>:
10003408:	b570      	push	{r4, r5, r6, lr}
1000340a:	2313      	movs	r3, #19
1000340c:	781c      	ldrb	r4, [r3, #0]
1000340e:	2c01      	cmp	r4, #1
10003410:	d014      	beq.n	1000343c <__aeabi_double_init+0x34>
10003412:	2c01      	cmp	r4, #1
10003414:	dc14      	bgt.n	10003440 <__aeabi_double_init+0x38>
10003416:	2c02      	cmp	r4, #2
10003418:	dc02      	bgt.n	10003420 <__aeabi_double_init+0x18>
1000341a:	4a1f      	ldr	r2, [pc, #124]	; (10003498 <__aeabi_double_init+0x90>)
1000341c:	4b1f      	ldr	r3, [pc, #124]	; (1000349c <__aeabi_double_init+0x94>)
1000341e:	649a      	str	r2, [r3, #72]	; 0x48
10003420:	481f      	ldr	r0, [pc, #124]	; (100034a0 <__aeabi_double_init+0x98>)
10003422:	f7ff fc71 	bl	10002d08 <rom_func_lookup>
10003426:	4b1f      	ldr	r3, [pc, #124]	; (100034a4 <__aeabi_double_init+0x9c>)
10003428:	6018      	str	r0, [r3, #0]
1000342a:	bd70      	pop	{r4, r5, r6, pc}
1000342c:	0099      	lsls	r1, r3, #2
1000342e:	481a      	ldr	r0, [pc, #104]	; (10003498 <__aeabi_double_init+0x90>)
10003430:	4a1a      	ldr	r2, [pc, #104]	; (1000349c <__aeabi_double_init+0x94>)
10003432:	5088      	str	r0, [r1, r2]
10003434:	3301      	adds	r3, #1
10003436:	2b1f      	cmp	r3, #31
10003438:	d9f8      	bls.n	1000342c <__aeabi_double_init+0x24>
1000343a:	e7ea      	b.n	10003412 <__aeabi_double_init+0xa>
1000343c:	2300      	movs	r3, #0
1000343e:	e7fa      	b.n	10003436 <__aeabi_double_init+0x2e>
10003440:	4819      	ldr	r0, [pc, #100]	; (100034a8 <__aeabi_double_init+0xa0>)
10003442:	f7ff fc69 	bl	10002d18 <rom_data_lookup>
10003446:	0005      	movs	r5, r0
10003448:	4818      	ldr	r0, [pc, #96]	; (100034ac <__aeabi_double_init+0xa4>)
1000344a:	f7ff fc65 	bl	10002d18 <rom_data_lookup>
1000344e:	3802      	subs	r0, #2
10003450:	7803      	ldrb	r3, [r0, #0]
10003452:	009b      	lsls	r3, r3, #2
10003454:	2b7f      	cmp	r3, #127	; 0x7f
10003456:	dd19      	ble.n	1000348c <__aeabi_double_init+0x84>
10003458:	2280      	movs	r2, #128	; 0x80
1000345a:	0029      	movs	r1, r5
1000345c:	480f      	ldr	r0, [pc, #60]	; (1000349c <__aeabi_double_init+0x94>)
1000345e:	f000 fba7 	bl	10003bb0 <__wrap___aeabi_memcpy>
10003462:	2c02      	cmp	r4, #2
10003464:	d1d7      	bne.n	10003416 <__aeabi_double_init+0xe>
10003466:	4b12      	ldr	r3, [pc, #72]	; (100034b0 <__aeabi_double_init+0xa8>)
10003468:	881a      	ldrh	r2, [r3, #0]
1000346a:	23b5      	movs	r3, #181	; 0xb5
1000346c:	021b      	lsls	r3, r3, #8
1000346e:	429a      	cmp	r2, r3
10003470:	d109      	bne.n	10003486 <__aeabi_double_init+0x7e>
10003472:	4b10      	ldr	r3, [pc, #64]	; (100034b4 <__aeabi_double_init+0xac>)
10003474:	881a      	ldrh	r2, [r3, #0]
10003476:	4b10      	ldr	r3, [pc, #64]	; (100034b8 <__aeabi_double_init+0xb0>)
10003478:	429a      	cmp	r2, r3
1000347a:	d104      	bne.n	10003486 <__aeabi_double_init+0x7e>
1000347c:	4b0f      	ldr	r3, [pc, #60]	; (100034bc <__aeabi_double_init+0xb4>)
1000347e:	881a      	ldrh	r2, [r3, #0]
10003480:	4b0f      	ldr	r3, [pc, #60]	; (100034c0 <__aeabi_double_init+0xb8>)
10003482:	429a      	cmp	r2, r3
10003484:	d0c7      	beq.n	10003416 <__aeabi_double_init+0xe>
10003486:	2000      	movs	r0, #0
10003488:	f7fd ffce 	bl	10001428 <panic>
1000348c:	4b0d      	ldr	r3, [pc, #52]	; (100034c4 <__aeabi_double_init+0xbc>)
1000348e:	4a0e      	ldr	r2, [pc, #56]	; (100034c8 <__aeabi_double_init+0xc0>)
10003490:	2132      	movs	r1, #50	; 0x32
10003492:	480e      	ldr	r0, [pc, #56]	; (100034cc <__aeabi_double_init+0xc4>)
10003494:	f7fd ff2e 	bl	100012f4 <__assert_func>
10003498:	100034d1 	.word	0x100034d1
1000349c:	20000e44 	.word	0x20000e44
100034a0:	0000334c 	.word	0x0000334c
100034a4:	20000f44 	.word	0x20000f44
100034a8:	00004453 	.word	0x00004453
100034ac:	00004653 	.word	0x00004653
100034b0:	00003854 	.word	0x00003854
100034b4:	000038d8 	.word	0x000038d8
100034b8:	00004649 	.word	0x00004649
100034bc:	0000389c 	.word	0x0000389c
100034c0:	00004659 	.word	0x00004659
100034c4:	10007728 	.word	0x10007728
100034c8:	100077dc 	.word	0x100077dc
100034cc:	10007788 	.word	0x10007788

100034d0 <double_table_shim_on_use_helper>:
100034d0:	b507      	push	{r0, r1, r2, lr}
100034d2:	4660      	mov	r0, ip
100034d4:	2800      	cmp	r0, #0
100034d6:	d100      	bne.n	100034da <double_table_shim_on_use_helper+0xa>
100034d8:	be00      	bkpt	0x0000
100034da:	8801      	ldrh	r1, [r0, #0]
100034dc:	0a0a      	lsrs	r2, r1, #8
100034de:	3002      	adds	r0, #2
100034e0:	2adf      	cmp	r2, #223	; 0xdf
100034e2:	d1fa      	bne.n	100034da <double_table_shim_on_use_helper+0xa>
100034e4:	b2c9      	uxtb	r1, r1
100034e6:	0882      	lsrs	r2, r0, #2
100034e8:	d304      	bcc.n	100034f4 <double_table_shim_on_use_helper+0x24>
100034ea:	8802      	ldrh	r2, [r0, #0]
100034ec:	8840      	ldrh	r0, [r0, #2]
100034ee:	0400      	lsls	r0, r0, #16
100034f0:	4310      	orrs	r0, r2
100034f2:	e000      	b.n	100034f6 <double_table_shim_on_use_helper+0x26>
100034f4:	6800      	ldr	r0, [r0, #0]
100034f6:	4a02      	ldr	r2, [pc, #8]	; (10003500 <double_table_shim_on_use_helper+0x30>)
100034f8:	5050      	str	r0, [r2, r1]
100034fa:	9003      	str	r0, [sp, #12]
100034fc:	bd07      	pop	{r0, r1, r2, pc}
100034fe:	0000      	.short	0x0000
10003500:	20000e44 	.word	0x20000e44

10003504 <drsub_shim>:
10003504:	b40f      	push	{r0, r1, r2, r3}
10003506:	bc03      	pop	{r0, r1}
10003508:	bc0c      	pop	{r2, r3}

1000350a <dsub_shim>:
1000350a:	b5f0      	push	{r4, r5, r6, r7, lr}
1000350c:	2401      	movs	r4, #1
1000350e:	07e4      	lsls	r4, r4, #31
10003510:	4063      	eors	r3, r4
10003512:	e000      	b.n	10003516 <da_entry>

10003514 <dadd_shim>:
10003514:	b5f0      	push	{r4, r5, r6, r7, lr}

10003516 <da_entry>:
10003516:	0d0c      	lsrs	r4, r1, #20
10003518:	0fcf      	lsrs	r7, r1, #31
1000351a:	1e66      	subs	r6, r4, #1
1000351c:	0536      	lsls	r6, r6, #20
1000351e:	1b89      	subs	r1, r1, r6
10003520:	0564      	lsls	r4, r4, #21
10003522:	d303      	bcc.n	1000352c <l7_1>
10003524:	43c9      	mvns	r1, r1
10003526:	4240      	negs	r0, r0
10003528:	d300      	bcc.n	1000352c <l7_1>
1000352a:	3101      	adds	r1, #1

1000352c <l7_1>:
1000352c:	0d64      	lsrs	r4, r4, #21
1000352e:	d003      	beq.n	10003538 <l7_2>
10003530:	1c66      	adds	r6, r4, #1
10003532:	0af6      	lsrs	r6, r6, #11
10003534:	d007      	beq.n	10003546 <l7_3>
10003536:	1be4      	subs	r4, r4, r7

10003538 <l7_2>:
10003538:	2000      	movs	r0, #0
1000353a:	007f      	lsls	r7, r7, #1
1000353c:	1c79      	adds	r1, r7, #1
1000353e:	0789      	lsls	r1, r1, #30
10003540:	1289      	asrs	r1, r1, #10
10003542:	3c80      	subs	r4, #128	; 0x80
10003544:	0324      	lsls	r4, r4, #12

10003546 <l7_3>:
10003546:	0d1d      	lsrs	r5, r3, #20
10003548:	0fdf      	lsrs	r7, r3, #31
1000354a:	1e6e      	subs	r6, r5, #1
1000354c:	0536      	lsls	r6, r6, #20
1000354e:	1b9b      	subs	r3, r3, r6
10003550:	056d      	lsls	r5, r5, #21
10003552:	d303      	bcc.n	1000355c <l8_1>
10003554:	43db      	mvns	r3, r3
10003556:	4252      	negs	r2, r2
10003558:	d300      	bcc.n	1000355c <l8_1>
1000355a:	3301      	adds	r3, #1

1000355c <l8_1>:
1000355c:	0d6d      	lsrs	r5, r5, #21
1000355e:	d003      	beq.n	10003568 <l8_2>
10003560:	1c6e      	adds	r6, r5, #1
10003562:	0af6      	lsrs	r6, r6, #11
10003564:	d007      	beq.n	10003576 <l8_3>
10003566:	1bed      	subs	r5, r5, r7

10003568 <l8_2>:
10003568:	2200      	movs	r2, #0
1000356a:	007f      	lsls	r7, r7, #1
1000356c:	1c7b      	adds	r3, r7, #1
1000356e:	079b      	lsls	r3, r3, #30
10003570:	129b      	asrs	r3, r3, #10
10003572:	3d80      	subs	r5, #128	; 0x80
10003574:	032d      	lsls	r5, r5, #12

10003576 <l8_3>:
10003576:	1b2f      	subs	r7, r5, r4
10003578:	1b66      	subs	r6, r4, r5
1000357a:	d458      	bmi.n	1000362e <da_ygtx>
1000357c:	46a4      	mov	ip, r4
1000357e:	2e20      	cmp	r6, #32
10003580:	da46      	bge.n	10003610 <da_xrgty>
10003582:	3720      	adds	r7, #32
10003584:	0014      	movs	r4, r2
10003586:	40bc      	lsls	r4, r7

10003588 <da_xgty0>:
10003588:	001d      	movs	r5, r3
1000358a:	40bd      	lsls	r5, r7
1000358c:	40f2      	lsrs	r2, r6
1000358e:	4133      	asrs	r3, r6
10003590:	432a      	orrs	r2, r5

10003592 <da_add>:
10003592:	1880      	adds	r0, r0, r2
10003594:	4159      	adcs	r1, r3

10003596 <da_pack>:
10003596:	0fcb      	lsrs	r3, r1, #31
10003598:	d005      	beq.n	100035a6 <da_pack+0x10>
1000359a:	43c9      	mvns	r1, r1
1000359c:	43c0      	mvns	r0, r0
1000359e:	2200      	movs	r2, #0
100035a0:	4264      	negs	r4, r4
100035a2:	4150      	adcs	r0, r2
100035a4:	4151      	adcs	r1, r2
100035a6:	4662      	mov	r2, ip
100035a8:	0d4d      	lsrs	r5, r1, #21
100035aa:	d128      	bne.n	100035fe <da_0>
100035ac:	0d0d      	lsrs	r5, r1, #20
100035ae:	d107      	bne.n	100035c0 <da_1>
100035b0:	2800      	cmp	r0, #0
100035b2:	d01f      	beq.n	100035f4 <da_5>

100035b4 <da_2>:
100035b4:	1924      	adds	r4, r4, r4
100035b6:	4140      	adcs	r0, r0
100035b8:	4149      	adcs	r1, r1
100035ba:	3a01      	subs	r2, #1
100035bc:	0d0d      	lsrs	r5, r1, #20
100035be:	d0f9      	beq.n	100035b4 <da_2>

100035c0 <da_1>:
100035c0:	0064      	lsls	r4, r4, #1
100035c2:	d306      	bcc.n	100035d2 <da_3>

100035c4 <da_4>:
100035c4:	3001      	adds	r0, #1
100035c6:	d300      	bcc.n	100035ca <da_4+0x6>
100035c8:	3101      	adds	r1, #1
100035ca:	2c00      	cmp	r4, #0
100035cc:	d101      	bne.n	100035d2 <da_3>
100035ce:	0840      	lsrs	r0, r0, #1
100035d0:	0040      	lsls	r0, r0, #1

100035d2 <da_3>:
100035d2:	3a01      	subs	r2, #1
100035d4:	d40b      	bmi.n	100035ee <da_6>
100035d6:	1c94      	adds	r4, r2, #2
100035d8:	0ae4      	lsrs	r4, r4, #11
100035da:	d104      	bne.n	100035e6 <da_7>
100035dc:	0512      	lsls	r2, r2, #20
100035de:	4411      	add	r1, r2
100035e0:	07db      	lsls	r3, r3, #31
100035e2:	4419      	add	r1, r3
100035e4:	bdf0      	pop	{r4, r5, r6, r7, pc}

100035e6 <da_7>:
100035e6:	07d9      	lsls	r1, r3, #31
100035e8:	4b20      	ldr	r3, [pc, #128]	; (1000366c <da_xmgty+0x4>)
100035ea:	4319      	orrs	r1, r3
100035ec:	e000      	b.n	100035f0 <da_6+0x2>

100035ee <da_6>:
100035ee:	07d9      	lsls	r1, r3, #31
100035f0:	2000      	movs	r0, #0
100035f2:	bdf0      	pop	{r4, r5, r6, r7, pc}

100035f4 <da_5>:
100035f4:	2900      	cmp	r1, #0
100035f6:	d1dd      	bne.n	100035b4 <da_2>
100035f8:	2c00      	cmp	r4, #0
100035fa:	d1db      	bne.n	100035b4 <da_2>
100035fc:	bdf0      	pop	{r4, r5, r6, r7, pc}

100035fe <da_0>:
100035fe:	3201      	adds	r2, #1
10003600:	07c6      	lsls	r6, r0, #31
10003602:	0840      	lsrs	r0, r0, #1
10003604:	07cd      	lsls	r5, r1, #31
10003606:	4328      	orrs	r0, r5
10003608:	0849      	lsrs	r1, r1, #1
1000360a:	2e00      	cmp	r6, #0
1000360c:	d0e1      	beq.n	100035d2 <da_3>
1000360e:	e7d9      	b.n	100035c4 <da_4>

10003610 <da_xrgty>:
10003610:	2e3c      	cmp	r6, #60	; 0x3c
10003612:	da29      	bge.n	10003668 <da_xmgty>
10003614:	3e20      	subs	r6, #32
10003616:	3740      	adds	r7, #64	; 0x40
10003618:	0014      	movs	r4, r2
1000361a:	40bc      	lsls	r4, r7
1000361c:	d000      	beq.n	10003620 <da_xrgty+0x10>
1000361e:	2401      	movs	r4, #1
10003620:	40f2      	lsrs	r2, r6
10003622:	4314      	orrs	r4, r2
10003624:	001a      	movs	r2, r3
10003626:	40bb      	lsls	r3, r7
10003628:	431c      	orrs	r4, r3
1000362a:	17d3      	asrs	r3, r2, #31
1000362c:	e7ac      	b.n	10003588 <da_xgty0>

1000362e <da_ygtx>:
1000362e:	46ac      	mov	ip, r5
10003630:	2f20      	cmp	r7, #32
10003632:	da08      	bge.n	10003646 <da_yrgtx>
10003634:	3620      	adds	r6, #32
10003636:	0004      	movs	r4, r0
10003638:	40b4      	lsls	r4, r6

1000363a <da_ygtx0>:
1000363a:	000d      	movs	r5, r1
1000363c:	40b5      	lsls	r5, r6
1000363e:	40f8      	lsrs	r0, r7
10003640:	4139      	asrs	r1, r7
10003642:	4328      	orrs	r0, r5
10003644:	e7a5      	b.n	10003592 <da_add>

10003646 <da_yrgtx>:
10003646:	2f3c      	cmp	r7, #60	; 0x3c
10003648:	da0c      	bge.n	10003664 <da_ymgtx>
1000364a:	3f20      	subs	r7, #32
1000364c:	3640      	adds	r6, #64	; 0x40
1000364e:	0004      	movs	r4, r0
10003650:	40b4      	lsls	r4, r6
10003652:	d000      	beq.n	10003656 <da_yrgtx+0x10>
10003654:	2401      	movs	r4, #1
10003656:	40f8      	lsrs	r0, r7
10003658:	4304      	orrs	r4, r0
1000365a:	0008      	movs	r0, r1
1000365c:	40b1      	lsls	r1, r6
1000365e:	430c      	orrs	r4, r1
10003660:	17c1      	asrs	r1, r0, #31
10003662:	e7ea      	b.n	1000363a <da_ygtx0>

10003664 <da_ymgtx>:
10003664:	0010      	movs	r0, r2
10003666:	0019      	movs	r1, r3

10003668 <da_xmgty>:
10003668:	2400      	movs	r4, #0
1000366a:	e794      	b.n	10003596 <da_pack>
1000366c:	7ff00000 	.word	0x7ff00000

10003670 <dmul_shim>:
10003670:	b5f0      	push	{r4, r5, r6, r7, lr}
10003672:	0d0c      	lsrs	r4, r1, #20
10003674:	1e66      	subs	r6, r4, #1
10003676:	0536      	lsls	r6, r6, #20
10003678:	1b89      	subs	r1, r1, r6
1000367a:	0ae6      	lsrs	r6, r4, #11
1000367c:	0564      	lsls	r4, r4, #21
1000367e:	0d64      	lsrs	r4, r4, #21
10003680:	d002      	beq.n	10003688 <l11_1>
10003682:	1c65      	adds	r5, r4, #1
10003684:	0aed      	lsrs	r5, r5, #11
10003686:	d004      	beq.n	10003692 <l11_2>

10003688 <l11_1>:
10003688:	2000      	movs	r0, #0
1000368a:	2101      	movs	r1, #1
1000368c:	0509      	lsls	r1, r1, #20
1000368e:	3c80      	subs	r4, #128	; 0x80
10003690:	0324      	lsls	r4, r4, #12

10003692 <l11_2>:
10003692:	46a4      	mov	ip, r4
10003694:	0d1c      	lsrs	r4, r3, #20
10003696:	1e67      	subs	r7, r4, #1
10003698:	053f      	lsls	r7, r7, #20
1000369a:	1bdb      	subs	r3, r3, r7
1000369c:	0ae7      	lsrs	r7, r4, #11
1000369e:	0564      	lsls	r4, r4, #21
100036a0:	0d64      	lsrs	r4, r4, #21
100036a2:	d002      	beq.n	100036aa <l12_1>
100036a4:	1c65      	adds	r5, r4, #1
100036a6:	0aed      	lsrs	r5, r5, #11
100036a8:	d004      	beq.n	100036b4 <l12_2>

100036aa <l12_1>:
100036aa:	2200      	movs	r2, #0
100036ac:	2301      	movs	r3, #1
100036ae:	051b      	lsls	r3, r3, #20
100036b0:	3c80      	subs	r4, #128	; 0x80
100036b2:	0324      	lsls	r4, r4, #12

100036b4 <l12_2>:
100036b4:	4077      	eors	r7, r6
100036b6:	4464      	add	r4, ip
100036b8:	b497      	push	{r0, r1, r2, r4, r7}
100036ba:	b284      	uxth	r4, r0
100036bc:	b296      	uxth	r6, r2
100036be:	4374      	muls	r4, r6
100036c0:	0c07      	lsrs	r7, r0, #16
100036c2:	437e      	muls	r6, r7
100036c4:	0c15      	lsrs	r5, r2, #16
100036c6:	436f      	muls	r7, r5
100036c8:	b280      	uxth	r0, r0
100036ca:	4368      	muls	r0, r5
100036cc:	1836      	adds	r6, r6, r0
100036ce:	d302      	bcc.n	100036d6 <l13_1>
100036d0:	2001      	movs	r0, #1
100036d2:	0400      	lsls	r0, r0, #16
100036d4:	183f      	adds	r7, r7, r0

100036d6 <l13_1>:
100036d6:	0430      	lsls	r0, r6, #16
100036d8:	0c35      	lsrs	r5, r6, #16
100036da:	1900      	adds	r0, r0, r4
100036dc:	417d      	adcs	r5, r7
100036de:	4684      	mov	ip, r0
100036e0:	b288      	uxth	r0, r1
100036e2:	b29a      	uxth	r2, r3
100036e4:	4350      	muls	r0, r2
100036e6:	0c0c      	lsrs	r4, r1, #16
100036e8:	4362      	muls	r2, r4
100036ea:	0c1f      	lsrs	r7, r3, #16
100036ec:	437c      	muls	r4, r7
100036ee:	b28e      	uxth	r6, r1
100036f0:	437e      	muls	r6, r7
100036f2:	1992      	adds	r2, r2, r6
100036f4:	d302      	bcc.n	100036fc <l14_1>
100036f6:	2601      	movs	r6, #1
100036f8:	0436      	lsls	r6, r6, #16
100036fa:	19a4      	adds	r4, r4, r6

100036fc <l14_1>:
100036fc:	0416      	lsls	r6, r2, #16
100036fe:	0c17      	lsrs	r7, r2, #16
10003700:	1836      	adds	r6, r6, r0
10003702:	4167      	adcs	r7, r4
10003704:	bc01      	pop	{r0}
10003706:	b281      	uxth	r1, r0
10003708:	b29a      	uxth	r2, r3
1000370a:	4351      	muls	r1, r2
1000370c:	0c04      	lsrs	r4, r0, #16
1000370e:	4362      	muls	r2, r4
10003710:	0c1b      	lsrs	r3, r3, #16
10003712:	435c      	muls	r4, r3
10003714:	b280      	uxth	r0, r0
10003716:	4358      	muls	r0, r3
10003718:	1812      	adds	r2, r2, r0
1000371a:	d302      	bcc.n	10003722 <l15_1>
1000371c:	2001      	movs	r0, #1
1000371e:	0400      	lsls	r0, r0, #16
10003720:	1824      	adds	r4, r4, r0

10003722 <l15_1>:
10003722:	0410      	lsls	r0, r2, #16
10003724:	0c13      	lsrs	r3, r2, #16
10003726:	1840      	adds	r0, r0, r1
10003728:	4163      	adcs	r3, r4
1000372a:	182d      	adds	r5, r5, r0
1000372c:	415e      	adcs	r6, r3
1000372e:	2000      	movs	r0, #0
10003730:	4147      	adcs	r7, r0
10003732:	bc06      	pop	{r1, r2}
10003734:	b288      	uxth	r0, r1
10003736:	b293      	uxth	r3, r2
10003738:	4358      	muls	r0, r3
1000373a:	0c0c      	lsrs	r4, r1, #16
1000373c:	4363      	muls	r3, r4
1000373e:	0c12      	lsrs	r2, r2, #16
10003740:	4354      	muls	r4, r2
10003742:	b289      	uxth	r1, r1
10003744:	4351      	muls	r1, r2
10003746:	185b      	adds	r3, r3, r1
10003748:	d302      	bcc.n	10003750 <l16_1>
1000374a:	2101      	movs	r1, #1
1000374c:	0409      	lsls	r1, r1, #16
1000374e:	1864      	adds	r4, r4, r1

10003750 <l16_1>:
10003750:	0419      	lsls	r1, r3, #16
10003752:	0c1a      	lsrs	r2, r3, #16
10003754:	1809      	adds	r1, r1, r0
10003756:	4162      	adcs	r2, r4
10003758:	186d      	adds	r5, r5, r1
1000375a:	4156      	adcs	r6, r2
1000375c:	2000      	movs	r0, #0
1000375e:	4147      	adcs	r7, r0
10003760:	bc18      	pop	{r3, r4}
10003762:	02f9      	lsls	r1, r7, #11
10003764:	0d72      	lsrs	r2, r6, #21
10003766:	4311      	orrs	r1, r2
10003768:	02f0      	lsls	r0, r6, #11
1000376a:	0d6a      	lsrs	r2, r5, #21
1000376c:	4310      	orrs	r0, r2
1000376e:	02ed      	lsls	r5, r5, #11
10003770:	0d0a      	lsrs	r2, r1, #20
10003772:	d103      	bne.n	1000377c <l16_1+0x2c>
10003774:	196d      	adds	r5, r5, r5
10003776:	4140      	adcs	r0, r0
10003778:	4149      	adcs	r1, r1
1000377a:	3b01      	subs	r3, #1
1000377c:	4e12      	ldr	r6, [pc, #72]	; (100037c8 <dm_1+0xa>)
1000377e:	1b9b      	subs	r3, r3, r6
10003780:	0076      	lsls	r6, r6, #1
10003782:	42b3      	cmp	r3, r6
10003784:	d20e      	bcs.n	100037a4 <dm_0>
10003786:	006d      	lsls	r5, r5, #1
10003788:	d307      	bcc.n	1000379a <l16_1+0x4a>
1000378a:	3001      	adds	r0, #1
1000378c:	2600      	movs	r6, #0
1000378e:	4171      	adcs	r1, r6
10003790:	4666      	mov	r6, ip
10003792:	4335      	orrs	r5, r6
10003794:	d101      	bne.n	1000379a <l16_1+0x4a>
10003796:	0840      	lsrs	r0, r0, #1
10003798:	0040      	lsls	r0, r0, #1
1000379a:	051b      	lsls	r3, r3, #20
1000379c:	18c9      	adds	r1, r1, r3

1000379e <dm_2>:
1000379e:	07e4      	lsls	r4, r4, #31
100037a0:	4421      	add	r1, r4
100037a2:	bdf0      	pop	{r4, r5, r6, r7, pc}

100037a4 <dm_0>:
100037a4:	da0b      	bge.n	100037be <dm_1>
100037a6:	3301      	adds	r3, #1
100037a8:	d106      	bne.n	100037b8 <dm_0+0x14>
100037aa:	3001      	adds	r0, #1
100037ac:	d104      	bne.n	100037b8 <dm_0+0x14>
100037ae:	3101      	adds	r1, #1
100037b0:	0d4f      	lsrs	r7, r1, #21
100037b2:	d001      	beq.n	100037b8 <dm_0+0x14>
100037b4:	0849      	lsrs	r1, r1, #1
100037b6:	e7f2      	b.n	1000379e <dm_2>
100037b8:	07e1      	lsls	r1, r4, #31
100037ba:	2000      	movs	r0, #0
100037bc:	bdf0      	pop	{r4, r5, r6, r7, pc}

100037be <dm_1>:
100037be:	3601      	adds	r6, #1
100037c0:	0531      	lsls	r1, r6, #20
100037c2:	2000      	movs	r0, #0
100037c4:	e7eb      	b.n	1000379e <dm_2>
100037c6:	0000      	.short	0x0000
100037c8:	000003ff 	.word	0x000003ff

100037cc <ddiv_shim>:
100037cc:	b5f0      	push	{r4, r5, r6, r7, lr}

100037ce <ddiv0>:
100037ce:	0d1c      	lsrs	r4, r3, #20
100037d0:	1e67      	subs	r7, r4, #1
100037d2:	053f      	lsls	r7, r7, #20
100037d4:	1bdb      	subs	r3, r3, r7
100037d6:	0ae7      	lsrs	r7, r4, #11
100037d8:	0564      	lsls	r4, r4, #21
100037da:	0d64      	lsrs	r4, r4, #21
100037dc:	d002      	beq.n	100037e4 <l19_1>
100037de:	1c66      	adds	r6, r4, #1
100037e0:	0af6      	lsrs	r6, r6, #11
100037e2:	d004      	beq.n	100037ee <l19_2>

100037e4 <l19_1>:
100037e4:	2200      	movs	r2, #0
100037e6:	2301      	movs	r3, #1
100037e8:	051b      	lsls	r3, r3, #20
100037ea:	3c80      	subs	r4, #128	; 0x80
100037ec:	0324      	lsls	r4, r4, #12

100037ee <l19_2>:
100037ee:	25d0      	movs	r5, #208	; 0xd0
100037f0:	062d      	lsls	r5, r5, #24
100037f2:	2600      	movs	r6, #0
100037f4:	43f6      	mvns	r6, r6
100037f6:	662e      	str	r6, [r5, #96]	; 0x60
100037f8:	091e      	lsrs	r6, r3, #4
100037fa:	666e      	str	r6, [r5, #100]	; 0x64
100037fc:	0fce      	lsrs	r6, r1, #31
100037fe:	19f6      	adds	r6, r6, r7
10003800:	46b4      	mov	ip, r6
10003802:	0049      	lsls	r1, r1, #1
10003804:	0d4f      	lsrs	r7, r1, #21
10003806:	d002      	beq.n	1000380e <l19_2+0x20>
10003808:	1c7e      	adds	r6, r7, #1
1000380a:	0af6      	lsrs	r6, r6, #11
1000380c:	d003      	beq.n	10003816 <l19_2+0x28>
1000380e:	2000      	movs	r0, #0
10003810:	2100      	movs	r1, #0
10003812:	3f40      	subs	r7, #64	; 0x40
10003814:	033f      	lsls	r7, r7, #12
10003816:	1b3e      	subs	r6, r7, r4
10003818:	00b6      	lsls	r6, r6, #2
1000381a:	44b4      	add	ip, r6
1000381c:	3f01      	subs	r7, #1
1000381e:	057f      	lsls	r7, r7, #21
10003820:	1bc9      	subs	r1, r1, r7
10003822:	0849      	lsrs	r1, r1, #1
10003824:	6f2e      	ldr	r6, [r5, #112]	; 0x70
10003826:	3601      	adds	r6, #1
10003828:	0876      	lsrs	r6, r6, #1
1000382a:	029c      	lsls	r4, r3, #10
1000382c:	0d95      	lsrs	r5, r2, #22
1000382e:	4325      	orrs	r5, r4
10003830:	4375      	muls	r5, r6
10003832:	13ed      	asrs	r5, r5, #15
10003834:	4375      	muls	r5, r6
10003836:	13ad      	asrs	r5, r5, #14
10003838:	3501      	adds	r5, #1
1000383a:	106d      	asrs	r5, r5, #1
1000383c:	03f6      	lsls	r6, r6, #15
1000383e:	1b76      	subs	r6, r6, r5
10003840:	b40c      	push	{r2, r3}
10003842:	02cc      	lsls	r4, r1, #11
10003844:	0d45      	lsrs	r5, r0, #21
10003846:	432c      	orrs	r4, r5
10003848:	b2a2      	uxth	r2, r4
1000384a:	b2b3      	uxth	r3, r6
1000384c:	435a      	muls	r2, r3
1000384e:	0c27      	lsrs	r7, r4, #16
10003850:	437b      	muls	r3, r7
10003852:	0c35      	lsrs	r5, r6, #16
10003854:	436f      	muls	r7, r5
10003856:	b2a4      	uxth	r4, r4
10003858:	436c      	muls	r4, r5
1000385a:	191b      	adds	r3, r3, r4
1000385c:	d302      	bcc.n	10003864 <l20_1>
1000385e:	2401      	movs	r4, #1
10003860:	0424      	lsls	r4, r4, #16
10003862:	193f      	adds	r7, r7, r4

10003864 <l20_1>:
10003864:	041c      	lsls	r4, r3, #16
10003866:	0c1d      	lsrs	r5, r3, #16
10003868:	18a4      	adds	r4, r4, r2
1000386a:	417d      	adcs	r5, r7
1000386c:	1924      	adds	r4, r4, r4
1000386e:	416d      	adcs	r5, r5
10003870:	9a00      	ldr	r2, [sp, #0]
10003872:	b291      	uxth	r1, r2
10003874:	b2ac      	uxth	r4, r5
10003876:	4361      	muls	r1, r4
10003878:	0c17      	lsrs	r7, r2, #16
1000387a:	437c      	muls	r4, r7
1000387c:	0c2b      	lsrs	r3, r5, #16
1000387e:	435f      	muls	r7, r3
10003880:	b292      	uxth	r2, r2
10003882:	435a      	muls	r2, r3
10003884:	18a4      	adds	r4, r4, r2
10003886:	d302      	bcc.n	1000388e <l21_1>
10003888:	2201      	movs	r2, #1
1000388a:	0412      	lsls	r2, r2, #16
1000388c:	18bf      	adds	r7, r7, r2

1000388e <l21_1>:
1000388e:	0422      	lsls	r2, r4, #16
10003890:	0c23      	lsrs	r3, r4, #16
10003892:	1852      	adds	r2, r2, r1
10003894:	417b      	adcs	r3, r7
10003896:	9c01      	ldr	r4, [sp, #4]
10003898:	436c      	muls	r4, r5
1000389a:	191b      	adds	r3, r3, r4
1000389c:	0e52      	lsrs	r2, r2, #25
1000389e:	01d9      	lsls	r1, r3, #7
100038a0:	430a      	orrs	r2, r1
100038a2:	0144      	lsls	r4, r0, #5
100038a4:	1aa0      	subs	r0, r4, r2
100038a6:	b281      	uxth	r1, r0
100038a8:	b2b2      	uxth	r2, r6
100038aa:	4351      	muls	r1, r2
100038ac:	1403      	asrs	r3, r0, #16
100038ae:	435a      	muls	r2, r3
100038b0:	0c36      	lsrs	r6, r6, #16
100038b2:	4373      	muls	r3, r6
100038b4:	b287      	uxth	r7, r0
100038b6:	4377      	muls	r7, r6
100038b8:	17d6      	asrs	r6, r2, #31
100038ba:	19d2      	adds	r2, r2, r7
100038bc:	2700      	movs	r7, #0
100038be:	417e      	adcs	r6, r7
100038c0:	0436      	lsls	r6, r6, #16
100038c2:	199b      	adds	r3, r3, r6
100038c4:	0417      	lsls	r7, r2, #16
100038c6:	0c16      	lsrs	r6, r2, #16
100038c8:	187f      	adds	r7, r7, r1
100038ca:	415e      	adcs	r6, r3
100038cc:	1673      	asrs	r3, r6, #25
100038ce:	18ed      	adds	r5, r5, r3
100038d0:	01f3      	lsls	r3, r6, #7
100038d2:	2600      	movs	r6, #0
100038d4:	3380      	adds	r3, #128	; 0x80
100038d6:	4175      	adcs	r5, r6
100038d8:	0fa9      	lsrs	r1, r5, #30
100038da:	d106      	bne.n	100038ea <dd_0>
100038dc:	0064      	lsls	r4, r4, #1
100038de:	0a69      	lsrs	r1, r5, #9
100038e0:	05e8      	lsls	r0, r5, #23
100038e2:	0a5b      	lsrs	r3, r3, #9
100038e4:	4318      	orrs	r0, r3
100038e6:	d209      	bcs.n	100038fc <dd_1>
100038e8:	e02f      	b.n	1000394a <dd_2>

100038ea <dd_0>:
100038ea:	2204      	movs	r2, #4
100038ec:	4494      	add	ip, r2
100038ee:	3380      	adds	r3, #128	; 0x80
100038f0:	4175      	adcs	r5, r6
100038f2:	0aa9      	lsrs	r1, r5, #10
100038f4:	05a8      	lsls	r0, r5, #22
100038f6:	0a9b      	lsrs	r3, r3, #10
100038f8:	4318      	orrs	r0, r3
100038fa:	d326      	bcc.n	1000394a <dd_2>

100038fc <dd_1>:
100038fc:	4140      	adcs	r0, r0
100038fe:	4149      	adcs	r1, r1
10003900:	0424      	lsls	r4, r4, #16
10003902:	9a00      	ldr	r2, [sp, #0]
10003904:	9b01      	ldr	r3, [sp, #4]
10003906:	000d      	movs	r5, r1
10003908:	4355      	muls	r5, r2
1000390a:	1b64      	subs	r4, r4, r5
1000390c:	4343      	muls	r3, r0
1000390e:	1ae4      	subs	r4, r4, r3
10003910:	b295      	uxth	r5, r2
10003912:	b286      	uxth	r6, r0
10003914:	4375      	muls	r5, r6
10003916:	0c17      	lsrs	r7, r2, #16
10003918:	437e      	muls	r6, r7
1000391a:	0c03      	lsrs	r3, r0, #16
1000391c:	435f      	muls	r7, r3
1000391e:	b292      	uxth	r2, r2
10003920:	435a      	muls	r2, r3
10003922:	18b6      	adds	r6, r6, r2
10003924:	d302      	bcc.n	1000392c <l23_1>
10003926:	2201      	movs	r2, #1
10003928:	0412      	lsls	r2, r2, #16
1000392a:	18bf      	adds	r7, r7, r2

1000392c <l23_1>:
1000392c:	0432      	lsls	r2, r6, #16
1000392e:	0c33      	lsrs	r3, r6, #16
10003930:	1952      	adds	r2, r2, r5
10003932:	417b      	adcs	r3, r7
10003934:	4252      	negs	r2, r2
10003936:	419c      	sbcs	r4, r3
10003938:	2c00      	cmp	r4, #0
1000393a:	d402      	bmi.n	10003942 <l23_1+0x16>
1000393c:	2200      	movs	r2, #0
1000393e:	3001      	adds	r0, #1
10003940:	4151      	adcs	r1, r2
10003942:	0840      	lsrs	r0, r0, #1
10003944:	07ca      	lsls	r2, r1, #31
10003946:	4310      	orrs	r0, r2
10003948:	0849      	lsrs	r1, r1, #1

1000394a <dd_2>:
1000394a:	b002      	add	sp, #8
1000394c:	4662      	mov	r2, ip
1000394e:	07d7      	lsls	r7, r2, #31
10003950:	1092      	asrs	r2, r2, #2
10003952:	4b08      	ldr	r3, [pc, #32]	; (10003974 <dd_4+0x6>)
10003954:	18d2      	adds	r2, r2, r3
10003956:	4b08      	ldr	r3, [pc, #32]	; (10003978 <dd_4+0xa>)
10003958:	429a      	cmp	r2, r3
1000395a:	d203      	bcs.n	10003964 <dd_3>
1000395c:	0512      	lsls	r2, r2, #20
1000395e:	1889      	adds	r1, r1, r2

10003960 <dd_5>:
10003960:	19c9      	adds	r1, r1, r7
10003962:	bdf0      	pop	{r4, r5, r6, r7, pc}

10003964 <dd_3>:
10003964:	2000      	movs	r0, #0
10003966:	2a00      	cmp	r2, #0
10003968:	dc01      	bgt.n	1000396e <dd_4>
1000396a:	0039      	movs	r1, r7
1000396c:	bdf0      	pop	{r4, r5, r6, r7, pc}

1000396e <dd_4>:
1000396e:	3301      	adds	r3, #1
10003970:	0519      	lsls	r1, r3, #20
10003972:	e7f5      	b.n	10003960 <dd_5>
10003974:	000003fd 	.word	0x000003fd
10003978:	000007fe 	.word	0x000007fe

1000397c <double2uint_shim>:
1000397c:	2200      	movs	r2, #0

1000397e <double2ufix_shim>:
1000397e:	b500      	push	{lr}
10003980:	3220      	adds	r2, #32
10003982:	f000 f804 	bl	1000398e <double2ufix64_shim>
10003986:	0008      	movs	r0, r1
10003988:	bd00      	pop	{pc}
	...

1000398c <double2uint64_shim>:
1000398c:	2200      	movs	r2, #0

1000398e <double2ufix64_shim>:
1000398e:	150b      	asrs	r3, r1, #20
10003990:	d40a      	bmi.n	100039a8 <ret_dzero>

10003992 <d2fix>:
10003992:	b510      	push	{r4, lr}
10003994:	4694      	mov	ip, r2
10003996:	f000 f831 	bl	100039fc <dunpacks>
1000399a:	1414      	asrs	r4, r2, #16
1000399c:	3401      	adds	r4, #1
1000399e:	da00      	bge.n	100039a2 <d2fix+0x10>
100039a0:	2100      	movs	r1, #0
100039a2:	17cb      	asrs	r3, r1, #31
100039a4:	4c14      	ldr	r4, [pc, #80]	; (100039f8 <d2fix_a+0x4a>)
100039a6:	4720      	bx	r4

100039a8 <ret_dzero>:
100039a8:	2000      	movs	r0, #0
100039aa:	2100      	movs	r1, #0
100039ac:	4770      	bx	lr

100039ae <d2fix_a>:
100039ae:	4462      	add	r2, ip
100039b0:	3a34      	subs	r2, #52	; 0x34
100039b2:	d40c      	bmi.n	100039ce <d2fix_a+0x20>
100039b4:	2a0c      	cmp	r2, #12
100039b6:	da07      	bge.n	100039c8 <d2fix_a+0x1a>
100039b8:	0004      	movs	r4, r0
100039ba:	4091      	lsls	r1, r2
100039bc:	4090      	lsls	r0, r2
100039be:	4252      	negs	r2, r2
100039c0:	3220      	adds	r2, #32
100039c2:	40d4      	lsrs	r4, r2
100039c4:	4321      	orrs	r1, r4
100039c6:	bd10      	pop	{r4, pc}
100039c8:	43d8      	mvns	r0, r3
100039ca:	43d9      	mvns	r1, r3
100039cc:	bd10      	pop	{r4, pc}
100039ce:	3220      	adds	r2, #32
100039d0:	d407      	bmi.n	100039e2 <d2fix_a+0x34>
100039d2:	460c      	mov	r4, r1
100039d4:	4094      	lsls	r4, r2
100039d6:	4252      	negs	r2, r2
100039d8:	3220      	adds	r2, #32
100039da:	4111      	asrs	r1, r2
100039dc:	40d0      	lsrs	r0, r2
100039de:	4320      	orrs	r0, r4
100039e0:	bd10      	pop	{r4, pc}
100039e2:	0008      	movs	r0, r1
100039e4:	17c9      	asrs	r1, r1, #31
100039e6:	3220      	adds	r2, #32
100039e8:	d403      	bmi.n	100039f2 <d2fix_a+0x44>
100039ea:	4252      	negs	r2, r2
100039ec:	3220      	adds	r2, #32
100039ee:	4110      	asrs	r0, r2
100039f0:	bd10      	pop	{r4, pc}
100039f2:	0018      	movs	r0, r3
100039f4:	0019      	movs	r1, r3
100039f6:	bd10      	pop	{r4, pc}
100039f8:	100039af 	.word	0x100039af

100039fc <dunpacks>:
100039fc:	0d0a      	lsrs	r2, r1, #20
100039fe:	0fcc      	lsrs	r4, r1, #31
10003a00:	1e53      	subs	r3, r2, #1
10003a02:	051b      	lsls	r3, r3, #20
10003a04:	1ac9      	subs	r1, r1, r3
10003a06:	0552      	lsls	r2, r2, #21
10003a08:	d303      	bcc.n	10003a12 <l60_1>
10003a0a:	43c9      	mvns	r1, r1
10003a0c:	4240      	negs	r0, r0
10003a0e:	d300      	bcc.n	10003a12 <l60_1>
10003a10:	3101      	adds	r1, #1

10003a12 <l60_1>:
10003a12:	0d52      	lsrs	r2, r2, #21
10003a14:	d003      	beq.n	10003a1e <l60_2>
10003a16:	1c53      	adds	r3, r2, #1
10003a18:	0adb      	lsrs	r3, r3, #11
10003a1a:	d007      	beq.n	10003a2c <l60_3>
10003a1c:	1b12      	subs	r2, r2, r4

10003a1e <l60_2>:
10003a1e:	2000      	movs	r0, #0
10003a20:	0064      	lsls	r4, r4, #1
10003a22:	1c61      	adds	r1, r4, #1
10003a24:	0789      	lsls	r1, r1, #30
10003a26:	1289      	asrs	r1, r1, #10
10003a28:	3a80      	subs	r2, #128	; 0x80
10003a2a:	0312      	lsls	r2, r2, #12

10003a2c <l60_3>:
10003a2c:	4b01      	ldr	r3, [pc, #4]	; (10003a34 <l60_3+0x8>)
10003a2e:	1ad2      	subs	r2, r2, r3
10003a30:	4770      	bx	lr
10003a32:	0000      	.short	0x0000
10003a34:	000003ff 	.word	0x000003ff

10003a38 <__aeabi_float_init>:
10003a38:	b570      	push	{r4, r5, r6, lr}
10003a3a:	2313      	movs	r3, #19
10003a3c:	781d      	ldrb	r5, [r3, #0]
10003a3e:	482a      	ldr	r0, [pc, #168]	; (10003ae8 <__aeabi_float_init+0xb0>)
10003a40:	f7ff f96a 	bl	10002d18 <rom_data_lookup>
10003a44:	0004      	movs	r4, r0
10003a46:	2d01      	cmp	r5, #1
10003a48:	d011      	beq.n	10003a6e <__aeabi_float_init+0x36>
10003a4a:	2d01      	cmp	r5, #1
10003a4c:	dd09      	ble.n	10003a62 <__aeabi_float_init+0x2a>
10003a4e:	1ea3      	subs	r3, r4, #2
10003a50:	781b      	ldrb	r3, [r3, #0]
10003a52:	009b      	lsls	r3, r3, #2
10003a54:	2b7f      	cmp	r3, #127	; 0x7f
10003a56:	dd40      	ble.n	10003ada <__aeabi_float_init+0xa2>
10003a58:	2280      	movs	r2, #128	; 0x80
10003a5a:	0021      	movs	r1, r4
10003a5c:	4823      	ldr	r0, [pc, #140]	; (10003aec <__aeabi_float_init+0xb4>)
10003a5e:	f000 f8a7 	bl	10003bb0 <__wrap___aeabi_memcpy>
10003a62:	4823      	ldr	r0, [pc, #140]	; (10003af0 <__aeabi_float_init+0xb8>)
10003a64:	f7ff f950 	bl	10002d08 <rom_func_lookup>
10003a68:	4b22      	ldr	r3, [pc, #136]	; (10003af4 <__aeabi_float_init+0xbc>)
10003a6a:	6018      	str	r0, [r3, #0]
10003a6c:	bd70      	pop	{r4, r5, r6, pc}
10003a6e:	2254      	movs	r2, #84	; 0x54
10003a70:	0001      	movs	r1, r0
10003a72:	481e      	ldr	r0, [pc, #120]	; (10003aec <__aeabi_float_init+0xb4>)
10003a74:	f000 f89c 	bl	10003bb0 <__wrap___aeabi_memcpy>
10003a78:	4b1f      	ldr	r3, [pc, #124]	; (10003af8 <__aeabi_float_init+0xc0>)
10003a7a:	881a      	ldrh	r2, [r3, #0]
10003a7c:	4b1f      	ldr	r3, [pc, #124]	; (10003afc <__aeabi_float_init+0xc4>)
10003a7e:	429a      	cmp	r2, r3
10003a80:	d11c      	bne.n	10003abc <__aeabi_float_init+0x84>
10003a82:	23a7      	movs	r3, #167	; 0xa7
10003a84:	019b      	lsls	r3, r3, #6
10003a86:	881a      	ldrh	r2, [r3, #0]
10003a88:	4b1d      	ldr	r3, [pc, #116]	; (10003b00 <__aeabi_float_init+0xc8>)
10003a8a:	429a      	cmp	r2, r3
10003a8c:	d116      	bne.n	10003abc <__aeabi_float_init+0x84>
10003a8e:	4b1d      	ldr	r3, [pc, #116]	; (10003b04 <__aeabi_float_init+0xcc>)
10003a90:	881a      	ldrh	r2, [r3, #0]
10003a92:	4b1d      	ldr	r3, [pc, #116]	; (10003b08 <__aeabi_float_init+0xd0>)
10003a94:	429a      	cmp	r2, r3
10003a96:	d111      	bne.n	10003abc <__aeabi_float_init+0x84>
10003a98:	4b1c      	ldr	r3, [pc, #112]	; (10003b0c <__aeabi_float_init+0xd4>)
10003a9a:	881a      	ldrh	r2, [r3, #0]
10003a9c:	2394      	movs	r3, #148	; 0x94
10003a9e:	019b      	lsls	r3, r3, #6
10003aa0:	429a      	cmp	r2, r3
10003aa2:	d10b      	bne.n	10003abc <__aeabi_float_init+0x84>
10003aa4:	4b1a      	ldr	r3, [pc, #104]	; (10003b10 <__aeabi_float_init+0xd8>)
10003aa6:	881a      	ldrh	r2, [r3, #0]
10003aa8:	4b1a      	ldr	r3, [pc, #104]	; (10003b14 <__aeabi_float_init+0xdc>)
10003aaa:	429a      	cmp	r2, r3
10003aac:	d106      	bne.n	10003abc <__aeabi_float_init+0x84>
10003aae:	4b1a      	ldr	r3, [pc, #104]	; (10003b18 <__aeabi_float_init+0xe0>)
10003ab0:	681a      	ldr	r2, [r3, #0]
10003ab2:	4b1a      	ldr	r3, [pc, #104]	; (10003b1c <__aeabi_float_init+0xe4>)
10003ab4:	429a      	cmp	r2, r3
10003ab6:	d101      	bne.n	10003abc <__aeabi_float_init+0x84>
10003ab8:	2315      	movs	r3, #21
10003aba:	e007      	b.n	10003acc <__aeabi_float_init+0x94>
10003abc:	4818      	ldr	r0, [pc, #96]	; (10003b20 <__aeabi_float_init+0xe8>)
10003abe:	f7fd fcb3 	bl	10001428 <panic>
10003ac2:	0099      	lsls	r1, r3, #2
10003ac4:	4817      	ldr	r0, [pc, #92]	; (10003b24 <__aeabi_float_init+0xec>)
10003ac6:	4a09      	ldr	r2, [pc, #36]	; (10003aec <__aeabi_float_init+0xb4>)
10003ac8:	5088      	str	r0, [r1, r2]
10003aca:	3301      	adds	r3, #1
10003acc:	2b1f      	cmp	r3, #31
10003ace:	d9f8      	bls.n	10003ac2 <__aeabi_float_init+0x8a>
10003ad0:	4a14      	ldr	r2, [pc, #80]	; (10003b24 <__aeabi_float_init+0xec>)
10003ad2:	4b06      	ldr	r3, [pc, #24]	; (10003aec <__aeabi_float_init+0xb4>)
10003ad4:	621a      	str	r2, [r3, #32]
10003ad6:	61da      	str	r2, [r3, #28]
10003ad8:	e7b7      	b.n	10003a4a <__aeabi_float_init+0x12>
10003ada:	4b13      	ldr	r3, [pc, #76]	; (10003b28 <__aeabi_float_init+0xf0>)
10003adc:	4a13      	ldr	r2, [pc, #76]	; (10003b2c <__aeabi_float_init+0xf4>)
10003ade:	2142      	movs	r1, #66	; 0x42
10003ae0:	4813      	ldr	r0, [pc, #76]	; (10003b30 <__aeabi_float_init+0xf8>)
10003ae2:	f7fd fc07 	bl	100012f4 <__assert_func>
10003ae6:	46c0      	nop			; (mov r8, r8)
10003ae8:	00004653 	.word	0x00004653
10003aec:	20000f48 	.word	0x20000f48
10003af0:	0000334c 	.word	0x0000334c
10003af4:	20000f44 	.word	0x20000f44
10003af8:	000029ee 	.word	0x000029ee
10003afc:	00000fc4 	.word	0x00000fc4
10003b00:	00000dc2 	.word	0x00000dc2
10003b04:	00002b96 	.word	0x00002b96
10003b08:	0000b5c0 	.word	0x0000b5c0
10003b0c:	00002b18 	.word	0x00002b18
10003b10:	00002acc 	.word	0x00002acc
10003b14:	0000b510 	.word	0x0000b510
10003b18:	00002cfc 	.word	0x00002cfc
10003b1c:	6487ed51 	.word	0x6487ed51
10003b20:	10007068 	.word	0x10007068
10003b24:	10003b35 	.word	0x10003b35
10003b28:	100077f0 	.word	0x100077f0
10003b2c:	10007874 	.word	0x10007874
10003b30:	10007824 	.word	0x10007824

10003b34 <float_table_shim_on_use_helper>:
10003b34:	b507      	push	{r0, r1, r2, lr}
10003b36:	4660      	mov	r0, ip
10003b38:	2800      	cmp	r0, #0
10003b3a:	d100      	bne.n	10003b3e <float_table_shim_on_use_helper+0xa>
10003b3c:	be00      	bkpt	0x0000
10003b3e:	8801      	ldrh	r1, [r0, #0]
10003b40:	0a0a      	lsrs	r2, r1, #8
10003b42:	3002      	adds	r0, #2
10003b44:	2adf      	cmp	r2, #223	; 0xdf
10003b46:	d1fa      	bne.n	10003b3e <float_table_shim_on_use_helper+0xa>
10003b48:	b2c9      	uxtb	r1, r1
10003b4a:	0882      	lsrs	r2, r0, #2
10003b4c:	d304      	bcc.n	10003b58 <float_table_shim_on_use_helper+0x24>
10003b4e:	8802      	ldrh	r2, [r0, #0]
10003b50:	8840      	ldrh	r0, [r0, #2]
10003b52:	0400      	lsls	r0, r0, #16
10003b54:	4310      	orrs	r0, r2
10003b56:	e000      	b.n	10003b5a <float_table_shim_on_use_helper+0x26>
10003b58:	6800      	ldr	r0, [r0, #0]
10003b5a:	4a02      	ldr	r2, [pc, #8]	; (10003b64 <float_table_shim_on_use_helper+0x30>)
10003b5c:	5050      	str	r0, [r2, r1]
10003b5e:	9003      	str	r0, [sp, #12]
10003b60:	bd07      	pop	{r0, r1, r2, pc}
10003b62:	0000      	.short	0x0000
10003b64:	20000f48 	.word	0x20000f48

10003b68 <__wrap_malloc>:
10003b68:	b510      	push	{r4, lr}
10003b6a:	0004      	movs	r4, r0
10003b6c:	f002 fb42 	bl	100061f4 <malloc>
10003b70:	2800      	cmp	r0, #0
10003b72:	d004      	beq.n	10003b7e <__wrap_malloc+0x16>
10003b74:	1904      	adds	r4, r0, r4
10003b76:	4b03      	ldr	r3, [pc, #12]	; (10003b84 <__wrap_malloc+0x1c>)
10003b78:	429c      	cmp	r4, r3
10003b7a:	d800      	bhi.n	10003b7e <__wrap_malloc+0x16>
10003b7c:	bd10      	pop	{r4, pc}
10003b7e:	4802      	ldr	r0, [pc, #8]	; (10003b88 <__wrap_malloc+0x20>)
10003b80:	f7fd fc52 	bl	10001428 <panic>
10003b84:	20040000 	.word	0x20040000
10003b88:	10007888 	.word	0x10007888

10003b8c <__wrap_free>:
10003b8c:	b510      	push	{r4, lr}
10003b8e:	f002 fb3b 	bl	10006208 <free>
10003b92:	bd10      	pop	{r4, pc}

10003b94 <__aeabi_mem_init>:
10003b94:	4801      	ldr	r0, [pc, #4]	; (10003b9c <__aeabi_mem_init+0x8>)
10003b96:	2104      	movs	r1, #4
10003b98:	4b01      	ldr	r3, [pc, #4]	; (10003ba0 <__aeabi_mem_init+0xc>)
10003b9a:	4718      	bx	r3
10003b9c:	20000240 	.word	0x20000240
10003ba0:	10002d29 	.word	0x10002d29

10003ba4 <__wrap_memset>:
10003ba4:	4b01      	ldr	r3, [pc, #4]	; (10003bac <__wrap_memset+0x8>)
10003ba6:	681b      	ldr	r3, [r3, #0]
10003ba8:	4718      	bx	r3
10003baa:	0000      	.short	0x0000
10003bac:	20000240 	.word	0x20000240

10003bb0 <__wrap___aeabi_memcpy>:
10003bb0:	4b01      	ldr	r3, [pc, #4]	; (10003bb8 <__wrap___aeabi_memcpy+0x8>)
10003bb2:	685b      	ldr	r3, [r3, #4]
10003bb4:	4718      	bx	r3
10003bb6:	0000      	.short	0x0000
10003bb8:	20000240 	.word	0x20000240

10003bbc <stdio_out_chars_no_crlf>:
10003bbc:	b510      	push	{r4, lr}
10003bbe:	0003      	movs	r3, r0
10003bc0:	0008      	movs	r0, r1
10003bc2:	0011      	movs	r1, r2
10003bc4:	681b      	ldr	r3, [r3, #0]
10003bc6:	4798      	blx	r3
10003bc8:	bd10      	pop	{r4, pc}
	...

10003bcc <stdio_out_chars_crlf>:
10003bcc:	b5f8      	push	{r3, r4, r5, r6, r7, lr}
10003bce:	0007      	movs	r7, r0
10003bd0:	000d      	movs	r5, r1
10003bd2:	0016      	movs	r6, r2
10003bd4:	7c43      	ldrb	r3, [r0, #17]
10003bd6:	2b00      	cmp	r3, #0
10003bd8:	d002      	beq.n	10003be0 <stdio_out_chars_crlf+0x14>
10003bda:	2400      	movs	r4, #0
10003bdc:	2000      	movs	r0, #0
10003bde:	e00c      	b.n	10003bfa <stdio_out_chars_crlf+0x2e>
10003be0:	6803      	ldr	r3, [r0, #0]
10003be2:	0011      	movs	r1, r2
10003be4:	0028      	movs	r0, r5
10003be6:	4798      	blx	r3
10003be8:	e02d      	b.n	10003c46 <stdio_out_chars_crlf+0x7a>
10003bea:	7c3b      	ldrb	r3, [r7, #16]
10003bec:	e010      	b.n	10003c10 <stdio_out_chars_crlf+0x44>
10003bee:	2102      	movs	r1, #2
10003bf0:	4815      	ldr	r0, [pc, #84]	; (10003c48 <stdio_out_chars_crlf+0x7c>)
10003bf2:	683b      	ldr	r3, [r7, #0]
10003bf4:	4798      	blx	r3
10003bf6:	1c60      	adds	r0, r4, #1
10003bf8:	3401      	adds	r4, #1
10003bfa:	42b4      	cmp	r4, r6
10003bfc:	da14      	bge.n	10003c28 <stdio_out_chars_crlf+0x5c>
10003bfe:	2c00      	cmp	r4, #0
10003c00:	ddf3      	ble.n	10003bea <stdio_out_chars_crlf+0x1e>
10003c02:	192b      	adds	r3, r5, r4
10003c04:	3b01      	subs	r3, #1
10003c06:	781b      	ldrb	r3, [r3, #0]
10003c08:	3b0d      	subs	r3, #13
10003c0a:	425a      	negs	r2, r3
10003c0c:	4153      	adcs	r3, r2
10003c0e:	b2db      	uxtb	r3, r3
10003c10:	5d2a      	ldrb	r2, [r5, r4]
10003c12:	2a0a      	cmp	r2, #10
10003c14:	d1f0      	bne.n	10003bf8 <stdio_out_chars_crlf+0x2c>
10003c16:	2b00      	cmp	r3, #0
10003c18:	d1ee      	bne.n	10003bf8 <stdio_out_chars_crlf+0x2c>
10003c1a:	42a0      	cmp	r0, r4
10003c1c:	dae7      	bge.n	10003bee <stdio_out_chars_crlf+0x22>
10003c1e:	1a21      	subs	r1, r4, r0
10003c20:	1828      	adds	r0, r5, r0
10003c22:	683b      	ldr	r3, [r7, #0]
10003c24:	4798      	blx	r3
10003c26:	e7e2      	b.n	10003bee <stdio_out_chars_crlf+0x22>
10003c28:	42b0      	cmp	r0, r6
10003c2a:	da03      	bge.n	10003c34 <stdio_out_chars_crlf+0x68>
10003c2c:	1a31      	subs	r1, r6, r0
10003c2e:	1828      	adds	r0, r5, r0
10003c30:	683b      	ldr	r3, [r7, #0]
10003c32:	4798      	blx	r3
10003c34:	2e00      	cmp	r6, #0
10003c36:	dd06      	ble.n	10003c46 <stdio_out_chars_crlf+0x7a>
10003c38:	19ad      	adds	r5, r5, r6
10003c3a:	3d01      	subs	r5, #1
10003c3c:	782b      	ldrb	r3, [r5, #0]
10003c3e:	3b0d      	subs	r3, #13
10003c40:	425a      	negs	r2, r3
10003c42:	4153      	adcs	r3, r2
10003c44:	743b      	strb	r3, [r7, #16]
10003c46:	bdf8      	pop	{r3, r4, r5, r6, r7, pc}
10003c48:	100078f8 	.word	0x100078f8

10003c4c <stdio_stack_buffer_flush>:
10003c4c:	b570      	push	{r4, r5, r6, lr}
10003c4e:	0005      	movs	r5, r0
10003c50:	6803      	ldr	r3, [r0, #0]
10003c52:	2b00      	cmp	r3, #0
10003c54:	d016      	beq.n	10003c84 <stdio_stack_buffer_flush+0x38>
10003c56:	4b0c      	ldr	r3, [pc, #48]	; (10003c88 <stdio_stack_buffer_flush+0x3c>)
10003c58:	681c      	ldr	r4, [r3, #0]
10003c5a:	e005      	b.n	10003c68 <stdio_stack_buffer_flush+0x1c>
10003c5c:	0029      	movs	r1, r5
10003c5e:	c904      	ldmia	r1!, {r2}
10003c60:	0020      	movs	r0, r4
10003c62:	f7ff ffb3 	bl	10003bcc <stdio_out_chars_crlf>
10003c66:	68e4      	ldr	r4, [r4, #12]
10003c68:	2c00      	cmp	r4, #0
10003c6a:	d009      	beq.n	10003c80 <stdio_stack_buffer_flush+0x34>
10003c6c:	6823      	ldr	r3, [r4, #0]
10003c6e:	2b00      	cmp	r3, #0
10003c70:	d0f9      	beq.n	10003c66 <stdio_stack_buffer_flush+0x1a>
10003c72:	4b06      	ldr	r3, [pc, #24]	; (10003c8c <stdio_stack_buffer_flush+0x40>)
10003c74:	681b      	ldr	r3, [r3, #0]
10003c76:	2b00      	cmp	r3, #0
10003c78:	d0f0      	beq.n	10003c5c <stdio_stack_buffer_flush+0x10>
10003c7a:	42a3      	cmp	r3, r4
10003c7c:	d1f3      	bne.n	10003c66 <stdio_stack_buffer_flush+0x1a>
10003c7e:	e7ed      	b.n	10003c5c <stdio_stack_buffer_flush+0x10>
10003c80:	2300      	movs	r3, #0
10003c82:	602b      	str	r3, [r5, #0]
10003c84:	bd70      	pop	{r4, r5, r6, pc}
10003c86:	46c0      	nop			; (mov r8, r8)
10003c88:	20000e24 	.word	0x20000e24
10003c8c:	20000e2c 	.word	0x20000e2c

10003c90 <stdio_buffered_printer>:
10003c90:	b570      	push	{r4, r5, r6, lr}
10003c92:	0005      	movs	r5, r0
10003c94:	000c      	movs	r4, r1
10003c96:	680b      	ldr	r3, [r1, #0]
10003c98:	2b80      	cmp	r3, #128	; 0x80
10003c9a:	d005      	beq.n	10003ca8 <stdio_buffered_printer+0x18>
10003c9c:	6821      	ldr	r1, [r4, #0]
10003c9e:	1c4b      	adds	r3, r1, #1
10003ca0:	6023      	str	r3, [r4, #0]
10003ca2:	1864      	adds	r4, r4, r1
10003ca4:	7125      	strb	r5, [r4, #4]
10003ca6:	bd70      	pop	{r4, r5, r6, pc}
10003ca8:	0008      	movs	r0, r1
10003caa:	f7ff ffcf 	bl	10003c4c <stdio_stack_buffer_flush>
10003cae:	e7f5      	b.n	10003c9c <stdio_buffered_printer+0xc>

10003cb0 <stdout_serialize_begin>:
10003cb0:	b510      	push	{r4, lr}
10003cb2:	b082      	sub	sp, #8
10003cb4:	23d0      	movs	r3, #208	; 0xd0
10003cb6:	061b      	lsls	r3, r3, #24
10003cb8:	2400      	movs	r4, #0
10003cba:	571c      	ldrsb	r4, [r3, r4]
10003cbc:	a901      	add	r1, sp, #4
10003cbe:	4807      	ldr	r0, [pc, #28]	; (10003cdc <stdout_serialize_begin+0x2c>)
10003cc0:	f002 ff0e 	bl	10006ae0 <__mutex_try_enter_veneer>
10003cc4:	2800      	cmp	r0, #0
10003cc6:	d106      	bne.n	10003cd6 <stdout_serialize_begin+0x26>
10003cc8:	9b01      	ldr	r3, [sp, #4]
10003cca:	429c      	cmp	r4, r3
10003ccc:	d003      	beq.n	10003cd6 <stdout_serialize_begin+0x26>
10003cce:	4803      	ldr	r0, [pc, #12]	; (10003cdc <stdout_serialize_begin+0x2c>)
10003cd0:	f002 ff0e 	bl	10006af0 <__mutex_enter_blocking_veneer>
10003cd4:	2001      	movs	r0, #1
10003cd6:	b002      	add	sp, #8
10003cd8:	bd10      	pop	{r4, pc}
10003cda:	46c0      	nop			; (mov r8, r8)
10003cdc:	20000aa8 	.word	0x20000aa8

10003ce0 <stdout_serialize_end>:
10003ce0:	b510      	push	{r4, lr}
10003ce2:	4802      	ldr	r0, [pc, #8]	; (10003cec <stdout_serialize_end+0xc>)
10003ce4:	f002 fee4 	bl	10006ab0 <__mutex_exit_veneer>
10003ce8:	bd10      	pop	{r4, pc}
10003cea:	46c0      	nop			; (mov r8, r8)
10003cec:	20000aa8 	.word	0x20000aa8

10003cf0 <stdio_put_string>:
10003cf0:	b5f0      	push	{r4, r5, r6, r7, lr}
10003cf2:	46ce      	mov	lr, r9
10003cf4:	4647      	mov	r7, r8
10003cf6:	b580      	push	{r7, lr}
10003cf8:	b083      	sub	sp, #12
10003cfa:	0006      	movs	r6, r0
10003cfc:	000d      	movs	r5, r1
10003cfe:	4690      	mov	r8, r2
10003d00:	001c      	movs	r4, r3
10003d02:	f7ff ffd5 	bl	10003cb0 <stdout_serialize_begin>
10003d06:	4681      	mov	r9, r0
10003d08:	1c6b      	adds	r3, r5, #1
10003d0a:	d005      	beq.n	10003d18 <stdio_put_string+0x28>
10003d0c:	2c00      	cmp	r4, #0
10003d0e:	d008      	beq.n	10003d22 <stdio_put_string+0x32>
10003d10:	4f19      	ldr	r7, [pc, #100]	; (10003d78 <stdio_put_string+0x88>)
10003d12:	4b1a      	ldr	r3, [pc, #104]	; (10003d7c <stdio_put_string+0x8c>)
10003d14:	681c      	ldr	r4, [r3, #0]
10003d16:	e007      	b.n	10003d28 <stdio_put_string+0x38>
10003d18:	0030      	movs	r0, r6
10003d1a:	f002 fd63 	bl	100067e4 <strlen>
10003d1e:	0005      	movs	r5, r0
10003d20:	e7f4      	b.n	10003d0c <stdio_put_string+0x1c>
10003d22:	4f17      	ldr	r7, [pc, #92]	; (10003d80 <stdio_put_string+0x90>)
10003d24:	e7f5      	b.n	10003d12 <stdio_put_string+0x22>
10003d26:	68e4      	ldr	r4, [r4, #12]
10003d28:	2c00      	cmp	r4, #0
10003d2a:	d017      	beq.n	10003d5c <stdio_put_string+0x6c>
10003d2c:	6823      	ldr	r3, [r4, #0]
10003d2e:	2b00      	cmp	r3, #0
10003d30:	d0f9      	beq.n	10003d26 <stdio_put_string+0x36>
10003d32:	4b14      	ldr	r3, [pc, #80]	; (10003d84 <stdio_put_string+0x94>)
10003d34:	681b      	ldr	r3, [r3, #0]
10003d36:	2b00      	cmp	r3, #0
10003d38:	d001      	beq.n	10003d3e <stdio_put_string+0x4e>
10003d3a:	42a3      	cmp	r3, r4
10003d3c:	d1f3      	bne.n	10003d26 <stdio_put_string+0x36>
10003d3e:	002a      	movs	r2, r5
10003d40:	0031      	movs	r1, r6
10003d42:	0020      	movs	r0, r4
10003d44:	47b8      	blx	r7
10003d46:	4643      	mov	r3, r8
10003d48:	2b00      	cmp	r3, #0
10003d4a:	d0ec      	beq.n	10003d26 <stdio_put_string+0x36>
10003d4c:	466b      	mov	r3, sp
10003d4e:	1dd9      	adds	r1, r3, #7
10003d50:	230a      	movs	r3, #10
10003d52:	700b      	strb	r3, [r1, #0]
10003d54:	2201      	movs	r2, #1
10003d56:	0020      	movs	r0, r4
10003d58:	47b8      	blx	r7
10003d5a:	e7e4      	b.n	10003d26 <stdio_put_string+0x36>
10003d5c:	464b      	mov	r3, r9
10003d5e:	2b00      	cmp	r3, #0
10003d60:	d107      	bne.n	10003d72 <stdio_put_string+0x82>
10003d62:	1e6b      	subs	r3, r5, #1
10003d64:	419d      	sbcs	r5, r3
10003d66:	b2e8      	uxtb	r0, r5
10003d68:	b003      	add	sp, #12
10003d6a:	bcc0      	pop	{r6, r7}
10003d6c:	46b9      	mov	r9, r7
10003d6e:	46b0      	mov	r8, r6
10003d70:	bdf0      	pop	{r4, r5, r6, r7, pc}
10003d72:	f7ff ffb5 	bl	10003ce0 <stdout_serialize_end>
10003d76:	e7f4      	b.n	10003d62 <stdio_put_string+0x72>
10003d78:	10003bbd 	.word	0x10003bbd
10003d7c:	20000e24 	.word	0x20000e24
10003d80:	10003bcd 	.word	0x10003bcd
10003d84:	20000e2c 	.word	0x20000e2c

10003d88 <stdio_set_driver_enabled>:
10003d88:	4b0c      	ldr	r3, [pc, #48]	; (10003dbc <stdio_set_driver_enabled+0x34>)
10003d8a:	681a      	ldr	r2, [r3, #0]
10003d8c:	0013      	movs	r3, r2
10003d8e:	e001      	b.n	10003d94 <stdio_set_driver_enabled+0xc>
10003d90:	001a      	movs	r2, r3
10003d92:	68db      	ldr	r3, [r3, #12]
10003d94:	2b00      	cmp	r3, #0
10003d96:	d008      	beq.n	10003daa <stdio_set_driver_enabled+0x22>
10003d98:	4283      	cmp	r3, r0
10003d9a:	d1f9      	bne.n	10003d90 <stdio_set_driver_enabled+0x8>
10003d9c:	2900      	cmp	r1, #0
10003d9e:	d103      	bne.n	10003da8 <stdio_set_driver_enabled+0x20>
10003da0:	68db      	ldr	r3, [r3, #12]
10003da2:	60d3      	str	r3, [r2, #12]
10003da4:	2300      	movs	r3, #0
10003da6:	60c3      	str	r3, [r0, #12]
10003da8:	4770      	bx	lr
10003daa:	2900      	cmp	r1, #0
10003dac:	d0fc      	beq.n	10003da8 <stdio_set_driver_enabled+0x20>
10003dae:	2a00      	cmp	r2, #0
10003db0:	d001      	beq.n	10003db6 <stdio_set_driver_enabled+0x2e>
10003db2:	60d0      	str	r0, [r2, #12]
10003db4:	e7f8      	b.n	10003da8 <stdio_set_driver_enabled+0x20>
10003db6:	4b01      	ldr	r3, [pc, #4]	; (10003dbc <stdio_set_driver_enabled+0x34>)
10003db8:	6018      	str	r0, [r3, #0]
10003dba:	e7f5      	b.n	10003da8 <stdio_set_driver_enabled+0x20>
10003dbc:	20000e24 	.word	0x20000e24

10003dc0 <stdio_flush>:
10003dc0:	b510      	push	{r4, lr}
10003dc2:	4b06      	ldr	r3, [pc, #24]	; (10003ddc <stdio_flush+0x1c>)
10003dc4:	681c      	ldr	r4, [r3, #0]
10003dc6:	e001      	b.n	10003dcc <stdio_flush+0xc>
10003dc8:	4798      	blx	r3
10003dca:	68e4      	ldr	r4, [r4, #12]
10003dcc:	2c00      	cmp	r4, #0
10003dce:	d003      	beq.n	10003dd8 <stdio_flush+0x18>
10003dd0:	6863      	ldr	r3, [r4, #4]
10003dd2:	2b00      	cmp	r3, #0
10003dd4:	d1f8      	bne.n	10003dc8 <stdio_flush+0x8>
10003dd6:	e7f8      	b.n	10003dca <stdio_flush+0xa>
10003dd8:	bd10      	pop	{r4, pc}
10003dda:	46c0      	nop			; (mov r8, r8)
10003ddc:	20000e24 	.word	0x20000e24

10003de0 <__wrap_puts>:
10003de0:	b570      	push	{r4, r5, r6, lr}
10003de2:	0005      	movs	r5, r0
10003de4:	f002 fcfe 	bl	100067e4 <strlen>
10003de8:	0004      	movs	r4, r0
10003dea:	2300      	movs	r3, #0
10003dec:	2201      	movs	r2, #1
10003dee:	0001      	movs	r1, r0
10003df0:	0028      	movs	r0, r5
10003df2:	f7ff ff7d 	bl	10003cf0 <stdio_put_string>
10003df6:	f7ff ffe3 	bl	10003dc0 <stdio_flush>
10003dfa:	0020      	movs	r0, r4
10003dfc:	bd70      	pop	{r4, r5, r6, pc}
	...

10003e00 <__wrap_vprintf>:
10003e00:	b570      	push	{r4, r5, r6, lr}
10003e02:	b0a2      	sub	sp, #136	; 0x88
10003e04:	0004      	movs	r4, r0
10003e06:	000e      	movs	r6, r1
10003e08:	f7ff ff52 	bl	10003cb0 <stdout_serialize_begin>
10003e0c:	0005      	movs	r5, r0
10003e0e:	2284      	movs	r2, #132	; 0x84
10003e10:	2100      	movs	r1, #0
10003e12:	a801      	add	r0, sp, #4
10003e14:	f7ff fec6 	bl	10003ba4 <__wrap_memset>
10003e18:	0033      	movs	r3, r6
10003e1a:	0022      	movs	r2, r4
10003e1c:	a901      	add	r1, sp, #4
10003e1e:	4808      	ldr	r0, [pc, #32]	; (10003e40 <__wrap_vprintf+0x40>)
10003e20:	f7fe ff5a 	bl	10002cd8 <vfctprintf>
10003e24:	0004      	movs	r4, r0
10003e26:	a801      	add	r0, sp, #4
10003e28:	f7ff ff10 	bl	10003c4c <stdio_stack_buffer_flush>
10003e2c:	f7ff ffc8 	bl	10003dc0 <stdio_flush>
10003e30:	2d00      	cmp	r5, #0
10003e32:	d102      	bne.n	10003e3a <__wrap_vprintf+0x3a>
10003e34:	0020      	movs	r0, r4
10003e36:	b022      	add	sp, #136	; 0x88
10003e38:	bd70      	pop	{r4, r5, r6, pc}
10003e3a:	f7ff ff51 	bl	10003ce0 <stdout_serialize_end>
10003e3e:	e7f9      	b.n	10003e34 <__wrap_vprintf+0x34>
10003e40:	10003c91 	.word	0x10003c91

10003e44 <__wrap_printf>:
10003e44:	b40f      	push	{r0, r1, r2, r3}
10003e46:	b500      	push	{lr}
10003e48:	b083      	sub	sp, #12
10003e4a:	a904      	add	r1, sp, #16
10003e4c:	c901      	ldmia	r1!, {r0}
10003e4e:	9101      	str	r1, [sp, #4]
10003e50:	f7ff ffd6 	bl	10003e00 <__wrap_vprintf>
10003e54:	b003      	add	sp, #12
10003e56:	bc08      	pop	{r3}
10003e58:	b004      	add	sp, #16
10003e5a:	4718      	bx	r3

10003e5c <stdio_init_all>:
10003e5c:	b510      	push	{r4, lr}
10003e5e:	f000 f885 	bl	10003f6c <stdio_uart_init>
10003e62:	bd10      	pop	{r4, pc}

10003e64 <stdio_uart_out_chars>:
10003e64:	b5f0      	push	{r4, r5, r6, r7, lr}
10003e66:	b083      	sub	sp, #12
10003e68:	0005      	movs	r5, r0
10003e6a:	000e      	movs	r6, r1
10003e6c:	2400      	movs	r4, #0
10003e6e:	e00f      	b.n	10003e90 <stdio_uart_out_chars+0x2c>
10003e70:	466b      	mov	r3, sp
10003e72:	1dd9      	adds	r1, r3, #7
10003e74:	230d      	movs	r3, #13
10003e76:	700b      	strb	r3, [r1, #0]
10003e78:	2000      	movs	r0, #0
10003e7a:	2800      	cmp	r0, #0
10003e7c:	d116      	bne.n	10003eac <stdio_uart_out_chars+0x48>
10003e7e:	6993      	ldr	r3, [r2, #24]
10003e80:	069b      	lsls	r3, r3, #26
10003e82:	d4fc      	bmi.n	10003e7e <stdio_uart_out_chars+0x1a>
10003e84:	780b      	ldrb	r3, [r1, #0]
10003e86:	6013      	str	r3, [r2, #0]
10003e88:	3001      	adds	r0, #1
10003e8a:	3101      	adds	r1, #1
10003e8c:	e7f5      	b.n	10003e7a <stdio_uart_out_chars+0x16>
10003e8e:	3401      	adds	r4, #1
10003e90:	42b4      	cmp	r4, r6
10003e92:	da19      	bge.n	10003ec8 <stdio_uart_out_chars+0x64>
10003e94:	4b0d      	ldr	r3, [pc, #52]	; (10003ecc <stdio_uart_out_chars+0x68>)
10003e96:	681a      	ldr	r2, [r3, #0]
10003e98:	5d2f      	ldrb	r7, [r5, r4]
10003e9a:	4b0d      	ldr	r3, [pc, #52]	; (10003ed0 <stdio_uart_out_chars+0x6c>)
10003e9c:	18d3      	adds	r3, r2, r3
10003e9e:	4259      	negs	r1, r3
10003ea0:	414b      	adcs	r3, r1
10003ea2:	005b      	lsls	r3, r3, #1
10003ea4:	490b      	ldr	r1, [pc, #44]	; (10003ed4 <stdio_uart_out_chars+0x70>)
10003ea6:	5e5b      	ldrsh	r3, [r3, r1]
10003ea8:	42bb      	cmp	r3, r7
10003eaa:	d0e1      	beq.n	10003e70 <stdio_uart_out_chars+0xc>
10003eac:	466b      	mov	r3, sp
10003eae:	1dd9      	adds	r1, r3, #7
10003eb0:	700f      	strb	r7, [r1, #0]
10003eb2:	2000      	movs	r0, #0
10003eb4:	2800      	cmp	r0, #0
10003eb6:	d1ea      	bne.n	10003e8e <stdio_uart_out_chars+0x2a>
10003eb8:	6993      	ldr	r3, [r2, #24]
10003eba:	069b      	lsls	r3, r3, #26
10003ebc:	d4fc      	bmi.n	10003eb8 <stdio_uart_out_chars+0x54>
10003ebe:	780b      	ldrb	r3, [r1, #0]
10003ec0:	6013      	str	r3, [r2, #0]
10003ec2:	3001      	adds	r0, #1
10003ec4:	3101      	adds	r1, #1
10003ec6:	e7f5      	b.n	10003eb4 <stdio_uart_out_chars+0x50>
10003ec8:	b003      	add	sp, #12
10003eca:	bdf0      	pop	{r4, r5, r6, r7, pc}
10003ecc:	20001060 	.word	0x20001060
10003ed0:	bffc8000 	.word	0xbffc8000
10003ed4:	2000105c 	.word	0x2000105c

10003ed8 <stdio_uart_in_chars>:
10003ed8:	b5f0      	push	{r4, r5, r6, r7, lr}
10003eda:	b083      	sub	sp, #12
10003edc:	0006      	movs	r6, r0
10003ede:	000f      	movs	r7, r1
10003ee0:	2000      	movs	r0, #0
10003ee2:	e004      	b.n	10003eee <stdio_uart_in_chars+0x16>
10003ee4:	466b      	mov	r3, sp
10003ee6:	3307      	adds	r3, #7
10003ee8:	781b      	ldrb	r3, [r3, #0]
10003eea:	7023      	strb	r3, [r4, #0]
10003eec:	0028      	movs	r0, r5
10003eee:	42b8      	cmp	r0, r7
10003ef0:	da15      	bge.n	10003f1e <stdio_uart_in_chars+0x46>
10003ef2:	4b0e      	ldr	r3, [pc, #56]	; (10003f2c <stdio_uart_in_chars+0x54>)
10003ef4:	681a      	ldr	r2, [r3, #0]
10003ef6:	6993      	ldr	r3, [r2, #24]
10003ef8:	2410      	movs	r4, #16
10003efa:	0021      	movs	r1, r4
10003efc:	4019      	ands	r1, r3
10003efe:	421c      	tst	r4, r3
10003f00:	d10d      	bne.n	10003f1e <stdio_uart_in_chars+0x46>
10003f02:	1c45      	adds	r5, r0, #1
10003f04:	1834      	adds	r4, r6, r0
10003f06:	466b      	mov	r3, sp
10003f08:	1dd8      	adds	r0, r3, #7
10003f0a:	2900      	cmp	r1, #0
10003f0c:	d1ea      	bne.n	10003ee4 <stdio_uart_in_chars+0xc>
10003f0e:	6993      	ldr	r3, [r2, #24]
10003f10:	06db      	lsls	r3, r3, #27
10003f12:	d4fc      	bmi.n	10003f0e <stdio_uart_in_chars+0x36>
10003f14:	6813      	ldr	r3, [r2, #0]
10003f16:	7003      	strb	r3, [r0, #0]
10003f18:	3101      	adds	r1, #1
10003f1a:	3001      	adds	r0, #1
10003f1c:	e7f5      	b.n	10003f0a <stdio_uart_in_chars+0x32>
10003f1e:	2800      	cmp	r0, #0
10003f20:	d001      	beq.n	10003f26 <stdio_uart_in_chars+0x4e>
10003f22:	b003      	add	sp, #12
10003f24:	bdf0      	pop	{r4, r5, r6, r7, pc}
10003f26:	3803      	subs	r0, #3
10003f28:	e7fb      	b.n	10003f22 <stdio_uart_in_chars+0x4a>
10003f2a:	46c0      	nop			; (mov r8, r8)
10003f2c:	20001060 	.word	0x20001060

10003f30 <stdio_uart_init_full>:
10003f30:	b570      	push	{r4, r5, r6, lr}
10003f32:	0015      	movs	r5, r2
10003f34:	001c      	movs	r4, r3
10003f36:	4b0b      	ldr	r3, [pc, #44]	; (10003f64 <stdio_uart_init_full+0x34>)
10003f38:	6018      	str	r0, [r3, #0]
10003f3a:	f7fc fad1 	bl	100004e0 <uart_init>
10003f3e:	2d00      	cmp	r5, #0
10003f40:	da06      	bge.n	10003f50 <stdio_uart_init_full+0x20>
10003f42:	2c00      	cmp	r4, #0
10003f44:	da09      	bge.n	10003f5a <stdio_uart_init_full+0x2a>
10003f46:	2101      	movs	r1, #1
10003f48:	4807      	ldr	r0, [pc, #28]	; (10003f68 <stdio_uart_init_full+0x38>)
10003f4a:	f7ff ff1d 	bl	10003d88 <stdio_set_driver_enabled>
10003f4e:	bd70      	pop	{r4, r5, r6, pc}
10003f50:	2102      	movs	r1, #2
10003f52:	0028      	movs	r0, r5
10003f54:	f7fc fa06 	bl	10000364 <gpio_set_function>
10003f58:	e7f3      	b.n	10003f42 <stdio_uart_init_full+0x12>
10003f5a:	2102      	movs	r1, #2
10003f5c:	0020      	movs	r0, r4
10003f5e:	f7fc fa01 	bl	10000364 <gpio_set_function>
10003f62:	e7f0      	b.n	10003f46 <stdio_uart_init_full+0x16>
10003f64:	20001060 	.word	0x20001060
10003f68:	20000250 	.word	0x20000250

10003f6c <stdio_uart_init>:
10003f6c:	b510      	push	{r4, lr}
10003f6e:	4b06      	ldr	r3, [pc, #24]	; (10003f88 <stdio_uart_init+0x1c>)
10003f70:	781b      	ldrb	r3, [r3, #0]
10003f72:	4b06      	ldr	r3, [pc, #24]	; (10003f8c <stdio_uart_init+0x20>)
10003f74:	781b      	ldrb	r3, [r3, #0]
10003f76:	21e1      	movs	r1, #225	; 0xe1
10003f78:	2301      	movs	r3, #1
10003f7a:	2200      	movs	r2, #0
10003f7c:	0249      	lsls	r1, r1, #9
10003f7e:	4804      	ldr	r0, [pc, #16]	; (10003f90 <stdio_uart_init+0x24>)
10003f80:	f7ff ffd6 	bl	10003f30 <stdio_uart_init_full>
10003f84:	bd10      	pop	{r4, pc}
10003f86:	46c0      	nop			; (mov r8, r8)
10003f88:	10007998 	.word	0x10007998
10003f8c:	1000799c 	.word	0x1000799c
10003f90:	40034000 	.word	0x40034000

10003f94 <prvTaskIsTaskSuspended>:
10003f94:	4b08      	ldr	r3, [pc, #32]	; (10003fb8 <prvTaskIsTaskSuspended+0x24>)
10003f96:	6942      	ldr	r2, [r0, #20]
10003f98:	429a      	cmp	r2, r3
10003f9a:	d001      	beq.n	10003fa0 <prvTaskIsTaskSuspended+0xc>
10003f9c:	2000      	movs	r0, #0
10003f9e:	4770      	bx	lr
10003fa0:	6a82      	ldr	r2, [r0, #40]	; 0x28
10003fa2:	3314      	adds	r3, #20
10003fa4:	429a      	cmp	r2, r3
10003fa6:	d003      	beq.n	10003fb0 <prvTaskIsTaskSuspended+0x1c>
10003fa8:	2a00      	cmp	r2, #0
10003faa:	d003      	beq.n	10003fb4 <prvTaskIsTaskSuspended+0x20>
10003fac:	2000      	movs	r0, #0
10003fae:	e7f6      	b.n	10003f9e <prvTaskIsTaskSuspended+0xa>
10003fb0:	2000      	movs	r0, #0
10003fb2:	e7f4      	b.n	10003f9e <prvTaskIsTaskSuspended+0xa>
10003fb4:	2001      	movs	r0, #1
10003fb6:	e7f2      	b.n	10003f9e <prvTaskIsTaskSuspended+0xa>
10003fb8:	20000be4 	.word	0x20000be4

10003fbc <prvResetNextTaskUnblockTime>:
10003fbc:	4b07      	ldr	r3, [pc, #28]	; (10003fdc <prvResetNextTaskUnblockTime+0x20>)
10003fbe:	6a9b      	ldr	r3, [r3, #40]	; 0x28
10003fc0:	681b      	ldr	r3, [r3, #0]
10003fc2:	2b00      	cmp	r3, #0
10003fc4:	d104      	bne.n	10003fd0 <prvResetNextTaskUnblockTime+0x14>
10003fc6:	4b05      	ldr	r3, [pc, #20]	; (10003fdc <prvResetNextTaskUnblockTime+0x20>)
10003fc8:	2201      	movs	r2, #1
10003fca:	4252      	negs	r2, r2
10003fcc:	62da      	str	r2, [r3, #44]	; 0x2c
10003fce:	4770      	bx	lr
10003fd0:	4b02      	ldr	r3, [pc, #8]	; (10003fdc <prvResetNextTaskUnblockTime+0x20>)
10003fd2:	6a9a      	ldr	r2, [r3, #40]	; 0x28
10003fd4:	68d2      	ldr	r2, [r2, #12]
10003fd6:	6812      	ldr	r2, [r2, #0]
10003fd8:	62da      	str	r2, [r3, #44]	; 0x2c
10003fda:	e7f8      	b.n	10003fce <prvResetNextTaskUnblockTime+0x12>
10003fdc:	20000be4 	.word	0x20000be4

10003fe0 <prvDeleteTCB>:
10003fe0:	b510      	push	{r4, lr}
10003fe2:	0004      	movs	r4, r0
10003fe4:	6b00      	ldr	r0, [r0, #48]	; 0x30
10003fe6:	f001 fb63 	bl	100056b0 <vPortFree>
10003fea:	0020      	movs	r0, r4
10003fec:	f001 fb60 	bl	100056b0 <vPortFree>
10003ff0:	bd10      	pop	{r4, pc}

10003ff2 <prvInitialiseNewTask>:
10003ff2:	b5f0      	push	{r4, r5, r6, r7, lr}
10003ff4:	46de      	mov	lr, fp
10003ff6:	4657      	mov	r7, sl
10003ff8:	464e      	mov	r6, r9
10003ffa:	b5c0      	push	{r6, r7, lr}
10003ffc:	4682      	mov	sl, r0
10003ffe:	469b      	mov	fp, r3
10004000:	9e08      	ldr	r6, [sp, #32]
10004002:	9f0a      	ldr	r7, [sp, #40]	; 0x28
10004004:	4b1c      	ldr	r3, [pc, #112]	; (10004078 <prvInitialiseNewTask+0x86>)
10004006:	469c      	mov	ip, r3
10004008:	4462      	add	r2, ip
1000400a:	0092      	lsls	r2, r2, #2
1000400c:	6b3b      	ldr	r3, [r7, #48]	; 0x30
1000400e:	469c      	mov	ip, r3
10004010:	4462      	add	r2, ip
10004012:	2307      	movs	r3, #7
10004014:	439a      	bics	r2, r3
10004016:	4691      	mov	r9, r2
10004018:	2900      	cmp	r1, #0
1000401a:	d00e      	beq.n	1000403a <prvInitialiseNewTask+0x48>
1000401c:	2400      	movs	r4, #0
1000401e:	2c0f      	cmp	r4, #15
10004020:	d808      	bhi.n	10004034 <prvInitialiseNewTask+0x42>
10004022:	5d0b      	ldrb	r3, [r1, r4]
10004024:	193d      	adds	r5, r7, r4
10004026:	3534      	adds	r5, #52	; 0x34
10004028:	702b      	strb	r3, [r5, #0]
1000402a:	5d0b      	ldrb	r3, [r1, r4]
1000402c:	2b00      	cmp	r3, #0
1000402e:	d001      	beq.n	10004034 <prvInitialiseNewTask+0x42>
10004030:	3401      	adds	r4, #1
10004032:	e7f4      	b.n	1000401e <prvInitialiseNewTask+0x2c>
10004034:	2343      	movs	r3, #67	; 0x43
10004036:	2200      	movs	r2, #0
10004038:	54fa      	strb	r2, [r7, r3]
1000403a:	2e04      	cmp	r6, #4
1000403c:	d900      	bls.n	10004040 <prvInitialiseNewTask+0x4e>
1000403e:	2604      	movs	r6, #4
10004040:	62fe      	str	r6, [r7, #44]	; 0x2c
10004042:	1d38      	adds	r0, r7, #4
10004044:	f001 fc15 	bl	10005872 <vListInitialiseItem>
10004048:	0038      	movs	r0, r7
1000404a:	3018      	adds	r0, #24
1000404c:	f001 fc11 	bl	10005872 <vListInitialiseItem>
10004050:	613f      	str	r7, [r7, #16]
10004052:	2305      	movs	r3, #5
10004054:	1b9e      	subs	r6, r3, r6
10004056:	61be      	str	r6, [r7, #24]
10004058:	627f      	str	r7, [r7, #36]	; 0x24
1000405a:	465a      	mov	r2, fp
1000405c:	4651      	mov	r1, sl
1000405e:	4648      	mov	r0, r9
10004060:	f001 fb58 	bl	10005714 <pxPortInitialiseStack>
10004064:	6038      	str	r0, [r7, #0]
10004066:	9b09      	ldr	r3, [sp, #36]	; 0x24
10004068:	2b00      	cmp	r3, #0
1000406a:	d000      	beq.n	1000406e <prvInitialiseNewTask+0x7c>
1000406c:	601f      	str	r7, [r3, #0]
1000406e:	bce0      	pop	{r5, r6, r7}
10004070:	46bb      	mov	fp, r7
10004072:	46b2      	mov	sl, r6
10004074:	46a9      	mov	r9, r5
10004076:	bdf0      	pop	{r4, r5, r6, r7, pc}
10004078:	3fffffff 	.word	0x3fffffff

1000407c <prvInitialiseTaskLists>:
1000407c:	b5f8      	push	{r3, r4, r5, r6, r7, lr}
1000407e:	2400      	movs	r4, #0
10004080:	e008      	b.n	10004094 <prvInitialiseTaskLists+0x18>
10004082:	4812      	ldr	r0, [pc, #72]	; (100040cc <prvInitialiseTaskLists+0x50>)
10004084:	00a3      	lsls	r3, r4, #2
10004086:	191b      	adds	r3, r3, r4
10004088:	009a      	lsls	r2, r3, #2
1000408a:	3030      	adds	r0, #48	; 0x30
1000408c:	1880      	adds	r0, r0, r2
1000408e:	f001 fbe5 	bl	1000585c <vListInitialise>
10004092:	3401      	adds	r4, #1
10004094:	2c04      	cmp	r4, #4
10004096:	d9f4      	bls.n	10004082 <prvInitialiseTaskLists+0x6>
10004098:	4c0d      	ldr	r4, [pc, #52]	; (100040d0 <prvInitialiseTaskLists+0x54>)
1000409a:	0027      	movs	r7, r4
1000409c:	3714      	adds	r7, #20
1000409e:	0038      	movs	r0, r7
100040a0:	f001 fbdc 	bl	1000585c <vListInitialise>
100040a4:	0026      	movs	r6, r4
100040a6:	3628      	adds	r6, #40	; 0x28
100040a8:	0030      	movs	r0, r6
100040aa:	f001 fbd7 	bl	1000585c <vListInitialise>
100040ae:	4d07      	ldr	r5, [pc, #28]	; (100040cc <prvInitialiseTaskLists+0x50>)
100040b0:	0028      	movs	r0, r5
100040b2:	3014      	adds	r0, #20
100040b4:	f001 fbd2 	bl	1000585c <vListInitialise>
100040b8:	0020      	movs	r0, r4
100040ba:	303c      	adds	r0, #60	; 0x3c
100040bc:	f001 fbce 	bl	1000585c <vListInitialise>
100040c0:	0028      	movs	r0, r5
100040c2:	f001 fbcb 	bl	1000585c <vListInitialise>
100040c6:	62af      	str	r7, [r5, #40]	; 0x28
100040c8:	6526      	str	r6, [r4, #80]	; 0x50
100040ca:	bdf8      	pop	{r3, r4, r5, r6, r7, pc}
100040cc:	20000be4 	.word	0x20000be4
100040d0:	20000c64 	.word	0x20000c64

100040d4 <prvAddNewTaskToReadyList>:
100040d4:	b570      	push	{r4, r5, r6, lr}
100040d6:	0004      	movs	r4, r0
100040d8:	f001 fb3a 	bl	10005750 <vPortEnterCritical>
100040dc:	4b27      	ldr	r3, [pc, #156]	; (1000417c <prvAddNewTaskToReadyList+0xa8>)
100040de:	6d5a      	ldr	r2, [r3, #84]	; 0x54
100040e0:	3201      	adds	r2, #1
100040e2:	655a      	str	r2, [r3, #84]	; 0x54
100040e4:	6d9b      	ldr	r3, [r3, #88]	; 0x58
100040e6:	2b00      	cmp	r3, #0
100040e8:	d00c      	beq.n	10004104 <prvAddNewTaskToReadyList+0x30>
100040ea:	4b24      	ldr	r3, [pc, #144]	; (1000417c <prvAddNewTaskToReadyList+0xa8>)
100040ec:	6ddb      	ldr	r3, [r3, #92]	; 0x5c
100040ee:	2b00      	cmp	r3, #0
100040f0:	d10d      	bne.n	1000410e <prvAddNewTaskToReadyList+0x3a>
100040f2:	4b22      	ldr	r3, [pc, #136]	; (1000417c <prvAddNewTaskToReadyList+0xa8>)
100040f4:	6d9b      	ldr	r3, [r3, #88]	; 0x58
100040f6:	6adb      	ldr	r3, [r3, #44]	; 0x2c
100040f8:	6ae2      	ldr	r2, [r4, #44]	; 0x2c
100040fa:	4293      	cmp	r3, r2
100040fc:	d807      	bhi.n	1000410e <prvAddNewTaskToReadyList+0x3a>
100040fe:	4b1f      	ldr	r3, [pc, #124]	; (1000417c <prvAddNewTaskToReadyList+0xa8>)
10004100:	659c      	str	r4, [r3, #88]	; 0x58
10004102:	e004      	b.n	1000410e <prvAddNewTaskToReadyList+0x3a>
10004104:	4b1d      	ldr	r3, [pc, #116]	; (1000417c <prvAddNewTaskToReadyList+0xa8>)
10004106:	659c      	str	r4, [r3, #88]	; 0x58
10004108:	6d5b      	ldr	r3, [r3, #84]	; 0x54
1000410a:	2b01      	cmp	r3, #1
1000410c:	d02f      	beq.n	1000416e <prvAddNewTaskToReadyList+0x9a>
1000410e:	4a1b      	ldr	r2, [pc, #108]	; (1000417c <prvAddNewTaskToReadyList+0xa8>)
10004110:	6e13      	ldr	r3, [r2, #96]	; 0x60
10004112:	3301      	adds	r3, #1
10004114:	6613      	str	r3, [r2, #96]	; 0x60
10004116:	6ae3      	ldr	r3, [r4, #44]	; 0x2c
10004118:	6e52      	ldr	r2, [r2, #100]	; 0x64
1000411a:	4293      	cmp	r3, r2
1000411c:	d901      	bls.n	10004122 <prvAddNewTaskToReadyList+0x4e>
1000411e:	4a17      	ldr	r2, [pc, #92]	; (1000417c <prvAddNewTaskToReadyList+0xa8>)
10004120:	6653      	str	r3, [r2, #100]	; 0x64
10004122:	4917      	ldr	r1, [pc, #92]	; (10004180 <prvAddNewTaskToReadyList+0xac>)
10004124:	009a      	lsls	r2, r3, #2
10004126:	18d2      	adds	r2, r2, r3
10004128:	0092      	lsls	r2, r2, #2
1000412a:	188a      	adds	r2, r1, r2
1000412c:	6b53      	ldr	r3, [r2, #52]	; 0x34
1000412e:	60a3      	str	r3, [r4, #8]
10004130:	6898      	ldr	r0, [r3, #8]
10004132:	60e0      	str	r0, [r4, #12]
10004134:	1d22      	adds	r2, r4, #4
10004136:	6042      	str	r2, [r0, #4]
10004138:	609a      	str	r2, [r3, #8]
1000413a:	6ae0      	ldr	r0, [r4, #44]	; 0x2c
1000413c:	000a      	movs	r2, r1
1000413e:	3230      	adds	r2, #48	; 0x30
10004140:	0083      	lsls	r3, r0, #2
10004142:	181d      	adds	r5, r3, r0
10004144:	00ad      	lsls	r5, r5, #2
10004146:	1952      	adds	r2, r2, r5
10004148:	6162      	str	r2, [r4, #20]
1000414a:	194a      	adds	r2, r1, r5
1000414c:	6b12      	ldr	r2, [r2, #48]	; 0x30
1000414e:	3201      	adds	r2, #1
10004150:	194b      	adds	r3, r1, r5
10004152:	631a      	str	r2, [r3, #48]	; 0x30
10004154:	f001 fb08 	bl	10005768 <vPortExitCritical>
10004158:	4b08      	ldr	r3, [pc, #32]	; (1000417c <prvAddNewTaskToReadyList+0xa8>)
1000415a:	6ddb      	ldr	r3, [r3, #92]	; 0x5c
1000415c:	2b00      	cmp	r3, #0
1000415e:	d005      	beq.n	1000416c <prvAddNewTaskToReadyList+0x98>
10004160:	4b06      	ldr	r3, [pc, #24]	; (1000417c <prvAddNewTaskToReadyList+0xa8>)
10004162:	6d9b      	ldr	r3, [r3, #88]	; 0x58
10004164:	6ada      	ldr	r2, [r3, #44]	; 0x2c
10004166:	6ae3      	ldr	r3, [r4, #44]	; 0x2c
10004168:	429a      	cmp	r2, r3
1000416a:	d303      	bcc.n	10004174 <prvAddNewTaskToReadyList+0xa0>
1000416c:	bd70      	pop	{r4, r5, r6, pc}
1000416e:	f7ff ff85 	bl	1000407c <prvInitialiseTaskLists>
10004172:	e7cc      	b.n	1000410e <prvAddNewTaskToReadyList+0x3a>
10004174:	f001 fae0 	bl	10005738 <vPortYield>
10004178:	e7f8      	b.n	1000416c <prvAddNewTaskToReadyList+0x98>
1000417a:	46c0      	nop			; (mov r8, r8)
1000417c:	20000c64 	.word	0x20000c64
10004180:	20000be4 	.word	0x20000be4

10004184 <prvCheckTasksWaitingTermination>:
10004184:	b570      	push	{r4, r5, r6, lr}
10004186:	e012      	b.n	100041ae <prvCheckTasksWaitingTermination+0x2a>
10004188:	f001 fae2 	bl	10005750 <vPortEnterCritical>
1000418c:	4c0a      	ldr	r4, [pc, #40]	; (100041b8 <prvCheckTasksWaitingTermination+0x34>)
1000418e:	6ca3      	ldr	r3, [r4, #72]	; 0x48
10004190:	68dd      	ldr	r5, [r3, #12]
10004192:	1d28      	adds	r0, r5, #4
10004194:	f001 fb92 	bl	100058bc <uxListRemove>
10004198:	6d63      	ldr	r3, [r4, #84]	; 0x54
1000419a:	3b01      	subs	r3, #1
1000419c:	6563      	str	r3, [r4, #84]	; 0x54
1000419e:	6ea3      	ldr	r3, [r4, #104]	; 0x68
100041a0:	3b01      	subs	r3, #1
100041a2:	66a3      	str	r3, [r4, #104]	; 0x68
100041a4:	f001 fae0 	bl	10005768 <vPortExitCritical>
100041a8:	0028      	movs	r0, r5
100041aa:	f7ff ff19 	bl	10003fe0 <prvDeleteTCB>
100041ae:	4b02      	ldr	r3, [pc, #8]	; (100041b8 <prvCheckTasksWaitingTermination+0x34>)
100041b0:	6e9b      	ldr	r3, [r3, #104]	; 0x68
100041b2:	2b00      	cmp	r3, #0
100041b4:	d1e8      	bne.n	10004188 <prvCheckTasksWaitingTermination+0x4>
100041b6:	bd70      	pop	{r4, r5, r6, pc}
100041b8:	20000c64 	.word	0x20000c64

100041bc <prvIdleTask>:
100041bc:	b510      	push	{r4, lr}
100041be:	f7ff ffe1 	bl	10004184 <prvCheckTasksWaitingTermination>
100041c2:	4b03      	ldr	r3, [pc, #12]	; (100041d0 <prvIdleTask+0x14>)
100041c4:	6b1b      	ldr	r3, [r3, #48]	; 0x30
100041c6:	2b01      	cmp	r3, #1
100041c8:	d9f9      	bls.n	100041be <prvIdleTask+0x2>
100041ca:	f001 fab5 	bl	10005738 <vPortYield>
100041ce:	e7f6      	b.n	100041be <prvIdleTask+0x2>
100041d0:	20000be4 	.word	0x20000be4

100041d4 <prvAddCurrentTaskToDelayedList>:
100041d4:	b570      	push	{r4, r5, r6, lr}
100041d6:	0004      	movs	r4, r0
100041d8:	000d      	movs	r5, r1
100041da:	4b1c      	ldr	r3, [pc, #112]	; (1000424c <prvAddCurrentTaskToDelayedList+0x78>)
100041dc:	6ede      	ldr	r6, [r3, #108]	; 0x6c
100041de:	6d98      	ldr	r0, [r3, #88]	; 0x58
100041e0:	3004      	adds	r0, #4
100041e2:	f001 fb6b 	bl	100058bc <uxListRemove>
100041e6:	1c63      	adds	r3, r4, #1
100041e8:	d00c      	beq.n	10004204 <prvAddCurrentTaskToDelayedList+0x30>
100041ea:	1934      	adds	r4, r6, r4
100041ec:	4b17      	ldr	r3, [pc, #92]	; (1000424c <prvAddCurrentTaskToDelayedList+0x78>)
100041ee:	6d9b      	ldr	r3, [r3, #88]	; 0x58
100041f0:	605c      	str	r4, [r3, #4]
100041f2:	42a6      	cmp	r6, r4
100041f4:	d91c      	bls.n	10004230 <prvAddCurrentTaskToDelayedList+0x5c>
100041f6:	4b15      	ldr	r3, [pc, #84]	; (1000424c <prvAddCurrentTaskToDelayedList+0x78>)
100041f8:	6d18      	ldr	r0, [r3, #80]	; 0x50
100041fa:	6d99      	ldr	r1, [r3, #88]	; 0x58
100041fc:	3104      	adds	r1, #4
100041fe:	f001 fb46 	bl	1000588e <vListInsert>
10004202:	bd70      	pop	{r4, r5, r6, pc}
10004204:	2d00      	cmp	r5, #0
10004206:	d0f0      	beq.n	100041ea <prvAddCurrentTaskToDelayedList+0x16>
10004208:	4a11      	ldr	r2, [pc, #68]	; (10004250 <prvAddCurrentTaskToDelayedList+0x7c>)
1000420a:	6851      	ldr	r1, [r2, #4]
1000420c:	4b0f      	ldr	r3, [pc, #60]	; (1000424c <prvAddCurrentTaskToDelayedList+0x78>)
1000420e:	6d98      	ldr	r0, [r3, #88]	; 0x58
10004210:	6081      	str	r1, [r0, #8]
10004212:	6d98      	ldr	r0, [r3, #88]	; 0x58
10004214:	688c      	ldr	r4, [r1, #8]
10004216:	60c4      	str	r4, [r0, #12]
10004218:	6d98      	ldr	r0, [r3, #88]	; 0x58
1000421a:	3004      	adds	r0, #4
1000421c:	6060      	str	r0, [r4, #4]
1000421e:	6d98      	ldr	r0, [r3, #88]	; 0x58
10004220:	3004      	adds	r0, #4
10004222:	6088      	str	r0, [r1, #8]
10004224:	6d9b      	ldr	r3, [r3, #88]	; 0x58
10004226:	615a      	str	r2, [r3, #20]
10004228:	6813      	ldr	r3, [r2, #0]
1000422a:	3301      	adds	r3, #1
1000422c:	6013      	str	r3, [r2, #0]
1000422e:	e7e8      	b.n	10004202 <prvAddCurrentTaskToDelayedList+0x2e>
10004230:	4d07      	ldr	r5, [pc, #28]	; (10004250 <prvAddCurrentTaskToDelayedList+0x7c>)
10004232:	6aa8      	ldr	r0, [r5, #40]	; 0x28
10004234:	4b05      	ldr	r3, [pc, #20]	; (1000424c <prvAddCurrentTaskToDelayedList+0x78>)
10004236:	6d99      	ldr	r1, [r3, #88]	; 0x58
10004238:	3104      	adds	r1, #4
1000423a:	f001 fb28 	bl	1000588e <vListInsert>
1000423e:	6aeb      	ldr	r3, [r5, #44]	; 0x2c
10004240:	42a3      	cmp	r3, r4
10004242:	d9de      	bls.n	10004202 <prvAddCurrentTaskToDelayedList+0x2e>
10004244:	4b02      	ldr	r3, [pc, #8]	; (10004250 <prvAddCurrentTaskToDelayedList+0x7c>)
10004246:	62dc      	str	r4, [r3, #44]	; 0x2c
10004248:	e7db      	b.n	10004202 <prvAddCurrentTaskToDelayedList+0x2e>
1000424a:	46c0      	nop			; (mov r8, r8)
1000424c:	20000c64 	.word	0x20000c64
10004250:	20000be4 	.word	0x20000be4

10004254 <xTaskCreate>:
10004254:	b5f0      	push	{r4, r5, r6, r7, lr}
10004256:	b087      	sub	sp, #28
10004258:	9004      	str	r0, [sp, #16]
1000425a:	9105      	str	r1, [sp, #20]
1000425c:	0016      	movs	r6, r2
1000425e:	001f      	movs	r7, r3
10004260:	0090      	lsls	r0, r2, #2
10004262:	f001 fa19 	bl	10005698 <pvPortMalloc>
10004266:	1e04      	subs	r4, r0, #0
10004268:	d021      	beq.n	100042ae <xTaskCreate+0x5a>
1000426a:	2068      	movs	r0, #104	; 0x68
1000426c:	f001 fa14 	bl	10005698 <pvPortMalloc>
10004270:	1e05      	subs	r5, r0, #0
10004272:	d018      	beq.n	100042a6 <xTaskCreate+0x52>
10004274:	2268      	movs	r2, #104	; 0x68
10004276:	2100      	movs	r1, #0
10004278:	f7ff fc94 	bl	10003ba4 <__wrap_memset>
1000427c:	632c      	str	r4, [r5, #48]	; 0x30
1000427e:	2d00      	cmp	r5, #0
10004280:	d019      	beq.n	100042b6 <xTaskCreate+0x62>
10004282:	2300      	movs	r3, #0
10004284:	9303      	str	r3, [sp, #12]
10004286:	9502      	str	r5, [sp, #8]
10004288:	9b0d      	ldr	r3, [sp, #52]	; 0x34
1000428a:	9301      	str	r3, [sp, #4]
1000428c:	9b0c      	ldr	r3, [sp, #48]	; 0x30
1000428e:	9300      	str	r3, [sp, #0]
10004290:	003b      	movs	r3, r7
10004292:	0032      	movs	r2, r6
10004294:	9905      	ldr	r1, [sp, #20]
10004296:	9804      	ldr	r0, [sp, #16]
10004298:	f7ff feab 	bl	10003ff2 <prvInitialiseNewTask>
1000429c:	0028      	movs	r0, r5
1000429e:	f7ff ff19 	bl	100040d4 <prvAddNewTaskToReadyList>
100042a2:	2001      	movs	r0, #1
100042a4:	e005      	b.n	100042b2 <xTaskCreate+0x5e>
100042a6:	0020      	movs	r0, r4
100042a8:	f001 fa02 	bl	100056b0 <vPortFree>
100042ac:	e7e7      	b.n	1000427e <xTaskCreate+0x2a>
100042ae:	2001      	movs	r0, #1
100042b0:	4240      	negs	r0, r0
100042b2:	b007      	add	sp, #28
100042b4:	bdf0      	pop	{r4, r5, r6, r7, pc}
100042b6:	2001      	movs	r0, #1
100042b8:	4240      	negs	r0, r0
100042ba:	e7fa      	b.n	100042b2 <xTaskCreate+0x5e>

100042bc <vTaskDelete>:
100042bc:	b570      	push	{r4, r5, r6, lr}
100042be:	0004      	movs	r4, r0
100042c0:	f001 fa46 	bl	10005750 <vPortEnterCritical>
100042c4:	2c00      	cmp	r4, #0
100042c6:	d029      	beq.n	1000431c <vTaskDelete+0x60>
100042c8:	1d25      	adds	r5, r4, #4
100042ca:	0028      	movs	r0, r5
100042cc:	f001 faf6 	bl	100058bc <uxListRemove>
100042d0:	6aa3      	ldr	r3, [r4, #40]	; 0x28
100042d2:	2b00      	cmp	r3, #0
100042d4:	d003      	beq.n	100042de <vTaskDelete+0x22>
100042d6:	0020      	movs	r0, r4
100042d8:	3018      	adds	r0, #24
100042da:	f001 faef 	bl	100058bc <uxListRemove>
100042de:	4b17      	ldr	r3, [pc, #92]	; (1000433c <vTaskDelete+0x80>)
100042e0:	6e1a      	ldr	r2, [r3, #96]	; 0x60
100042e2:	3201      	adds	r2, #1
100042e4:	661a      	str	r2, [r3, #96]	; 0x60
100042e6:	6d9b      	ldr	r3, [r3, #88]	; 0x58
100042e8:	42a3      	cmp	r3, r4
100042ea:	d01a      	beq.n	10004322 <vTaskDelete+0x66>
100042ec:	4a13      	ldr	r2, [pc, #76]	; (1000433c <vTaskDelete+0x80>)
100042ee:	6d53      	ldr	r3, [r2, #84]	; 0x54
100042f0:	3b01      	subs	r3, #1
100042f2:	6553      	str	r3, [r2, #84]	; 0x54
100042f4:	f7ff fe62 	bl	10003fbc <prvResetNextTaskUnblockTime>
100042f8:	f001 fa36 	bl	10005768 <vPortExitCritical>
100042fc:	4b0f      	ldr	r3, [pc, #60]	; (1000433c <vTaskDelete+0x80>)
100042fe:	6d9b      	ldr	r3, [r3, #88]	; 0x58
10004300:	42a3      	cmp	r3, r4
10004302:	d002      	beq.n	1000430a <vTaskDelete+0x4e>
10004304:	0020      	movs	r0, r4
10004306:	f7ff fe6b 	bl	10003fe0 <prvDeleteTCB>
1000430a:	4b0c      	ldr	r3, [pc, #48]	; (1000433c <vTaskDelete+0x80>)
1000430c:	6ddb      	ldr	r3, [r3, #92]	; 0x5c
1000430e:	2b00      	cmp	r3, #0
10004310:	d003      	beq.n	1000431a <vTaskDelete+0x5e>
10004312:	4b0a      	ldr	r3, [pc, #40]	; (1000433c <vTaskDelete+0x80>)
10004314:	6d9b      	ldr	r3, [r3, #88]	; 0x58
10004316:	42a3      	cmp	r3, r4
10004318:	d00d      	beq.n	10004336 <vTaskDelete+0x7a>
1000431a:	bd70      	pop	{r4, r5, r6, pc}
1000431c:	4b07      	ldr	r3, [pc, #28]	; (1000433c <vTaskDelete+0x80>)
1000431e:	6d9c      	ldr	r4, [r3, #88]	; 0x58
10004320:	e7d2      	b.n	100042c8 <vTaskDelete+0xc>
10004322:	4e06      	ldr	r6, [pc, #24]	; (1000433c <vTaskDelete+0x80>)
10004324:	0030      	movs	r0, r6
10004326:	303c      	adds	r0, #60	; 0x3c
10004328:	0029      	movs	r1, r5
1000432a:	f001 faa5 	bl	10005878 <vListInsertEnd>
1000432e:	6eb3      	ldr	r3, [r6, #104]	; 0x68
10004330:	3301      	adds	r3, #1
10004332:	66b3      	str	r3, [r6, #104]	; 0x68
10004334:	e7e0      	b.n	100042f8 <vTaskDelete+0x3c>
10004336:	f001 f9ff 	bl	10005738 <vPortYield>
1000433a:	e7ee      	b.n	1000431a <vTaskDelete+0x5e>
1000433c:	20000c64 	.word	0x20000c64

10004340 <uxTaskPriorityGet>:
10004340:	b510      	push	{r4, lr}
10004342:	0004      	movs	r4, r0
10004344:	f001 fa04 	bl	10005750 <vPortEnterCritical>
10004348:	2c00      	cmp	r4, #0
1000434a:	d004      	beq.n	10004356 <uxTaskPriorityGet+0x16>
1000434c:	6ae4      	ldr	r4, [r4, #44]	; 0x2c
1000434e:	f001 fa0b 	bl	10005768 <vPortExitCritical>
10004352:	0020      	movs	r0, r4
10004354:	bd10      	pop	{r4, pc}
10004356:	4b01      	ldr	r3, [pc, #4]	; (1000435c <uxTaskPriorityGet+0x1c>)
10004358:	6d9c      	ldr	r4, [r3, #88]	; 0x58
1000435a:	e7f7      	b.n	1000434c <uxTaskPriorityGet+0xc>
1000435c:	20000c64 	.word	0x20000c64

10004360 <uxTaskPriorityGetFromISR>:
10004360:	b510      	push	{r4, lr}
10004362:	0004      	movs	r4, r0
10004364:	f001 fa0a 	bl	1000577c <ulSetInterruptMaskFromISR>
10004368:	2c00      	cmp	r4, #0
1000436a:	d004      	beq.n	10004376 <uxTaskPriorityGetFromISR+0x16>
1000436c:	6ae4      	ldr	r4, [r4, #44]	; 0x2c
1000436e:	f001 fa09 	bl	10005784 <vClearInterruptMaskFromISR>
10004372:	0020      	movs	r0, r4
10004374:	bd10      	pop	{r4, pc}
10004376:	4b01      	ldr	r3, [pc, #4]	; (1000437c <uxTaskPriorityGetFromISR+0x1c>)
10004378:	6d9c      	ldr	r4, [r3, #88]	; 0x58
1000437a:	e7f7      	b.n	1000436c <uxTaskPriorityGetFromISR+0xc>
1000437c:	20000c64 	.word	0x20000c64

10004380 <vTaskPrioritySet>:
10004380:	b570      	push	{r4, r5, r6, lr}
10004382:	0004      	movs	r4, r0
10004384:	000d      	movs	r5, r1
10004386:	2904      	cmp	r1, #4
10004388:	d900      	bls.n	1000438c <vTaskPrioritySet+0xc>
1000438a:	2504      	movs	r5, #4
1000438c:	f001 f9e0 	bl	10005750 <vPortEnterCritical>
10004390:	2c00      	cmp	r4, #0
10004392:	d00e      	beq.n	100043b2 <vTaskPrioritySet+0x32>
10004394:	6ae3      	ldr	r3, [r4, #44]	; 0x2c
10004396:	429d      	cmp	r5, r3
10004398:	d026      	beq.n	100043e8 <vTaskPrioritySet+0x68>
1000439a:	d90d      	bls.n	100043b8 <vTaskPrioritySet+0x38>
1000439c:	4a2a      	ldr	r2, [pc, #168]	; (10004448 <vTaskPrioritySet+0xc8>)
1000439e:	6d92      	ldr	r2, [r2, #88]	; 0x58
100043a0:	42a2      	cmp	r2, r4
100043a2:	d024      	beq.n	100043ee <vTaskPrioritySet+0x6e>
100043a4:	4a28      	ldr	r2, [pc, #160]	; (10004448 <vTaskPrioritySet+0xc8>)
100043a6:	6d92      	ldr	r2, [r2, #88]	; 0x58
100043a8:	6ad2      	ldr	r2, [r2, #44]	; 0x2c
100043aa:	42aa      	cmp	r2, r5
100043ac:	d921      	bls.n	100043f2 <vTaskPrioritySet+0x72>
100043ae:	2600      	movs	r6, #0
100043b0:	e007      	b.n	100043c2 <vTaskPrioritySet+0x42>
100043b2:	4b25      	ldr	r3, [pc, #148]	; (10004448 <vTaskPrioritySet+0xc8>)
100043b4:	6d9c      	ldr	r4, [r3, #88]	; 0x58
100043b6:	e7ed      	b.n	10004394 <vTaskPrioritySet+0x14>
100043b8:	4a23      	ldr	r2, [pc, #140]	; (10004448 <vTaskPrioritySet+0xc8>)
100043ba:	6d92      	ldr	r2, [r2, #88]	; 0x58
100043bc:	42a2      	cmp	r2, r4
100043be:	d01a      	beq.n	100043f6 <vTaskPrioritySet+0x76>
100043c0:	2600      	movs	r6, #0
100043c2:	62e5      	str	r5, [r4, #44]	; 0x2c
100043c4:	69a2      	ldr	r2, [r4, #24]
100043c6:	2a00      	cmp	r2, #0
100043c8:	db02      	blt.n	100043d0 <vTaskPrioritySet+0x50>
100043ca:	2105      	movs	r1, #5
100043cc:	1b4d      	subs	r5, r1, r5
100043ce:	61a5      	str	r5, [r4, #24]
100043d0:	4a1e      	ldr	r2, [pc, #120]	; (1000444c <vTaskPrioritySet+0xcc>)
100043d2:	0099      	lsls	r1, r3, #2
100043d4:	18c9      	adds	r1, r1, r3
100043d6:	0089      	lsls	r1, r1, #2
100043d8:	0013      	movs	r3, r2
100043da:	3330      	adds	r3, #48	; 0x30
100043dc:	185b      	adds	r3, r3, r1
100043de:	6962      	ldr	r2, [r4, #20]
100043e0:	429a      	cmp	r2, r3
100043e2:	d00a      	beq.n	100043fa <vTaskPrioritySet+0x7a>
100043e4:	2e00      	cmp	r6, #0
100043e6:	d12c      	bne.n	10004442 <vTaskPrioritySet+0xc2>
100043e8:	f001 f9be 	bl	10005768 <vPortExitCritical>
100043ec:	bd70      	pop	{r4, r5, r6, pc}
100043ee:	2600      	movs	r6, #0
100043f0:	e7e7      	b.n	100043c2 <vTaskPrioritySet+0x42>
100043f2:	2601      	movs	r6, #1
100043f4:	e7e5      	b.n	100043c2 <vTaskPrioritySet+0x42>
100043f6:	2601      	movs	r6, #1
100043f8:	e7e3      	b.n	100043c2 <vTaskPrioritySet+0x42>
100043fa:	1d25      	adds	r5, r4, #4
100043fc:	0028      	movs	r0, r5
100043fe:	f001 fa5d 	bl	100058bc <uxListRemove>
10004402:	6ae3      	ldr	r3, [r4, #44]	; 0x2c
10004404:	4a10      	ldr	r2, [pc, #64]	; (10004448 <vTaskPrioritySet+0xc8>)
10004406:	6e52      	ldr	r2, [r2, #100]	; 0x64
10004408:	4293      	cmp	r3, r2
1000440a:	d901      	bls.n	10004410 <vTaskPrioritySet+0x90>
1000440c:	4a0e      	ldr	r2, [pc, #56]	; (10004448 <vTaskPrioritySet+0xc8>)
1000440e:	6653      	str	r3, [r2, #100]	; 0x64
10004410:	490e      	ldr	r1, [pc, #56]	; (1000444c <vTaskPrioritySet+0xcc>)
10004412:	009a      	lsls	r2, r3, #2
10004414:	18d2      	adds	r2, r2, r3
10004416:	0092      	lsls	r2, r2, #2
10004418:	188a      	adds	r2, r1, r2
1000441a:	6b53      	ldr	r3, [r2, #52]	; 0x34
1000441c:	60a3      	str	r3, [r4, #8]
1000441e:	689a      	ldr	r2, [r3, #8]
10004420:	60e2      	str	r2, [r4, #12]
10004422:	6055      	str	r5, [r2, #4]
10004424:	609d      	str	r5, [r3, #8]
10004426:	6ae0      	ldr	r0, [r4, #44]	; 0x2c
10004428:	000a      	movs	r2, r1
1000442a:	3230      	adds	r2, #48	; 0x30
1000442c:	0083      	lsls	r3, r0, #2
1000442e:	181d      	adds	r5, r3, r0
10004430:	00ad      	lsls	r5, r5, #2
10004432:	1952      	adds	r2, r2, r5
10004434:	6162      	str	r2, [r4, #20]
10004436:	194a      	adds	r2, r1, r5
10004438:	6b12      	ldr	r2, [r2, #48]	; 0x30
1000443a:	3201      	adds	r2, #1
1000443c:	194b      	adds	r3, r1, r5
1000443e:	631a      	str	r2, [r3, #48]	; 0x30
10004440:	e7d0      	b.n	100043e4 <vTaskPrioritySet+0x64>
10004442:	f001 f979 	bl	10005738 <vPortYield>
10004446:	e7cf      	b.n	100043e8 <vTaskPrioritySet+0x68>
10004448:	20000c64 	.word	0x20000c64
1000444c:	20000be4 	.word	0x20000be4

10004450 <vTaskResume>:
10004450:	b570      	push	{r4, r5, r6, lr}
10004452:	0004      	movs	r4, r0
10004454:	4b1d      	ldr	r3, [pc, #116]	; (100044cc <vTaskResume+0x7c>)
10004456:	6d9b      	ldr	r3, [r3, #88]	; 0x58
10004458:	4283      	cmp	r3, r0
1000445a:	d00a      	beq.n	10004472 <vTaskResume+0x22>
1000445c:	2800      	cmp	r0, #0
1000445e:	d008      	beq.n	10004472 <vTaskResume+0x22>
10004460:	f001 f976 	bl	10005750 <vPortEnterCritical>
10004464:	0020      	movs	r0, r4
10004466:	f7ff fd95 	bl	10003f94 <prvTaskIsTaskSuspended>
1000446a:	2800      	cmp	r0, #0
1000446c:	d102      	bne.n	10004474 <vTaskResume+0x24>
1000446e:	f001 f97b 	bl	10005768 <vPortExitCritical>
10004472:	bd70      	pop	{r4, r5, r6, pc}
10004474:	1d25      	adds	r5, r4, #4
10004476:	0028      	movs	r0, r5
10004478:	f001 fa20 	bl	100058bc <uxListRemove>
1000447c:	6ae3      	ldr	r3, [r4, #44]	; 0x2c
1000447e:	4a13      	ldr	r2, [pc, #76]	; (100044cc <vTaskResume+0x7c>)
10004480:	6e52      	ldr	r2, [r2, #100]	; 0x64
10004482:	4293      	cmp	r3, r2
10004484:	d901      	bls.n	1000448a <vTaskResume+0x3a>
10004486:	4a11      	ldr	r2, [pc, #68]	; (100044cc <vTaskResume+0x7c>)
10004488:	6653      	str	r3, [r2, #100]	; 0x64
1000448a:	4911      	ldr	r1, [pc, #68]	; (100044d0 <vTaskResume+0x80>)
1000448c:	009a      	lsls	r2, r3, #2
1000448e:	18d2      	adds	r2, r2, r3
10004490:	0092      	lsls	r2, r2, #2
10004492:	188a      	adds	r2, r1, r2
10004494:	6b53      	ldr	r3, [r2, #52]	; 0x34
10004496:	60a3      	str	r3, [r4, #8]
10004498:	689a      	ldr	r2, [r3, #8]
1000449a:	60e2      	str	r2, [r4, #12]
1000449c:	6055      	str	r5, [r2, #4]
1000449e:	609d      	str	r5, [r3, #8]
100044a0:	6ae0      	ldr	r0, [r4, #44]	; 0x2c
100044a2:	000a      	movs	r2, r1
100044a4:	3230      	adds	r2, #48	; 0x30
100044a6:	0083      	lsls	r3, r0, #2
100044a8:	181d      	adds	r5, r3, r0
100044aa:	00ad      	lsls	r5, r5, #2
100044ac:	1952      	adds	r2, r2, r5
100044ae:	6162      	str	r2, [r4, #20]
100044b0:	194a      	adds	r2, r1, r5
100044b2:	6b12      	ldr	r2, [r2, #48]	; 0x30
100044b4:	3201      	adds	r2, #1
100044b6:	194b      	adds	r3, r1, r5
100044b8:	631a      	str	r2, [r3, #48]	; 0x30
100044ba:	6ae2      	ldr	r2, [r4, #44]	; 0x2c
100044bc:	4b03      	ldr	r3, [pc, #12]	; (100044cc <vTaskResume+0x7c>)
100044be:	6d9b      	ldr	r3, [r3, #88]	; 0x58
100044c0:	6adb      	ldr	r3, [r3, #44]	; 0x2c
100044c2:	429a      	cmp	r2, r3
100044c4:	d3d3      	bcc.n	1000446e <vTaskResume+0x1e>
100044c6:	f001 f937 	bl	10005738 <vPortYield>
100044ca:	e7d0      	b.n	1000446e <vTaskResume+0x1e>
100044cc:	20000c64 	.word	0x20000c64
100044d0:	20000be4 	.word	0x20000be4

100044d4 <xTaskResumeFromISR>:
100044d4:	b5f8      	push	{r3, r4, r5, r6, r7, lr}
100044d6:	0004      	movs	r4, r0
100044d8:	f001 f950 	bl	1000577c <ulSetInterruptMaskFromISR>
100044dc:	0006      	movs	r6, r0
100044de:	0020      	movs	r0, r4
100044e0:	f7ff fd58 	bl	10003f94 <prvTaskIsTaskSuspended>
100044e4:	1e05      	subs	r5, r0, #0
100044e6:	d030      	beq.n	1000454a <xTaskResumeFromISR+0x76>
100044e8:	4b1f      	ldr	r3, [pc, #124]	; (10004568 <xTaskResumeFromISR+0x94>)
100044ea:	6f1b      	ldr	r3, [r3, #112]	; 0x70
100044ec:	2b00      	cmp	r3, #0
100044ee:	d133      	bne.n	10004558 <xTaskResumeFromISR+0x84>
100044f0:	4b1d      	ldr	r3, [pc, #116]	; (10004568 <xTaskResumeFromISR+0x94>)
100044f2:	6d9b      	ldr	r3, [r3, #88]	; 0x58
100044f4:	6adb      	ldr	r3, [r3, #44]	; 0x2c
100044f6:	6ae2      	ldr	r2, [r4, #44]	; 0x2c
100044f8:	429a      	cmp	r2, r3
100044fa:	d32b      	bcc.n	10004554 <xTaskResumeFromISR+0x80>
100044fc:	4b1a      	ldr	r3, [pc, #104]	; (10004568 <xTaskResumeFromISR+0x94>)
100044fe:	2201      	movs	r2, #1
10004500:	675a      	str	r2, [r3, #116]	; 0x74
10004502:	2501      	movs	r5, #1
10004504:	1d27      	adds	r7, r4, #4
10004506:	0038      	movs	r0, r7
10004508:	f001 f9d8 	bl	100058bc <uxListRemove>
1000450c:	6ae3      	ldr	r3, [r4, #44]	; 0x2c
1000450e:	4a16      	ldr	r2, [pc, #88]	; (10004568 <xTaskResumeFromISR+0x94>)
10004510:	6e52      	ldr	r2, [r2, #100]	; 0x64
10004512:	4293      	cmp	r3, r2
10004514:	d901      	bls.n	1000451a <xTaskResumeFromISR+0x46>
10004516:	4a14      	ldr	r2, [pc, #80]	; (10004568 <xTaskResumeFromISR+0x94>)
10004518:	6653      	str	r3, [r2, #100]	; 0x64
1000451a:	4914      	ldr	r1, [pc, #80]	; (1000456c <xTaskResumeFromISR+0x98>)
1000451c:	009a      	lsls	r2, r3, #2
1000451e:	18d2      	adds	r2, r2, r3
10004520:	0092      	lsls	r2, r2, #2
10004522:	188a      	adds	r2, r1, r2
10004524:	6b53      	ldr	r3, [r2, #52]	; 0x34
10004526:	60a3      	str	r3, [r4, #8]
10004528:	689a      	ldr	r2, [r3, #8]
1000452a:	60e2      	str	r2, [r4, #12]
1000452c:	6057      	str	r7, [r2, #4]
1000452e:	609f      	str	r7, [r3, #8]
10004530:	6ae0      	ldr	r0, [r4, #44]	; 0x2c
10004532:	000a      	movs	r2, r1
10004534:	3230      	adds	r2, #48	; 0x30
10004536:	0083      	lsls	r3, r0, #2
10004538:	181f      	adds	r7, r3, r0
1000453a:	00bf      	lsls	r7, r7, #2
1000453c:	19d2      	adds	r2, r2, r7
1000453e:	6162      	str	r2, [r4, #20]
10004540:	19ca      	adds	r2, r1, r7
10004542:	6b12      	ldr	r2, [r2, #48]	; 0x30
10004544:	3201      	adds	r2, #1
10004546:	19cb      	adds	r3, r1, r7
10004548:	631a      	str	r2, [r3, #48]	; 0x30
1000454a:	0030      	movs	r0, r6
1000454c:	f001 f91a 	bl	10005784 <vClearInterruptMaskFromISR>
10004550:	0028      	movs	r0, r5
10004552:	bdf8      	pop	{r3, r4, r5, r6, r7, pc}
10004554:	2500      	movs	r5, #0
10004556:	e7d5      	b.n	10004504 <xTaskResumeFromISR+0x30>
10004558:	0021      	movs	r1, r4
1000455a:	3118      	adds	r1, #24
1000455c:	4803      	ldr	r0, [pc, #12]	; (1000456c <xTaskResumeFromISR+0x98>)
1000455e:	3014      	adds	r0, #20
10004560:	f001 f98a 	bl	10005878 <vListInsertEnd>
10004564:	2500      	movs	r5, #0
10004566:	e7f0      	b.n	1000454a <xTaskResumeFromISR+0x76>
10004568:	20000c64 	.word	0x20000c64
1000456c:	20000be4 	.word	0x20000be4

10004570 <vTaskStartScheduler>:
10004570:	b500      	push	{lr}
10004572:	b083      	sub	sp, #12
10004574:	4b10      	ldr	r3, [pc, #64]	; (100045b8 <vTaskStartScheduler+0x48>)
10004576:	3378      	adds	r3, #120	; 0x78
10004578:	9301      	str	r3, [sp, #4]
1000457a:	2300      	movs	r3, #0
1000457c:	9300      	str	r3, [sp, #0]
1000457e:	2280      	movs	r2, #128	; 0x80
10004580:	490e      	ldr	r1, [pc, #56]	; (100045bc <vTaskStartScheduler+0x4c>)
10004582:	480f      	ldr	r0, [pc, #60]	; (100045c0 <vTaskStartScheduler+0x50>)
10004584:	f7ff fe66 	bl	10004254 <xTaskCreate>
10004588:	2801      	cmp	r0, #1
1000458a:	d005      	beq.n	10004598 <vTaskStartScheduler+0x28>
1000458c:	2801      	cmp	r0, #1
1000458e:	d006      	beq.n	1000459e <vTaskStartScheduler+0x2e>
10004590:	4b0c      	ldr	r3, [pc, #48]	; (100045c4 <vTaskStartScheduler+0x54>)
10004592:	681b      	ldr	r3, [r3, #0]
10004594:	b003      	add	sp, #12
10004596:	bd00      	pop	{pc}
10004598:	f000 ffc5 	bl	10005526 <xTimerCreateTimerTask>
1000459c:	e7f6      	b.n	1000458c <vTaskStartScheduler+0x1c>
1000459e:	b672      	cpsid	i
100045a0:	4b09      	ldr	r3, [pc, #36]	; (100045c8 <vTaskStartScheduler+0x58>)
100045a2:	2201      	movs	r2, #1
100045a4:	4252      	negs	r2, r2
100045a6:	62da      	str	r2, [r3, #44]	; 0x2c
100045a8:	4b03      	ldr	r3, [pc, #12]	; (100045b8 <vTaskStartScheduler+0x48>)
100045aa:	3202      	adds	r2, #2
100045ac:	65da      	str	r2, [r3, #92]	; 0x5c
100045ae:	2200      	movs	r2, #0
100045b0:	66da      	str	r2, [r3, #108]	; 0x6c
100045b2:	f001 f935 	bl	10005820 <xPortStartScheduler>
100045b6:	e7eb      	b.n	10004590 <vTaskStartScheduler+0x20>
100045b8:	20000c64 	.word	0x20000c64
100045bc:	1000793c 	.word	0x1000793c
100045c0:	100041bd 	.word	0x100041bd
100045c4:	20000264 	.word	0x20000264
100045c8:	20000be4 	.word	0x20000be4

100045cc <vTaskEndScheduler>:
100045cc:	b510      	push	{r4, lr}
100045ce:	b672      	cpsid	i
100045d0:	4b02      	ldr	r3, [pc, #8]	; (100045dc <vTaskEndScheduler+0x10>)
100045d2:	2200      	movs	r2, #0
100045d4:	65da      	str	r2, [r3, #92]	; 0x5c
100045d6:	f001 f8ae 	bl	10005736 <vPortEndScheduler>
100045da:	bd10      	pop	{r4, pc}
100045dc:	20000c64 	.word	0x20000c64

100045e0 <vTaskSuspendAll>:
100045e0:	4a02      	ldr	r2, [pc, #8]	; (100045ec <vTaskSuspendAll+0xc>)
100045e2:	6f13      	ldr	r3, [r2, #112]	; 0x70
100045e4:	3301      	adds	r3, #1
100045e6:	6713      	str	r3, [r2, #112]	; 0x70
100045e8:	4770      	bx	lr
100045ea:	46c0      	nop			; (mov r8, r8)
100045ec:	20000c64 	.word	0x20000c64

100045f0 <xTaskGetTickCount>:
100045f0:	4b01      	ldr	r3, [pc, #4]	; (100045f8 <xTaskGetTickCount+0x8>)
100045f2:	6ed8      	ldr	r0, [r3, #108]	; 0x6c
100045f4:	4770      	bx	lr
100045f6:	46c0      	nop			; (mov r8, r8)
100045f8:	20000c64 	.word	0x20000c64

100045fc <xTaskGetTickCountFromISR>:
100045fc:	4b01      	ldr	r3, [pc, #4]	; (10004604 <xTaskGetTickCountFromISR+0x8>)
100045fe:	6ed8      	ldr	r0, [r3, #108]	; 0x6c
10004600:	4770      	bx	lr
10004602:	46c0      	nop			; (mov r8, r8)
10004604:	20000c64 	.word	0x20000c64

10004608 <uxTaskGetNumberOfTasks>:
10004608:	4b01      	ldr	r3, [pc, #4]	; (10004610 <uxTaskGetNumberOfTasks+0x8>)
1000460a:	6d58      	ldr	r0, [r3, #84]	; 0x54
1000460c:	4770      	bx	lr
1000460e:	46c0      	nop			; (mov r8, r8)
10004610:	20000c64 	.word	0x20000c64

10004614 <pcTaskGetName>:
10004614:	2800      	cmp	r0, #0
10004616:	d001      	beq.n	1000461c <pcTaskGetName+0x8>
10004618:	3034      	adds	r0, #52	; 0x34
1000461a:	4770      	bx	lr
1000461c:	4b01      	ldr	r3, [pc, #4]	; (10004624 <pcTaskGetName+0x10>)
1000461e:	6d98      	ldr	r0, [r3, #88]	; 0x58
10004620:	e7fa      	b.n	10004618 <pcTaskGetName+0x4>
10004622:	46c0      	nop			; (mov r8, r8)
10004624:	20000c64 	.word	0x20000c64

10004628 <xTaskIncrementTick>:
10004628:	b5f8      	push	{r3, r4, r5, r6, r7, lr}
1000462a:	4b47      	ldr	r3, [pc, #284]	; (10004748 <xTaskIncrementTick+0x120>)
1000462c:	6f1b      	ldr	r3, [r3, #112]	; 0x70
1000462e:	2b00      	cmp	r3, #0
10004630:	d000      	beq.n	10004634 <xTaskIncrementTick+0xc>
10004632:	e082      	b.n	1000473a <xTaskIncrementTick+0x112>
10004634:	4b44      	ldr	r3, [pc, #272]	; (10004748 <xTaskIncrementTick+0x120>)
10004636:	6ede      	ldr	r6, [r3, #108]	; 0x6c
10004638:	3601      	adds	r6, #1
1000463a:	66de      	str	r6, [r3, #108]	; 0x6c
1000463c:	2e00      	cmp	r6, #0
1000463e:	d00a      	beq.n	10004656 <xTaskIncrementTick+0x2e>
10004640:	4b42      	ldr	r3, [pc, #264]	; (1000474c <xTaskIncrementTick+0x124>)
10004642:	6adb      	ldr	r3, [r3, #44]	; 0x2c
10004644:	42b3      	cmp	r3, r6
10004646:	d911      	bls.n	1000466c <xTaskIncrementTick+0x44>
10004648:	2000      	movs	r0, #0
1000464a:	4b3f      	ldr	r3, [pc, #252]	; (10004748 <xTaskIncrementTick+0x120>)
1000464c:	6f5b      	ldr	r3, [r3, #116]	; 0x74
1000464e:	2b00      	cmp	r3, #0
10004650:	d078      	beq.n	10004744 <xTaskIncrementTick+0x11c>
10004652:	2001      	movs	r0, #1
10004654:	e076      	b.n	10004744 <xTaskIncrementTick+0x11c>
10004656:	4a3d      	ldr	r2, [pc, #244]	; (1000474c <xTaskIncrementTick+0x124>)
10004658:	6a91      	ldr	r1, [r2, #40]	; 0x28
1000465a:	6d18      	ldr	r0, [r3, #80]	; 0x50
1000465c:	6290      	str	r0, [r2, #40]	; 0x28
1000465e:	6519      	str	r1, [r3, #80]	; 0x50
10004660:	6fda      	ldr	r2, [r3, #124]	; 0x7c
10004662:	3201      	adds	r2, #1
10004664:	67da      	str	r2, [r3, #124]	; 0x7c
10004666:	f7ff fca9 	bl	10003fbc <prvResetNextTaskUnblockTime>
1000466a:	e7e9      	b.n	10004640 <xTaskIncrementTick+0x18>
1000466c:	2000      	movs	r0, #0
1000466e:	e039      	b.n	100046e4 <xTaskIncrementTick+0xbc>
10004670:	4b36      	ldr	r3, [pc, #216]	; (1000474c <xTaskIncrementTick+0x124>)
10004672:	2201      	movs	r2, #1
10004674:	4252      	negs	r2, r2
10004676:	62da      	str	r2, [r3, #44]	; 0x2c
10004678:	e7e7      	b.n	1000464a <xTaskIncrementTick+0x22>
1000467a:	4b34      	ldr	r3, [pc, #208]	; (1000474c <xTaskIncrementTick+0x124>)
1000467c:	62da      	str	r2, [r3, #44]	; 0x2c
1000467e:	e7e4      	b.n	1000464a <xTaskIncrementTick+0x22>
10004680:	68d9      	ldr	r1, [r3, #12]
10004682:	6051      	str	r1, [r2, #4]
10004684:	e044      	b.n	10004710 <xTaskIncrementTick+0xe8>
10004686:	2100      	movs	r1, #0
10004688:	6299      	str	r1, [r3, #40]	; 0x28
1000468a:	6811      	ldr	r1, [r2, #0]
1000468c:	3901      	subs	r1, #1
1000468e:	6011      	str	r1, [r2, #0]
10004690:	6ad9      	ldr	r1, [r3, #44]	; 0x2c
10004692:	4a2d      	ldr	r2, [pc, #180]	; (10004748 <xTaskIncrementTick+0x120>)
10004694:	6e52      	ldr	r2, [r2, #100]	; 0x64
10004696:	4291      	cmp	r1, r2
10004698:	d901      	bls.n	1000469e <xTaskIncrementTick+0x76>
1000469a:	4a2b      	ldr	r2, [pc, #172]	; (10004748 <xTaskIncrementTick+0x120>)
1000469c:	6651      	str	r1, [r2, #100]	; 0x64
1000469e:	4a2b      	ldr	r2, [pc, #172]	; (1000474c <xTaskIncrementTick+0x124>)
100046a0:	008c      	lsls	r4, r1, #2
100046a2:	1864      	adds	r4, r4, r1
100046a4:	00a1      	lsls	r1, r4, #2
100046a6:	1851      	adds	r1, r2, r1
100046a8:	6b49      	ldr	r1, [r1, #52]	; 0x34
100046aa:	6099      	str	r1, [r3, #8]
100046ac:	688c      	ldr	r4, [r1, #8]
100046ae:	60dc      	str	r4, [r3, #12]
100046b0:	6065      	str	r5, [r4, #4]
100046b2:	608d      	str	r5, [r1, #8]
100046b4:	6adc      	ldr	r4, [r3, #44]	; 0x2c
100046b6:	0015      	movs	r5, r2
100046b8:	3530      	adds	r5, #48	; 0x30
100046ba:	00a1      	lsls	r1, r4, #2
100046bc:	190f      	adds	r7, r1, r4
100046be:	46bc      	mov	ip, r7
100046c0:	00bf      	lsls	r7, r7, #2
100046c2:	19ed      	adds	r5, r5, r7
100046c4:	615d      	str	r5, [r3, #20]
100046c6:	4667      	mov	r7, ip
100046c8:	00bd      	lsls	r5, r7, #2
100046ca:	1955      	adds	r5, r2, r5
100046cc:	6b2d      	ldr	r5, [r5, #48]	; 0x30
100046ce:	3501      	adds	r5, #1
100046d0:	00bc      	lsls	r4, r7, #2
100046d2:	1912      	adds	r2, r2, r4
100046d4:	6315      	str	r5, [r2, #48]	; 0x30
100046d6:	6ada      	ldr	r2, [r3, #44]	; 0x2c
100046d8:	4b1b      	ldr	r3, [pc, #108]	; (10004748 <xTaskIncrementTick+0x120>)
100046da:	6d9b      	ldr	r3, [r3, #88]	; 0x58
100046dc:	6adb      	ldr	r3, [r3, #44]	; 0x2c
100046de:	429a      	cmp	r2, r3
100046e0:	d300      	bcc.n	100046e4 <xTaskIncrementTick+0xbc>
100046e2:	2001      	movs	r0, #1
100046e4:	4b19      	ldr	r3, [pc, #100]	; (1000474c <xTaskIncrementTick+0x124>)
100046e6:	6a9b      	ldr	r3, [r3, #40]	; 0x28
100046e8:	681b      	ldr	r3, [r3, #0]
100046ea:	2b00      	cmp	r3, #0
100046ec:	d0c0      	beq.n	10004670 <xTaskIncrementTick+0x48>
100046ee:	4b17      	ldr	r3, [pc, #92]	; (1000474c <xTaskIncrementTick+0x124>)
100046f0:	6a9b      	ldr	r3, [r3, #40]	; 0x28
100046f2:	68db      	ldr	r3, [r3, #12]
100046f4:	68db      	ldr	r3, [r3, #12]
100046f6:	685a      	ldr	r2, [r3, #4]
100046f8:	4296      	cmp	r6, r2
100046fa:	d3be      	bcc.n	1000467a <xTaskIncrementTick+0x52>
100046fc:	695a      	ldr	r2, [r3, #20]
100046fe:	689c      	ldr	r4, [r3, #8]
10004700:	68d9      	ldr	r1, [r3, #12]
10004702:	60a1      	str	r1, [r4, #8]
10004704:	689c      	ldr	r4, [r3, #8]
10004706:	604c      	str	r4, [r1, #4]
10004708:	1d1d      	adds	r5, r3, #4
1000470a:	6851      	ldr	r1, [r2, #4]
1000470c:	42a9      	cmp	r1, r5
1000470e:	d0b7      	beq.n	10004680 <xTaskIncrementTick+0x58>
10004710:	2100      	movs	r1, #0
10004712:	6159      	str	r1, [r3, #20]
10004714:	6811      	ldr	r1, [r2, #0]
10004716:	3901      	subs	r1, #1
10004718:	6011      	str	r1, [r2, #0]
1000471a:	6a9a      	ldr	r2, [r3, #40]	; 0x28
1000471c:	2a00      	cmp	r2, #0
1000471e:	d0b7      	beq.n	10004690 <xTaskIncrementTick+0x68>
10004720:	69dc      	ldr	r4, [r3, #28]
10004722:	6a19      	ldr	r1, [r3, #32]
10004724:	60a1      	str	r1, [r4, #8]
10004726:	69dc      	ldr	r4, [r3, #28]
10004728:	604c      	str	r4, [r1, #4]
1000472a:	0019      	movs	r1, r3
1000472c:	3118      	adds	r1, #24
1000472e:	6854      	ldr	r4, [r2, #4]
10004730:	428c      	cmp	r4, r1
10004732:	d1a8      	bne.n	10004686 <xTaskIncrementTick+0x5e>
10004734:	6a19      	ldr	r1, [r3, #32]
10004736:	6051      	str	r1, [r2, #4]
10004738:	e7a5      	b.n	10004686 <xTaskIncrementTick+0x5e>
1000473a:	4a05      	ldr	r2, [pc, #20]	; (10004750 <xTaskIncrementTick+0x128>)
1000473c:	6813      	ldr	r3, [r2, #0]
1000473e:	3301      	adds	r3, #1
10004740:	6013      	str	r3, [r2, #0]
10004742:	2000      	movs	r0, #0
10004744:	bdf8      	pop	{r3, r4, r5, r6, r7, pc}
10004746:	46c0      	nop			; (mov r8, r8)
10004748:	20000c64 	.word	0x20000c64
1000474c:	20000be4 	.word	0x20000be4
10004750:	20000ce4 	.word	0x20000ce4

10004754 <xTaskResumeAll>:
10004754:	b570      	push	{r4, r5, r6, lr}
10004756:	f000 fffb 	bl	10005750 <vPortEnterCritical>
1000475a:	4b43      	ldr	r3, [pc, #268]	; (10004868 <xTaskResumeAll+0x114>)
1000475c:	6f1a      	ldr	r2, [r3, #112]	; 0x70
1000475e:	3a01      	subs	r2, #1
10004760:	671a      	str	r2, [r3, #112]	; 0x70
10004762:	6f1b      	ldr	r3, [r3, #112]	; 0x70
10004764:	2b00      	cmp	r3, #0
10004766:	d17a      	bne.n	1000485e <xTaskResumeAll+0x10a>
10004768:	4b3f      	ldr	r3, [pc, #252]	; (10004868 <xTaskResumeAll+0x114>)
1000476a:	6d5b      	ldr	r3, [r3, #84]	; 0x54
1000476c:	2b00      	cmp	r3, #0
1000476e:	d107      	bne.n	10004780 <xTaskResumeAll+0x2c>
10004770:	2400      	movs	r4, #0
10004772:	e075      	b.n	10004860 <xTaskResumeAll+0x10c>
10004774:	6a19      	ldr	r1, [r3, #32]
10004776:	6051      	str	r1, [r2, #4]
10004778:	e015      	b.n	100047a6 <xTaskResumeAll+0x52>
1000477a:	68d9      	ldr	r1, [r3, #12]
1000477c:	6051      	str	r1, [r2, #4]
1000477e:	e021      	b.n	100047c4 <xTaskResumeAll+0x70>
10004780:	2300      	movs	r3, #0
10004782:	4a3a      	ldr	r2, [pc, #232]	; (1000486c <xTaskResumeAll+0x118>)
10004784:	6952      	ldr	r2, [r2, #20]
10004786:	2a00      	cmp	r2, #0
10004788:	d04a      	beq.n	10004820 <xTaskResumeAll+0xcc>
1000478a:	4b38      	ldr	r3, [pc, #224]	; (1000486c <xTaskResumeAll+0x118>)
1000478c:	6a1b      	ldr	r3, [r3, #32]
1000478e:	68db      	ldr	r3, [r3, #12]
10004790:	6a9a      	ldr	r2, [r3, #40]	; 0x28
10004792:	69d8      	ldr	r0, [r3, #28]
10004794:	6a19      	ldr	r1, [r3, #32]
10004796:	6081      	str	r1, [r0, #8]
10004798:	69d8      	ldr	r0, [r3, #28]
1000479a:	6048      	str	r0, [r1, #4]
1000479c:	0019      	movs	r1, r3
1000479e:	3118      	adds	r1, #24
100047a0:	6850      	ldr	r0, [r2, #4]
100047a2:	4288      	cmp	r0, r1
100047a4:	d0e6      	beq.n	10004774 <xTaskResumeAll+0x20>
100047a6:	2100      	movs	r1, #0
100047a8:	6299      	str	r1, [r3, #40]	; 0x28
100047aa:	6811      	ldr	r1, [r2, #0]
100047ac:	3901      	subs	r1, #1
100047ae:	6011      	str	r1, [r2, #0]
100047b0:	695a      	ldr	r2, [r3, #20]
100047b2:	6898      	ldr	r0, [r3, #8]
100047b4:	68d9      	ldr	r1, [r3, #12]
100047b6:	6081      	str	r1, [r0, #8]
100047b8:	6898      	ldr	r0, [r3, #8]
100047ba:	6048      	str	r0, [r1, #4]
100047bc:	1d1c      	adds	r4, r3, #4
100047be:	6851      	ldr	r1, [r2, #4]
100047c0:	42a1      	cmp	r1, r4
100047c2:	d0da      	beq.n	1000477a <xTaskResumeAll+0x26>
100047c4:	2100      	movs	r1, #0
100047c6:	6159      	str	r1, [r3, #20]
100047c8:	6811      	ldr	r1, [r2, #0]
100047ca:	3901      	subs	r1, #1
100047cc:	6011      	str	r1, [r2, #0]
100047ce:	6ada      	ldr	r2, [r3, #44]	; 0x2c
100047d0:	4925      	ldr	r1, [pc, #148]	; (10004868 <xTaskResumeAll+0x114>)
100047d2:	6e49      	ldr	r1, [r1, #100]	; 0x64
100047d4:	428a      	cmp	r2, r1
100047d6:	d901      	bls.n	100047dc <xTaskResumeAll+0x88>
100047d8:	4923      	ldr	r1, [pc, #140]	; (10004868 <xTaskResumeAll+0x114>)
100047da:	664a      	str	r2, [r1, #100]	; 0x64
100047dc:	4823      	ldr	r0, [pc, #140]	; (1000486c <xTaskResumeAll+0x118>)
100047de:	0091      	lsls	r1, r2, #2
100047e0:	1889      	adds	r1, r1, r2
100047e2:	0089      	lsls	r1, r1, #2
100047e4:	1841      	adds	r1, r0, r1
100047e6:	6b4a      	ldr	r2, [r1, #52]	; 0x34
100047e8:	609a      	str	r2, [r3, #8]
100047ea:	6891      	ldr	r1, [r2, #8]
100047ec:	60d9      	str	r1, [r3, #12]
100047ee:	604c      	str	r4, [r1, #4]
100047f0:	6094      	str	r4, [r2, #8]
100047f2:	6adc      	ldr	r4, [r3, #44]	; 0x2c
100047f4:	0001      	movs	r1, r0
100047f6:	3130      	adds	r1, #48	; 0x30
100047f8:	00a2      	lsls	r2, r4, #2
100047fa:	1915      	adds	r5, r2, r4
100047fc:	00ad      	lsls	r5, r5, #2
100047fe:	1949      	adds	r1, r1, r5
10004800:	6159      	str	r1, [r3, #20]
10004802:	1941      	adds	r1, r0, r5
10004804:	6b09      	ldr	r1, [r1, #48]	; 0x30
10004806:	3101      	adds	r1, #1
10004808:	1942      	adds	r2, r0, r5
1000480a:	6311      	str	r1, [r2, #48]	; 0x30
1000480c:	4a16      	ldr	r2, [pc, #88]	; (10004868 <xTaskResumeAll+0x114>)
1000480e:	6d92      	ldr	r2, [r2, #88]	; 0x58
10004810:	6ad2      	ldr	r2, [r2, #44]	; 0x2c
10004812:	6ad9      	ldr	r1, [r3, #44]	; 0x2c
10004814:	4291      	cmp	r1, r2
10004816:	d3b4      	bcc.n	10004782 <xTaskResumeAll+0x2e>
10004818:	4a13      	ldr	r2, [pc, #76]	; (10004868 <xTaskResumeAll+0x114>)
1000481a:	2101      	movs	r1, #1
1000481c:	6751      	str	r1, [r2, #116]	; 0x74
1000481e:	e7b0      	b.n	10004782 <xTaskResumeAll+0x2e>
10004820:	2b00      	cmp	r3, #0
10004822:	d001      	beq.n	10004828 <xTaskResumeAll+0xd4>
10004824:	f7ff fbca 	bl	10003fbc <prvResetNextTaskUnblockTime>
10004828:	4b11      	ldr	r3, [pc, #68]	; (10004870 <xTaskResumeAll+0x11c>)
1000482a:	681c      	ldr	r4, [r3, #0]
1000482c:	2c00      	cmp	r4, #0
1000482e:	d10a      	bne.n	10004846 <xTaskResumeAll+0xf2>
10004830:	4b0d      	ldr	r3, [pc, #52]	; (10004868 <xTaskResumeAll+0x114>)
10004832:	6f5c      	ldr	r4, [r3, #116]	; 0x74
10004834:	2c00      	cmp	r4, #0
10004836:	d013      	beq.n	10004860 <xTaskResumeAll+0x10c>
10004838:	f000 ff7e 	bl	10005738 <vPortYield>
1000483c:	2401      	movs	r4, #1
1000483e:	e00f      	b.n	10004860 <xTaskResumeAll+0x10c>
10004840:	3c01      	subs	r4, #1
10004842:	2c00      	cmp	r4, #0
10004844:	d007      	beq.n	10004856 <xTaskResumeAll+0x102>
10004846:	f7ff feef 	bl	10004628 <xTaskIncrementTick>
1000484a:	2800      	cmp	r0, #0
1000484c:	d0f8      	beq.n	10004840 <xTaskResumeAll+0xec>
1000484e:	4b06      	ldr	r3, [pc, #24]	; (10004868 <xTaskResumeAll+0x114>)
10004850:	2201      	movs	r2, #1
10004852:	675a      	str	r2, [r3, #116]	; 0x74
10004854:	e7f4      	b.n	10004840 <xTaskResumeAll+0xec>
10004856:	4b06      	ldr	r3, [pc, #24]	; (10004870 <xTaskResumeAll+0x11c>)
10004858:	2200      	movs	r2, #0
1000485a:	601a      	str	r2, [r3, #0]
1000485c:	e7e8      	b.n	10004830 <xTaskResumeAll+0xdc>
1000485e:	2400      	movs	r4, #0
10004860:	f000 ff82 	bl	10005768 <vPortExitCritical>
10004864:	0020      	movs	r0, r4
10004866:	bd70      	pop	{r4, r5, r6, pc}
10004868:	20000c64 	.word	0x20000c64
1000486c:	20000be4 	.word	0x20000be4
10004870:	20000ce4 	.word	0x20000ce4

10004874 <xTaskDelayUntil>:
10004874:	b570      	push	{r4, r5, r6, lr}
10004876:	0005      	movs	r5, r0
10004878:	000c      	movs	r4, r1
1000487a:	f7ff feb1 	bl	100045e0 <vTaskSuspendAll>
1000487e:	4b14      	ldr	r3, [pc, #80]	; (100048d0 <xTaskDelayUntil+0x5c>)
10004880:	6ed8      	ldr	r0, [r3, #108]	; 0x6c
10004882:	682b      	ldr	r3, [r5, #0]
10004884:	191c      	adds	r4, r3, r4
10004886:	4283      	cmp	r3, r0
10004888:	d90b      	bls.n	100048a2 <xTaskDelayUntil+0x2e>
1000488a:	42a3      	cmp	r3, r4
1000488c:	d802      	bhi.n	10004894 <xTaskDelayUntil+0x20>
1000488e:	602c      	str	r4, [r5, #0]
10004890:	2400      	movs	r4, #0
10004892:	e010      	b.n	100048b6 <xTaskDelayUntil+0x42>
10004894:	42a0      	cmp	r0, r4
10004896:	d302      	bcc.n	1000489e <xTaskDelayUntil+0x2a>
10004898:	602c      	str	r4, [r5, #0]
1000489a:	2400      	movs	r4, #0
1000489c:	e00b      	b.n	100048b6 <xTaskDelayUntil+0x42>
1000489e:	602c      	str	r4, [r5, #0]
100048a0:	e004      	b.n	100048ac <xTaskDelayUntil+0x38>
100048a2:	42a3      	cmp	r3, r4
100048a4:	d801      	bhi.n	100048aa <xTaskDelayUntil+0x36>
100048a6:	42a0      	cmp	r0, r4
100048a8:	d20b      	bcs.n	100048c2 <xTaskDelayUntil+0x4e>
100048aa:	602c      	str	r4, [r5, #0]
100048ac:	1a20      	subs	r0, r4, r0
100048ae:	2100      	movs	r1, #0
100048b0:	f7ff fc90 	bl	100041d4 <prvAddCurrentTaskToDelayedList>
100048b4:	2401      	movs	r4, #1
100048b6:	f7ff ff4d 	bl	10004754 <xTaskResumeAll>
100048ba:	2800      	cmp	r0, #0
100048bc:	d004      	beq.n	100048c8 <xTaskDelayUntil+0x54>
100048be:	0020      	movs	r0, r4
100048c0:	bd70      	pop	{r4, r5, r6, pc}
100048c2:	602c      	str	r4, [r5, #0]
100048c4:	2400      	movs	r4, #0
100048c6:	e7f6      	b.n	100048b6 <xTaskDelayUntil+0x42>
100048c8:	f000 ff36 	bl	10005738 <vPortYield>
100048cc:	e7f7      	b.n	100048be <xTaskDelayUntil+0x4a>
100048ce:	46c0      	nop			; (mov r8, r8)
100048d0:	20000c64 	.word	0x20000c64

100048d4 <vTaskDelay>:
100048d4:	b510      	push	{r4, lr}
100048d6:	1e04      	subs	r4, r0, #0
100048d8:	d009      	beq.n	100048ee <vTaskDelay+0x1a>
100048da:	f7ff fe81 	bl	100045e0 <vTaskSuspendAll>
100048de:	2100      	movs	r1, #0
100048e0:	0020      	movs	r0, r4
100048e2:	f7ff fc77 	bl	100041d4 <prvAddCurrentTaskToDelayedList>
100048e6:	f7ff ff35 	bl	10004754 <xTaskResumeAll>
100048ea:	2800      	cmp	r0, #0
100048ec:	d101      	bne.n	100048f2 <vTaskDelay+0x1e>
100048ee:	f000 ff23 	bl	10005738 <vPortYield>
100048f2:	bd10      	pop	{r4, pc}

100048f4 <xTaskCatchUpTicks>:
100048f4:	b510      	push	{r4, lr}
100048f6:	0004      	movs	r4, r0
100048f8:	f7ff fe72 	bl	100045e0 <vTaskSuspendAll>
100048fc:	f000 ff28 	bl	10005750 <vPortEnterCritical>
10004900:	4b04      	ldr	r3, [pc, #16]	; (10004914 <xTaskCatchUpTicks+0x20>)
10004902:	6818      	ldr	r0, [r3, #0]
10004904:	1900      	adds	r0, r0, r4
10004906:	6018      	str	r0, [r3, #0]
10004908:	f000 ff2e 	bl	10005768 <vPortExitCritical>
1000490c:	f7ff ff22 	bl	10004754 <xTaskResumeAll>
10004910:	bd10      	pop	{r4, pc}
10004912:	46c0      	nop			; (mov r8, r8)
10004914:	20000ce4 	.word	0x20000ce4

10004918 <vTaskSwitchContext>:
10004918:	b510      	push	{r4, lr}
1000491a:	4b1b      	ldr	r3, [pc, #108]	; (10004988 <vTaskSwitchContext+0x70>)
1000491c:	6f1b      	ldr	r3, [r3, #112]	; 0x70
1000491e:	2b00      	cmp	r3, #0
10004920:	d003      	beq.n	1000492a <vTaskSwitchContext+0x12>
10004922:	4b19      	ldr	r3, [pc, #100]	; (10004988 <vTaskSwitchContext+0x70>)
10004924:	2201      	movs	r2, #1
10004926:	675a      	str	r2, [r3, #116]	; 0x74
10004928:	bd10      	pop	{r4, pc}
1000492a:	4b17      	ldr	r3, [pc, #92]	; (10004988 <vTaskSwitchContext+0x70>)
1000492c:	2200      	movs	r2, #0
1000492e:	675a      	str	r2, [r3, #116]	; 0x74
10004930:	6e5b      	ldr	r3, [r3, #100]	; 0x64
10004932:	e000      	b.n	10004936 <vTaskSwitchContext+0x1e>
10004934:	3b01      	subs	r3, #1
10004936:	009a      	lsls	r2, r3, #2
10004938:	18d2      	adds	r2, r2, r3
1000493a:	0091      	lsls	r1, r2, #2
1000493c:	4a13      	ldr	r2, [pc, #76]	; (1000498c <vTaskSwitchContext+0x74>)
1000493e:	1852      	adds	r2, r2, r1
10004940:	6b12      	ldr	r2, [r2, #48]	; 0x30
10004942:	2a00      	cmp	r2, #0
10004944:	d0f6      	beq.n	10004934 <vTaskSwitchContext+0x1c>
10004946:	4a11      	ldr	r2, [pc, #68]	; (1000498c <vTaskSwitchContext+0x74>)
10004948:	0099      	lsls	r1, r3, #2
1000494a:	18cc      	adds	r4, r1, r3
1000494c:	00a0      	lsls	r0, r4, #2
1000494e:	1810      	adds	r0, r2, r0
10004950:	6b44      	ldr	r4, [r0, #52]	; 0x34
10004952:	6864      	ldr	r4, [r4, #4]
10004954:	6344      	str	r4, [r0, #52]	; 0x34
10004956:	3230      	adds	r2, #48	; 0x30
10004958:	18c9      	adds	r1, r1, r3
1000495a:	0088      	lsls	r0, r1, #2
1000495c:	3008      	adds	r0, #8
1000495e:	1812      	adds	r2, r2, r0
10004960:	4294      	cmp	r4, r2
10004962:	d00a      	beq.n	1000497a <vTaskSwitchContext+0x62>
10004964:	009a      	lsls	r2, r3, #2
10004966:	18d2      	adds	r2, r2, r3
10004968:	0091      	lsls	r1, r2, #2
1000496a:	4a08      	ldr	r2, [pc, #32]	; (1000498c <vTaskSwitchContext+0x74>)
1000496c:	1852      	adds	r2, r2, r1
1000496e:	6b52      	ldr	r2, [r2, #52]	; 0x34
10004970:	68d1      	ldr	r1, [r2, #12]
10004972:	4a05      	ldr	r2, [pc, #20]	; (10004988 <vTaskSwitchContext+0x70>)
10004974:	6591      	str	r1, [r2, #88]	; 0x58
10004976:	6653      	str	r3, [r2, #100]	; 0x64
10004978:	e7d6      	b.n	10004928 <vTaskSwitchContext+0x10>
1000497a:	6860      	ldr	r0, [r4, #4]
1000497c:	0089      	lsls	r1, r1, #2
1000497e:	4a03      	ldr	r2, [pc, #12]	; (1000498c <vTaskSwitchContext+0x74>)
10004980:	1852      	adds	r2, r2, r1
10004982:	6350      	str	r0, [r2, #52]	; 0x34
10004984:	e7ee      	b.n	10004964 <vTaskSwitchContext+0x4c>
10004986:	46c0      	nop			; (mov r8, r8)
10004988:	20000c64 	.word	0x20000c64
1000498c:	20000be4 	.word	0x20000be4

10004990 <vTaskSuspend>:
10004990:	b570      	push	{r4, r5, r6, lr}
10004992:	0004      	movs	r4, r0
10004994:	f000 fedc 	bl	10005750 <vPortEnterCritical>
10004998:	2c00      	cmp	r4, #0
1000499a:	d010      	beq.n	100049be <vTaskSuspend+0x2e>
1000499c:	1d25      	adds	r5, r4, #4
1000499e:	0028      	movs	r0, r5
100049a0:	f000 ff8c 	bl	100058bc <uxListRemove>
100049a4:	6aa3      	ldr	r3, [r4, #40]	; 0x28
100049a6:	2b00      	cmp	r3, #0
100049a8:	d003      	beq.n	100049b2 <vTaskSuspend+0x22>
100049aa:	0020      	movs	r0, r4
100049ac:	3018      	adds	r0, #24
100049ae:	f000 ff85 	bl	100058bc <uxListRemove>
100049b2:	0029      	movs	r1, r5
100049b4:	481d      	ldr	r0, [pc, #116]	; (10004a2c <vTaskSuspend+0x9c>)
100049b6:	f000 ff5f 	bl	10005878 <vListInsertEnd>
100049ba:	2300      	movs	r3, #0
100049bc:	e003      	b.n	100049c6 <vTaskSuspend+0x36>
100049be:	4b1c      	ldr	r3, [pc, #112]	; (10004a30 <vTaskSuspend+0xa0>)
100049c0:	6d9c      	ldr	r4, [r3, #88]	; 0x58
100049c2:	e7eb      	b.n	1000499c <vTaskSuspend+0xc>
100049c4:	3301      	adds	r3, #1
100049c6:	2b02      	cmp	r3, #2
100049c8:	dc09      	bgt.n	100049de <vTaskSuspend+0x4e>
100049ca:	18e2      	adds	r2, r4, r3
100049cc:	3264      	adds	r2, #100	; 0x64
100049ce:	7812      	ldrb	r2, [r2, #0]
100049d0:	2a01      	cmp	r2, #1
100049d2:	d1f7      	bne.n	100049c4 <vTaskSuspend+0x34>
100049d4:	18e2      	adds	r2, r4, r3
100049d6:	3264      	adds	r2, #100	; 0x64
100049d8:	2100      	movs	r1, #0
100049da:	7011      	strb	r1, [r2, #0]
100049dc:	e7f2      	b.n	100049c4 <vTaskSuspend+0x34>
100049de:	f000 fec3 	bl	10005768 <vPortExitCritical>
100049e2:	4b13      	ldr	r3, [pc, #76]	; (10004a30 <vTaskSuspend+0xa0>)
100049e4:	6ddb      	ldr	r3, [r3, #92]	; 0x5c
100049e6:	2b00      	cmp	r3, #0
100049e8:	d104      	bne.n	100049f4 <vTaskSuspend+0x64>
100049ea:	4b11      	ldr	r3, [pc, #68]	; (10004a30 <vTaskSuspend+0xa0>)
100049ec:	6d9b      	ldr	r3, [r3, #88]	; 0x58
100049ee:	42a3      	cmp	r3, r4
100049f0:	d007      	beq.n	10004a02 <vTaskSuspend+0x72>
100049f2:	bd70      	pop	{r4, r5, r6, pc}
100049f4:	f000 feac 	bl	10005750 <vPortEnterCritical>
100049f8:	f7ff fae0 	bl	10003fbc <prvResetNextTaskUnblockTime>
100049fc:	f000 feb4 	bl	10005768 <vPortExitCritical>
10004a00:	e7f3      	b.n	100049ea <vTaskSuspend+0x5a>
10004a02:	4b0b      	ldr	r3, [pc, #44]	; (10004a30 <vTaskSuspend+0xa0>)
10004a04:	6ddb      	ldr	r3, [r3, #92]	; 0x5c
10004a06:	2b00      	cmp	r3, #0
10004a08:	d109      	bne.n	10004a1e <vTaskSuspend+0x8e>
10004a0a:	4b08      	ldr	r3, [pc, #32]	; (10004a2c <vTaskSuspend+0x9c>)
10004a0c:	681a      	ldr	r2, [r3, #0]
10004a0e:	4b08      	ldr	r3, [pc, #32]	; (10004a30 <vTaskSuspend+0xa0>)
10004a10:	6d5b      	ldr	r3, [r3, #84]	; 0x54
10004a12:	429a      	cmp	r2, r3
10004a14:	d106      	bne.n	10004a24 <vTaskSuspend+0x94>
10004a16:	4b06      	ldr	r3, [pc, #24]	; (10004a30 <vTaskSuspend+0xa0>)
10004a18:	2200      	movs	r2, #0
10004a1a:	659a      	str	r2, [r3, #88]	; 0x58
10004a1c:	e7e9      	b.n	100049f2 <vTaskSuspend+0x62>
10004a1e:	f000 fe8b 	bl	10005738 <vPortYield>
10004a22:	e7e6      	b.n	100049f2 <vTaskSuspend+0x62>
10004a24:	f7ff ff78 	bl	10004918 <vTaskSwitchContext>
10004a28:	e7e3      	b.n	100049f2 <vTaskSuspend+0x62>
10004a2a:	46c0      	nop			; (mov r8, r8)
10004a2c:	20000be4 	.word	0x20000be4
10004a30:	20000c64 	.word	0x20000c64

10004a34 <vTaskPlaceOnEventList>:
10004a34:	b510      	push	{r4, lr}
10004a36:	000c      	movs	r4, r1
10004a38:	4b04      	ldr	r3, [pc, #16]	; (10004a4c <vTaskPlaceOnEventList+0x18>)
10004a3a:	6d99      	ldr	r1, [r3, #88]	; 0x58
10004a3c:	3118      	adds	r1, #24
10004a3e:	f000 ff26 	bl	1000588e <vListInsert>
10004a42:	2101      	movs	r1, #1
10004a44:	0020      	movs	r0, r4
10004a46:	f7ff fbc5 	bl	100041d4 <prvAddCurrentTaskToDelayedList>
10004a4a:	bd10      	pop	{r4, pc}
10004a4c:	20000c64 	.word	0x20000c64

10004a50 <vTaskPlaceOnUnorderedEventList>:
10004a50:	b570      	push	{r4, r5, r6, lr}
10004a52:	0003      	movs	r3, r0
10004a54:	0010      	movs	r0, r2
10004a56:	4c0d      	ldr	r4, [pc, #52]	; (10004a8c <vTaskPlaceOnUnorderedEventList+0x3c>)
10004a58:	6da5      	ldr	r5, [r4, #88]	; 0x58
10004a5a:	2280      	movs	r2, #128	; 0x80
10004a5c:	0612      	lsls	r2, r2, #24
10004a5e:	430a      	orrs	r2, r1
10004a60:	61aa      	str	r2, [r5, #24]
10004a62:	685a      	ldr	r2, [r3, #4]
10004a64:	6da1      	ldr	r1, [r4, #88]	; 0x58
10004a66:	61ca      	str	r2, [r1, #28]
10004a68:	6da1      	ldr	r1, [r4, #88]	; 0x58
10004a6a:	6895      	ldr	r5, [r2, #8]
10004a6c:	620d      	str	r5, [r1, #32]
10004a6e:	6da1      	ldr	r1, [r4, #88]	; 0x58
10004a70:	3118      	adds	r1, #24
10004a72:	6069      	str	r1, [r5, #4]
10004a74:	6da1      	ldr	r1, [r4, #88]	; 0x58
10004a76:	3118      	adds	r1, #24
10004a78:	6091      	str	r1, [r2, #8]
10004a7a:	6da2      	ldr	r2, [r4, #88]	; 0x58
10004a7c:	6293      	str	r3, [r2, #40]	; 0x28
10004a7e:	681a      	ldr	r2, [r3, #0]
10004a80:	3201      	adds	r2, #1
10004a82:	601a      	str	r2, [r3, #0]
10004a84:	2101      	movs	r1, #1
10004a86:	f7ff fba5 	bl	100041d4 <prvAddCurrentTaskToDelayedList>
10004a8a:	bd70      	pop	{r4, r5, r6, pc}
10004a8c:	20000c64 	.word	0x20000c64

10004a90 <vTaskPlaceOnEventListRestricted>:
10004a90:	b570      	push	{r4, r5, r6, lr}
10004a92:	0003      	movs	r3, r0
10004a94:	0008      	movs	r0, r1
10004a96:	0011      	movs	r1, r2
10004a98:	685a      	ldr	r2, [r3, #4]
10004a9a:	4c0c      	ldr	r4, [pc, #48]	; (10004acc <vTaskPlaceOnEventListRestricted+0x3c>)
10004a9c:	6da5      	ldr	r5, [r4, #88]	; 0x58
10004a9e:	61ea      	str	r2, [r5, #28]
10004aa0:	6da5      	ldr	r5, [r4, #88]	; 0x58
10004aa2:	6896      	ldr	r6, [r2, #8]
10004aa4:	622e      	str	r6, [r5, #32]
10004aa6:	6da5      	ldr	r5, [r4, #88]	; 0x58
10004aa8:	3518      	adds	r5, #24
10004aaa:	6075      	str	r5, [r6, #4]
10004aac:	6da5      	ldr	r5, [r4, #88]	; 0x58
10004aae:	3518      	adds	r5, #24
10004ab0:	6095      	str	r5, [r2, #8]
10004ab2:	6da2      	ldr	r2, [r4, #88]	; 0x58
10004ab4:	6293      	str	r3, [r2, #40]	; 0x28
10004ab6:	681a      	ldr	r2, [r3, #0]
10004ab8:	3201      	adds	r2, #1
10004aba:	601a      	str	r2, [r3, #0]
10004abc:	2900      	cmp	r1, #0
10004abe:	d001      	beq.n	10004ac4 <vTaskPlaceOnEventListRestricted+0x34>
10004ac0:	2001      	movs	r0, #1
10004ac2:	4240      	negs	r0, r0
10004ac4:	f7ff fb86 	bl	100041d4 <prvAddCurrentTaskToDelayedList>
10004ac8:	bd70      	pop	{r4, r5, r6, pc}
10004aca:	46c0      	nop			; (mov r8, r8)
10004acc:	20000c64 	.word	0x20000c64

10004ad0 <xTaskRemoveFromEventList>:
10004ad0:	b530      	push	{r4, r5, lr}
10004ad2:	68c3      	ldr	r3, [r0, #12]
10004ad4:	68db      	ldr	r3, [r3, #12]
10004ad6:	6a9a      	ldr	r2, [r3, #40]	; 0x28
10004ad8:	69d8      	ldr	r0, [r3, #28]
10004ada:	6a19      	ldr	r1, [r3, #32]
10004adc:	6081      	str	r1, [r0, #8]
10004ade:	69d8      	ldr	r0, [r3, #28]
10004ae0:	6048      	str	r0, [r1, #4]
10004ae2:	0018      	movs	r0, r3
10004ae4:	3018      	adds	r0, #24
10004ae6:	6851      	ldr	r1, [r2, #4]
10004ae8:	4281      	cmp	r1, r0
10004aea:	d041      	beq.n	10004b70 <xTaskRemoveFromEventList+0xa0>
10004aec:	2100      	movs	r1, #0
10004aee:	6299      	str	r1, [r3, #40]	; 0x28
10004af0:	6811      	ldr	r1, [r2, #0]
10004af2:	3901      	subs	r1, #1
10004af4:	6011      	str	r1, [r2, #0]
10004af6:	4a29      	ldr	r2, [pc, #164]	; (10004b9c <xTaskRemoveFromEventList+0xcc>)
10004af8:	6f12      	ldr	r2, [r2, #112]	; 0x70
10004afa:	2a00      	cmp	r2, #0
10004afc:	d13e      	bne.n	10004b7c <xTaskRemoveFromEventList+0xac>
10004afe:	695a      	ldr	r2, [r3, #20]
10004b00:	6898      	ldr	r0, [r3, #8]
10004b02:	68d9      	ldr	r1, [r3, #12]
10004b04:	6081      	str	r1, [r0, #8]
10004b06:	6898      	ldr	r0, [r3, #8]
10004b08:	6048      	str	r0, [r1, #4]
10004b0a:	1d1c      	adds	r4, r3, #4
10004b0c:	6851      	ldr	r1, [r2, #4]
10004b0e:	42a1      	cmp	r1, r4
10004b10:	d031      	beq.n	10004b76 <xTaskRemoveFromEventList+0xa6>
10004b12:	2100      	movs	r1, #0
10004b14:	6159      	str	r1, [r3, #20]
10004b16:	6811      	ldr	r1, [r2, #0]
10004b18:	3901      	subs	r1, #1
10004b1a:	6011      	str	r1, [r2, #0]
10004b1c:	6ada      	ldr	r2, [r3, #44]	; 0x2c
10004b1e:	491f      	ldr	r1, [pc, #124]	; (10004b9c <xTaskRemoveFromEventList+0xcc>)
10004b20:	6e49      	ldr	r1, [r1, #100]	; 0x64
10004b22:	428a      	cmp	r2, r1
10004b24:	d901      	bls.n	10004b2a <xTaskRemoveFromEventList+0x5a>
10004b26:	491d      	ldr	r1, [pc, #116]	; (10004b9c <xTaskRemoveFromEventList+0xcc>)
10004b28:	664a      	str	r2, [r1, #100]	; 0x64
10004b2a:	481d      	ldr	r0, [pc, #116]	; (10004ba0 <xTaskRemoveFromEventList+0xd0>)
10004b2c:	0091      	lsls	r1, r2, #2
10004b2e:	1889      	adds	r1, r1, r2
10004b30:	0089      	lsls	r1, r1, #2
10004b32:	1841      	adds	r1, r0, r1
10004b34:	6b4a      	ldr	r2, [r1, #52]	; 0x34
10004b36:	609a      	str	r2, [r3, #8]
10004b38:	6891      	ldr	r1, [r2, #8]
10004b3a:	60d9      	str	r1, [r3, #12]
10004b3c:	604c      	str	r4, [r1, #4]
10004b3e:	6094      	str	r4, [r2, #8]
10004b40:	6adc      	ldr	r4, [r3, #44]	; 0x2c
10004b42:	0001      	movs	r1, r0
10004b44:	3130      	adds	r1, #48	; 0x30
10004b46:	00a2      	lsls	r2, r4, #2
10004b48:	1915      	adds	r5, r2, r4
10004b4a:	00ad      	lsls	r5, r5, #2
10004b4c:	1949      	adds	r1, r1, r5
10004b4e:	6159      	str	r1, [r3, #20]
10004b50:	1941      	adds	r1, r0, r5
10004b52:	6b09      	ldr	r1, [r1, #48]	; 0x30
10004b54:	3101      	adds	r1, #1
10004b56:	1942      	adds	r2, r0, r5
10004b58:	6311      	str	r1, [r2, #48]	; 0x30
10004b5a:	6ada      	ldr	r2, [r3, #44]	; 0x2c
10004b5c:	4b0f      	ldr	r3, [pc, #60]	; (10004b9c <xTaskRemoveFromEventList+0xcc>)
10004b5e:	6d9b      	ldr	r3, [r3, #88]	; 0x58
10004b60:	6adb      	ldr	r3, [r3, #44]	; 0x2c
10004b62:	429a      	cmp	r2, r3
10004b64:	d918      	bls.n	10004b98 <xTaskRemoveFromEventList+0xc8>
10004b66:	4b0d      	ldr	r3, [pc, #52]	; (10004b9c <xTaskRemoveFromEventList+0xcc>)
10004b68:	2201      	movs	r2, #1
10004b6a:	675a      	str	r2, [r3, #116]	; 0x74
10004b6c:	2001      	movs	r0, #1
10004b6e:	bd30      	pop	{r4, r5, pc}
10004b70:	6a19      	ldr	r1, [r3, #32]
10004b72:	6051      	str	r1, [r2, #4]
10004b74:	e7ba      	b.n	10004aec <xTaskRemoveFromEventList+0x1c>
10004b76:	68d9      	ldr	r1, [r3, #12]
10004b78:	6051      	str	r1, [r2, #4]
10004b7a:	e7ca      	b.n	10004b12 <xTaskRemoveFromEventList+0x42>
10004b7c:	4a08      	ldr	r2, [pc, #32]	; (10004ba0 <xTaskRemoveFromEventList+0xd0>)
10004b7e:	6991      	ldr	r1, [r2, #24]
10004b80:	61d9      	str	r1, [r3, #28]
10004b82:	688c      	ldr	r4, [r1, #8]
10004b84:	621c      	str	r4, [r3, #32]
10004b86:	6060      	str	r0, [r4, #4]
10004b88:	6088      	str	r0, [r1, #8]
10004b8a:	0011      	movs	r1, r2
10004b8c:	3114      	adds	r1, #20
10004b8e:	6299      	str	r1, [r3, #40]	; 0x28
10004b90:	6951      	ldr	r1, [r2, #20]
10004b92:	3101      	adds	r1, #1
10004b94:	6151      	str	r1, [r2, #20]
10004b96:	e7e0      	b.n	10004b5a <xTaskRemoveFromEventList+0x8a>
10004b98:	2000      	movs	r0, #0
10004b9a:	e7e8      	b.n	10004b6e <xTaskRemoveFromEventList+0x9e>
10004b9c:	20000c64 	.word	0x20000c64
10004ba0:	20000be4 	.word	0x20000be4

10004ba4 <vTaskRemoveFromUnorderedEventList>:
10004ba4:	b530      	push	{r4, r5, lr}
10004ba6:	2380      	movs	r3, #128	; 0x80
10004ba8:	061b      	lsls	r3, r3, #24
10004baa:	430b      	orrs	r3, r1
10004bac:	6003      	str	r3, [r0, #0]
10004bae:	68c3      	ldr	r3, [r0, #12]
10004bb0:	6902      	ldr	r2, [r0, #16]
10004bb2:	6841      	ldr	r1, [r0, #4]
10004bb4:	6884      	ldr	r4, [r0, #8]
10004bb6:	608c      	str	r4, [r1, #8]
10004bb8:	6881      	ldr	r1, [r0, #8]
10004bba:	6844      	ldr	r4, [r0, #4]
10004bbc:	604c      	str	r4, [r1, #4]
10004bbe:	6851      	ldr	r1, [r2, #4]
10004bc0:	4281      	cmp	r1, r0
10004bc2:	d03c      	beq.n	10004c3e <vTaskRemoveFromUnorderedEventList+0x9a>
10004bc4:	2100      	movs	r1, #0
10004bc6:	6101      	str	r1, [r0, #16]
10004bc8:	6811      	ldr	r1, [r2, #0]
10004bca:	3901      	subs	r1, #1
10004bcc:	6011      	str	r1, [r2, #0]
10004bce:	695a      	ldr	r2, [r3, #20]
10004bd0:	6898      	ldr	r0, [r3, #8]
10004bd2:	68d9      	ldr	r1, [r3, #12]
10004bd4:	6081      	str	r1, [r0, #8]
10004bd6:	6898      	ldr	r0, [r3, #8]
10004bd8:	6048      	str	r0, [r1, #4]
10004bda:	1d1c      	adds	r4, r3, #4
10004bdc:	6851      	ldr	r1, [r2, #4]
10004bde:	42a1      	cmp	r1, r4
10004be0:	d030      	beq.n	10004c44 <vTaskRemoveFromUnorderedEventList+0xa0>
10004be2:	2100      	movs	r1, #0
10004be4:	6159      	str	r1, [r3, #20]
10004be6:	6811      	ldr	r1, [r2, #0]
10004be8:	3901      	subs	r1, #1
10004bea:	6011      	str	r1, [r2, #0]
10004bec:	6ada      	ldr	r2, [r3, #44]	; 0x2c
10004bee:	4917      	ldr	r1, [pc, #92]	; (10004c4c <vTaskRemoveFromUnorderedEventList+0xa8>)
10004bf0:	6e49      	ldr	r1, [r1, #100]	; 0x64
10004bf2:	428a      	cmp	r2, r1
10004bf4:	d901      	bls.n	10004bfa <vTaskRemoveFromUnorderedEventList+0x56>
10004bf6:	4915      	ldr	r1, [pc, #84]	; (10004c4c <vTaskRemoveFromUnorderedEventList+0xa8>)
10004bf8:	664a      	str	r2, [r1, #100]	; 0x64
10004bfa:	4815      	ldr	r0, [pc, #84]	; (10004c50 <vTaskRemoveFromUnorderedEventList+0xac>)
10004bfc:	0091      	lsls	r1, r2, #2
10004bfe:	1889      	adds	r1, r1, r2
10004c00:	0089      	lsls	r1, r1, #2
10004c02:	1841      	adds	r1, r0, r1
10004c04:	6b4a      	ldr	r2, [r1, #52]	; 0x34
10004c06:	609a      	str	r2, [r3, #8]
10004c08:	6891      	ldr	r1, [r2, #8]
10004c0a:	60d9      	str	r1, [r3, #12]
10004c0c:	604c      	str	r4, [r1, #4]
10004c0e:	6094      	str	r4, [r2, #8]
10004c10:	6adc      	ldr	r4, [r3, #44]	; 0x2c
10004c12:	0001      	movs	r1, r0
10004c14:	3130      	adds	r1, #48	; 0x30
10004c16:	00a2      	lsls	r2, r4, #2
10004c18:	1915      	adds	r5, r2, r4
10004c1a:	00ad      	lsls	r5, r5, #2
10004c1c:	1949      	adds	r1, r1, r5
10004c1e:	6159      	str	r1, [r3, #20]
10004c20:	1941      	adds	r1, r0, r5
10004c22:	6b09      	ldr	r1, [r1, #48]	; 0x30
10004c24:	3101      	adds	r1, #1
10004c26:	1942      	adds	r2, r0, r5
10004c28:	6311      	str	r1, [r2, #48]	; 0x30
10004c2a:	6ada      	ldr	r2, [r3, #44]	; 0x2c
10004c2c:	4b07      	ldr	r3, [pc, #28]	; (10004c4c <vTaskRemoveFromUnorderedEventList+0xa8>)
10004c2e:	6d9b      	ldr	r3, [r3, #88]	; 0x58
10004c30:	6adb      	ldr	r3, [r3, #44]	; 0x2c
10004c32:	429a      	cmp	r2, r3
10004c34:	d902      	bls.n	10004c3c <vTaskRemoveFromUnorderedEventList+0x98>
10004c36:	4b05      	ldr	r3, [pc, #20]	; (10004c4c <vTaskRemoveFromUnorderedEventList+0xa8>)
10004c38:	2201      	movs	r2, #1
10004c3a:	675a      	str	r2, [r3, #116]	; 0x74
10004c3c:	bd30      	pop	{r4, r5, pc}
10004c3e:	6881      	ldr	r1, [r0, #8]
10004c40:	6051      	str	r1, [r2, #4]
10004c42:	e7bf      	b.n	10004bc4 <vTaskRemoveFromUnorderedEventList+0x20>
10004c44:	68d9      	ldr	r1, [r3, #12]
10004c46:	6051      	str	r1, [r2, #4]
10004c48:	e7cb      	b.n	10004be2 <vTaskRemoveFromUnorderedEventList+0x3e>
10004c4a:	46c0      	nop			; (mov r8, r8)
10004c4c:	20000c64 	.word	0x20000c64
10004c50:	20000be4 	.word	0x20000be4

10004c54 <vTaskSetTimeOutState>:
10004c54:	b510      	push	{r4, lr}
10004c56:	0004      	movs	r4, r0
10004c58:	f000 fd7a 	bl	10005750 <vPortEnterCritical>
10004c5c:	4b03      	ldr	r3, [pc, #12]	; (10004c6c <vTaskSetTimeOutState+0x18>)
10004c5e:	6fda      	ldr	r2, [r3, #124]	; 0x7c
10004c60:	6022      	str	r2, [r4, #0]
10004c62:	6edb      	ldr	r3, [r3, #108]	; 0x6c
10004c64:	6063      	str	r3, [r4, #4]
10004c66:	f000 fd7f 	bl	10005768 <vPortExitCritical>
10004c6a:	bd10      	pop	{r4, pc}
10004c6c:	20000c64 	.word	0x20000c64

10004c70 <vTaskInternalSetTimeOutState>:
10004c70:	4b02      	ldr	r3, [pc, #8]	; (10004c7c <vTaskInternalSetTimeOutState+0xc>)
10004c72:	6fda      	ldr	r2, [r3, #124]	; 0x7c
10004c74:	6002      	str	r2, [r0, #0]
10004c76:	6edb      	ldr	r3, [r3, #108]	; 0x6c
10004c78:	6043      	str	r3, [r0, #4]
10004c7a:	4770      	bx	lr
10004c7c:	20000c64 	.word	0x20000c64

10004c80 <xTaskCheckForTimeOut>:
10004c80:	b5f8      	push	{r3, r4, r5, r6, r7, lr}
10004c82:	0004      	movs	r4, r0
10004c84:	000d      	movs	r5, r1
10004c86:	f000 fd63 	bl	10005750 <vPortEnterCritical>
10004c8a:	4b12      	ldr	r3, [pc, #72]	; (10004cd4 <xTaskCheckForTimeOut+0x54>)
10004c8c:	6ed9      	ldr	r1, [r3, #108]	; 0x6c
10004c8e:	6863      	ldr	r3, [r4, #4]
10004c90:	1ac8      	subs	r0, r1, r3
10004c92:	682a      	ldr	r2, [r5, #0]
10004c94:	1c56      	adds	r6, r2, #1
10004c96:	d018      	beq.n	10004cca <xTaskCheckForTimeOut+0x4a>
10004c98:	4e0e      	ldr	r6, [pc, #56]	; (10004cd4 <xTaskCheckForTimeOut+0x54>)
10004c9a:	6ff6      	ldr	r6, [r6, #124]	; 0x7c
10004c9c:	6827      	ldr	r7, [r4, #0]
10004c9e:	42b7      	cmp	r7, r6
10004ca0:	d005      	beq.n	10004cae <xTaskCheckForTimeOut+0x2e>
10004ca2:	428b      	cmp	r3, r1
10004ca4:	d803      	bhi.n	10004cae <xTaskCheckForTimeOut+0x2e>
10004ca6:	2300      	movs	r3, #0
10004ca8:	602b      	str	r3, [r5, #0]
10004caa:	2401      	movs	r4, #1
10004cac:	e00e      	b.n	10004ccc <xTaskCheckForTimeOut+0x4c>
10004cae:	4282      	cmp	r2, r0
10004cb0:	d803      	bhi.n	10004cba <xTaskCheckForTimeOut+0x3a>
10004cb2:	2300      	movs	r3, #0
10004cb4:	602b      	str	r3, [r5, #0]
10004cb6:	2401      	movs	r4, #1
10004cb8:	e008      	b.n	10004ccc <xTaskCheckForTimeOut+0x4c>
10004cba:	1a5b      	subs	r3, r3, r1
10004cbc:	189b      	adds	r3, r3, r2
10004cbe:	602b      	str	r3, [r5, #0]
10004cc0:	0020      	movs	r0, r4
10004cc2:	f7ff ffd5 	bl	10004c70 <vTaskInternalSetTimeOutState>
10004cc6:	2400      	movs	r4, #0
10004cc8:	e000      	b.n	10004ccc <xTaskCheckForTimeOut+0x4c>
10004cca:	2400      	movs	r4, #0
10004ccc:	f000 fd4c 	bl	10005768 <vPortExitCritical>
10004cd0:	0020      	movs	r0, r4
10004cd2:	bdf8      	pop	{r3, r4, r5, r6, r7, pc}
10004cd4:	20000c64 	.word	0x20000c64

10004cd8 <vTaskMissedYield>:
10004cd8:	4b01      	ldr	r3, [pc, #4]	; (10004ce0 <vTaskMissedYield+0x8>)
10004cda:	2201      	movs	r2, #1
10004cdc:	675a      	str	r2, [r3, #116]	; 0x74
10004cde:	4770      	bx	lr
10004ce0:	20000c64 	.word	0x20000c64

10004ce4 <vTaskSetThreadLocalStoragePointer>:
10004ce4:	2904      	cmp	r1, #4
10004ce6:	dc05      	bgt.n	10004cf4 <vTaskSetThreadLocalStoragePointer+0x10>
10004ce8:	2800      	cmp	r0, #0
10004cea:	d004      	beq.n	10004cf6 <vTaskSetThreadLocalStoragePointer+0x12>
10004cec:	3110      	adds	r1, #16
10004cee:	0089      	lsls	r1, r1, #2
10004cf0:	1841      	adds	r1, r0, r1
10004cf2:	604a      	str	r2, [r1, #4]
10004cf4:	4770      	bx	lr
10004cf6:	4b01      	ldr	r3, [pc, #4]	; (10004cfc <vTaskSetThreadLocalStoragePointer+0x18>)
10004cf8:	6d98      	ldr	r0, [r3, #88]	; 0x58
10004cfa:	e7f7      	b.n	10004cec <vTaskSetThreadLocalStoragePointer+0x8>
10004cfc:	20000c64 	.word	0x20000c64

10004d00 <pvTaskGetThreadLocalStoragePointer>:
10004d00:	2904      	cmp	r1, #4
10004d02:	dc09      	bgt.n	10004d18 <pvTaskGetThreadLocalStoragePointer+0x18>
10004d04:	2800      	cmp	r0, #0
10004d06:	d004      	beq.n	10004d12 <pvTaskGetThreadLocalStoragePointer+0x12>
10004d08:	3110      	adds	r1, #16
10004d0a:	0089      	lsls	r1, r1, #2
10004d0c:	1841      	adds	r1, r0, r1
10004d0e:	6848      	ldr	r0, [r1, #4]
10004d10:	4770      	bx	lr
10004d12:	4b02      	ldr	r3, [pc, #8]	; (10004d1c <pvTaskGetThreadLocalStoragePointer+0x1c>)
10004d14:	6d98      	ldr	r0, [r3, #88]	; 0x58
10004d16:	e7f7      	b.n	10004d08 <pvTaskGetThreadLocalStoragePointer+0x8>
10004d18:	2000      	movs	r0, #0
10004d1a:	e7f9      	b.n	10004d10 <pvTaskGetThreadLocalStoragePointer+0x10>
10004d1c:	20000c64 	.word	0x20000c64

10004d20 <xTaskGetCurrentTaskHandle>:
10004d20:	4b01      	ldr	r3, [pc, #4]	; (10004d28 <xTaskGetCurrentTaskHandle+0x8>)
10004d22:	6d98      	ldr	r0, [r3, #88]	; 0x58
10004d24:	4770      	bx	lr
10004d26:	46c0      	nop			; (mov r8, r8)
10004d28:	20000c64 	.word	0x20000c64

10004d2c <xTaskGetSchedulerState>:
10004d2c:	4b06      	ldr	r3, [pc, #24]	; (10004d48 <xTaskGetSchedulerState+0x1c>)
10004d2e:	6ddb      	ldr	r3, [r3, #92]	; 0x5c
10004d30:	2b00      	cmp	r3, #0
10004d32:	d007      	beq.n	10004d44 <xTaskGetSchedulerState+0x18>
10004d34:	4b04      	ldr	r3, [pc, #16]	; (10004d48 <xTaskGetSchedulerState+0x1c>)
10004d36:	6f1b      	ldr	r3, [r3, #112]	; 0x70
10004d38:	2b00      	cmp	r3, #0
10004d3a:	d001      	beq.n	10004d40 <xTaskGetSchedulerState+0x14>
10004d3c:	2000      	movs	r0, #0
10004d3e:	e002      	b.n	10004d46 <xTaskGetSchedulerState+0x1a>
10004d40:	2002      	movs	r0, #2
10004d42:	e000      	b.n	10004d46 <xTaskGetSchedulerState+0x1a>
10004d44:	2001      	movs	r0, #1
10004d46:	4770      	bx	lr
10004d48:	20000c64 	.word	0x20000c64

10004d4c <uxTaskResetEventItemValue>:
10004d4c:	4a04      	ldr	r2, [pc, #16]	; (10004d60 <uxTaskResetEventItemValue+0x14>)
10004d4e:	6d93      	ldr	r3, [r2, #88]	; 0x58
10004d50:	6998      	ldr	r0, [r3, #24]
10004d52:	6d93      	ldr	r3, [r2, #88]	; 0x58
10004d54:	6ad9      	ldr	r1, [r3, #44]	; 0x2c
10004d56:	6d92      	ldr	r2, [r2, #88]	; 0x58
10004d58:	2305      	movs	r3, #5
10004d5a:	1a5b      	subs	r3, r3, r1
10004d5c:	6193      	str	r3, [r2, #24]
10004d5e:	4770      	bx	lr
10004d60:	20000c64 	.word	0x20000c64

10004d64 <ulTaskGenericNotifyTake>:
10004d64:	b570      	push	{r4, r5, r6, lr}
10004d66:	0004      	movs	r4, r0
10004d68:	000d      	movs	r5, r1
10004d6a:	0016      	movs	r6, r2
10004d6c:	f000 fcf0 	bl	10005750 <vPortEnterCritical>
10004d70:	4b1e      	ldr	r3, [pc, #120]	; (10004dec <ulTaskGenericNotifyTake+0x88>)
10004d72:	6d9a      	ldr	r2, [r3, #88]	; 0x58
10004d74:	0023      	movs	r3, r4
10004d76:	3316      	adds	r3, #22
10004d78:	009b      	lsls	r3, r3, #2
10004d7a:	589b      	ldr	r3, [r3, r2]
10004d7c:	2b00      	cmp	r3, #0
10004d7e:	d107      	bne.n	10004d90 <ulTaskGenericNotifyTake+0x2c>
10004d80:	4b1a      	ldr	r3, [pc, #104]	; (10004dec <ulTaskGenericNotifyTake+0x88>)
10004d82:	6d9b      	ldr	r3, [r3, #88]	; 0x58
10004d84:	191b      	adds	r3, r3, r4
10004d86:	3364      	adds	r3, #100	; 0x64
10004d88:	2201      	movs	r2, #1
10004d8a:	701a      	strb	r2, [r3, #0]
10004d8c:	2e00      	cmp	r6, #0
10004d8e:	d11e      	bne.n	10004dce <ulTaskGenericNotifyTake+0x6a>
10004d90:	f000 fcea 	bl	10005768 <vPortExitCritical>
10004d94:	f000 fcdc 	bl	10005750 <vPortEnterCritical>
10004d98:	4b14      	ldr	r3, [pc, #80]	; (10004dec <ulTaskGenericNotifyTake+0x88>)
10004d9a:	6d9a      	ldr	r2, [r3, #88]	; 0x58
10004d9c:	0023      	movs	r3, r4
10004d9e:	3316      	adds	r3, #22
10004da0:	009b      	lsls	r3, r3, #2
10004da2:	589e      	ldr	r6, [r3, r2]
10004da4:	2e00      	cmp	r6, #0
10004da6:	d008      	beq.n	10004dba <ulTaskGenericNotifyTake+0x56>
10004da8:	2d00      	cmp	r5, #0
10004daa:	d017      	beq.n	10004ddc <ulTaskGenericNotifyTake+0x78>
10004dac:	4b0f      	ldr	r3, [pc, #60]	; (10004dec <ulTaskGenericNotifyTake+0x88>)
10004dae:	6d9a      	ldr	r2, [r3, #88]	; 0x58
10004db0:	0023      	movs	r3, r4
10004db2:	3316      	adds	r3, #22
10004db4:	009b      	lsls	r3, r3, #2
10004db6:	2100      	movs	r1, #0
10004db8:	5099      	str	r1, [r3, r2]
10004dba:	4b0c      	ldr	r3, [pc, #48]	; (10004dec <ulTaskGenericNotifyTake+0x88>)
10004dbc:	6d98      	ldr	r0, [r3, #88]	; 0x58
10004dbe:	1904      	adds	r4, r0, r4
10004dc0:	3464      	adds	r4, #100	; 0x64
10004dc2:	2300      	movs	r3, #0
10004dc4:	7023      	strb	r3, [r4, #0]
10004dc6:	f000 fccf 	bl	10005768 <vPortExitCritical>
10004dca:	0030      	movs	r0, r6
10004dcc:	bd70      	pop	{r4, r5, r6, pc}
10004dce:	2101      	movs	r1, #1
10004dd0:	0030      	movs	r0, r6
10004dd2:	f7ff f9ff 	bl	100041d4 <prvAddCurrentTaskToDelayedList>
10004dd6:	f000 fcaf 	bl	10005738 <vPortYield>
10004dda:	e7d9      	b.n	10004d90 <ulTaskGenericNotifyTake+0x2c>
10004ddc:	4b03      	ldr	r3, [pc, #12]	; (10004dec <ulTaskGenericNotifyTake+0x88>)
10004dde:	6d99      	ldr	r1, [r3, #88]	; 0x58
10004de0:	1e72      	subs	r2, r6, #1
10004de2:	0023      	movs	r3, r4
10004de4:	3316      	adds	r3, #22
10004de6:	009b      	lsls	r3, r3, #2
10004de8:	505a      	str	r2, [r3, r1]
10004dea:	e7e6      	b.n	10004dba <ulTaskGenericNotifyTake+0x56>
10004dec:	20000c64 	.word	0x20000c64

10004df0 <xTaskGenericNotifyWait>:
10004df0:	b5f8      	push	{r3, r4, r5, r6, r7, lr}
10004df2:	0004      	movs	r4, r0
10004df4:	000e      	movs	r6, r1
10004df6:	0015      	movs	r5, r2
10004df8:	001f      	movs	r7, r3
10004dfa:	f000 fca9 	bl	10005750 <vPortEnterCritical>
10004dfe:	4b23      	ldr	r3, [pc, #140]	; (10004e8c <xTaskGenericNotifyWait+0x9c>)
10004e00:	6d9a      	ldr	r2, [r3, #88]	; 0x58
10004e02:	1912      	adds	r2, r2, r4
10004e04:	3264      	adds	r2, #100	; 0x64
10004e06:	7813      	ldrb	r3, [r2, #0]
10004e08:	2b02      	cmp	r3, #2
10004e0a:	d00f      	beq.n	10004e2c <xTaskGenericNotifyWait+0x3c>
10004e0c:	491f      	ldr	r1, [pc, #124]	; (10004e8c <xTaskGenericNotifyWait+0x9c>)
10004e0e:	6d88      	ldr	r0, [r1, #88]	; 0x58
10004e10:	0023      	movs	r3, r4
10004e12:	3316      	adds	r3, #22
10004e14:	009b      	lsls	r3, r3, #2
10004e16:	581a      	ldr	r2, [r3, r0]
10004e18:	43b2      	bics	r2, r6
10004e1a:	501a      	str	r2, [r3, r0]
10004e1c:	6d8b      	ldr	r3, [r1, #88]	; 0x58
10004e1e:	191b      	adds	r3, r3, r4
10004e20:	3364      	adds	r3, #100	; 0x64
10004e22:	2201      	movs	r2, #1
10004e24:	701a      	strb	r2, [r3, #0]
10004e26:	9b06      	ldr	r3, [sp, #24]
10004e28:	2b00      	cmp	r3, #0
10004e2a:	d11e      	bne.n	10004e6a <xTaskGenericNotifyWait+0x7a>
10004e2c:	f000 fc9c 	bl	10005768 <vPortExitCritical>
10004e30:	f000 fc8e 	bl	10005750 <vPortEnterCritical>
10004e34:	2f00      	cmp	r7, #0
10004e36:	d006      	beq.n	10004e46 <xTaskGenericNotifyWait+0x56>
10004e38:	4b14      	ldr	r3, [pc, #80]	; (10004e8c <xTaskGenericNotifyWait+0x9c>)
10004e3a:	6d9a      	ldr	r2, [r3, #88]	; 0x58
10004e3c:	0023      	movs	r3, r4
10004e3e:	3316      	adds	r3, #22
10004e40:	009b      	lsls	r3, r3, #2
10004e42:	589b      	ldr	r3, [r3, r2]
10004e44:	603b      	str	r3, [r7, #0]
10004e46:	4b11      	ldr	r3, [pc, #68]	; (10004e8c <xTaskGenericNotifyWait+0x9c>)
10004e48:	6d9b      	ldr	r3, [r3, #88]	; 0x58
10004e4a:	191b      	adds	r3, r3, r4
10004e4c:	3364      	adds	r3, #100	; 0x64
10004e4e:	781b      	ldrb	r3, [r3, #0]
10004e50:	2b02      	cmp	r3, #2
10004e52:	d011      	beq.n	10004e78 <xTaskGenericNotifyWait+0x88>
10004e54:	2500      	movs	r5, #0
10004e56:	4b0d      	ldr	r3, [pc, #52]	; (10004e8c <xTaskGenericNotifyWait+0x9c>)
10004e58:	6d98      	ldr	r0, [r3, #88]	; 0x58
10004e5a:	1904      	adds	r4, r0, r4
10004e5c:	3464      	adds	r4, #100	; 0x64
10004e5e:	2300      	movs	r3, #0
10004e60:	7023      	strb	r3, [r4, #0]
10004e62:	f000 fc81 	bl	10005768 <vPortExitCritical>
10004e66:	0028      	movs	r0, r5
10004e68:	bdf8      	pop	{r3, r4, r5, r6, r7, pc}
10004e6a:	2101      	movs	r1, #1
10004e6c:	0018      	movs	r0, r3
10004e6e:	f7ff f9b1 	bl	100041d4 <prvAddCurrentTaskToDelayedList>
10004e72:	f000 fc61 	bl	10005738 <vPortYield>
10004e76:	e7d9      	b.n	10004e2c <xTaskGenericNotifyWait+0x3c>
10004e78:	4b04      	ldr	r3, [pc, #16]	; (10004e8c <xTaskGenericNotifyWait+0x9c>)
10004e7a:	6d99      	ldr	r1, [r3, #88]	; 0x58
10004e7c:	0023      	movs	r3, r4
10004e7e:	3316      	adds	r3, #22
10004e80:	009b      	lsls	r3, r3, #2
10004e82:	585a      	ldr	r2, [r3, r1]
10004e84:	43aa      	bics	r2, r5
10004e86:	505a      	str	r2, [r3, r1]
10004e88:	2501      	movs	r5, #1
10004e8a:	e7e4      	b.n	10004e56 <xTaskGenericNotifyWait+0x66>
10004e8c:	20000c64 	.word	0x20000c64

10004e90 <xTaskGenericNotify>:
10004e90:	b5f8      	push	{r3, r4, r5, r6, r7, lr}
10004e92:	0004      	movs	r4, r0
10004e94:	000d      	movs	r5, r1
10004e96:	0016      	movs	r6, r2
10004e98:	001f      	movs	r7, r3
10004e9a:	f000 fc59 	bl	10005750 <vPortEnterCritical>
10004e9e:	9b06      	ldr	r3, [sp, #24]
10004ea0:	2b00      	cmp	r3, #0
10004ea2:	d005      	beq.n	10004eb0 <xTaskGenericNotify+0x20>
10004ea4:	002b      	movs	r3, r5
10004ea6:	3316      	adds	r3, #22
10004ea8:	009b      	lsls	r3, r3, #2
10004eaa:	591b      	ldr	r3, [r3, r4]
10004eac:	9a06      	ldr	r2, [sp, #24]
10004eae:	6013      	str	r3, [r2, #0]
10004eb0:	1961      	adds	r1, r4, r5
10004eb2:	3164      	adds	r1, #100	; 0x64
10004eb4:	7808      	ldrb	r0, [r1, #0]
10004eb6:	b2c0      	uxtb	r0, r0
10004eb8:	2302      	movs	r3, #2
10004eba:	700b      	strb	r3, [r1, #0]
10004ebc:	2f03      	cmp	r7, #3
10004ebe:	d024      	beq.n	10004f0a <xTaskGenericNotify+0x7a>
10004ec0:	d80c      	bhi.n	10004edc <xTaskGenericNotify+0x4c>
10004ec2:	2f01      	cmp	r7, #1
10004ec4:	d01a      	beq.n	10004efc <xTaskGenericNotify+0x6c>
10004ec6:	2f02      	cmp	r7, #2
10004ec8:	d106      	bne.n	10004ed8 <xTaskGenericNotify+0x48>
10004eca:	3516      	adds	r5, #22
10004ecc:	00ad      	lsls	r5, r5, #2
10004ece:	592b      	ldr	r3, [r5, r4]
10004ed0:	3301      	adds	r3, #1
10004ed2:	512b      	str	r3, [r5, r4]
10004ed4:	2501      	movs	r5, #1
10004ed6:	e00b      	b.n	10004ef0 <xTaskGenericNotify+0x60>
10004ed8:	2501      	movs	r5, #1
10004eda:	e009      	b.n	10004ef0 <xTaskGenericNotify+0x60>
10004edc:	2f04      	cmp	r7, #4
10004ede:	d106      	bne.n	10004eee <xTaskGenericNotify+0x5e>
10004ee0:	2802      	cmp	r0, #2
10004ee2:	d017      	beq.n	10004f14 <xTaskGenericNotify+0x84>
10004ee4:	3516      	adds	r5, #22
10004ee6:	00ad      	lsls	r5, r5, #2
10004ee8:	512e      	str	r6, [r5, r4]
10004eea:	2501      	movs	r5, #1
10004eec:	e000      	b.n	10004ef0 <xTaskGenericNotify+0x60>
10004eee:	2501      	movs	r5, #1
10004ef0:	2801      	cmp	r0, #1
10004ef2:	d011      	beq.n	10004f18 <xTaskGenericNotify+0x88>
10004ef4:	f000 fc38 	bl	10005768 <vPortExitCritical>
10004ef8:	0028      	movs	r0, r5
10004efa:	bdf8      	pop	{r3, r4, r5, r6, r7, pc}
10004efc:	3516      	adds	r5, #22
10004efe:	00ad      	lsls	r5, r5, #2
10004f00:	592a      	ldr	r2, [r5, r4]
10004f02:	4316      	orrs	r6, r2
10004f04:	512e      	str	r6, [r5, r4]
10004f06:	2501      	movs	r5, #1
10004f08:	e7f2      	b.n	10004ef0 <xTaskGenericNotify+0x60>
10004f0a:	3516      	adds	r5, #22
10004f0c:	00ad      	lsls	r5, r5, #2
10004f0e:	512e      	str	r6, [r5, r4]
10004f10:	2501      	movs	r5, #1
10004f12:	e7ed      	b.n	10004ef0 <xTaskGenericNotify+0x60>
10004f14:	2500      	movs	r5, #0
10004f16:	e7eb      	b.n	10004ef0 <xTaskGenericNotify+0x60>
10004f18:	6963      	ldr	r3, [r4, #20]
10004f1a:	68a2      	ldr	r2, [r4, #8]
10004f1c:	68e1      	ldr	r1, [r4, #12]
10004f1e:	6091      	str	r1, [r2, #8]
10004f20:	68e2      	ldr	r2, [r4, #12]
10004f22:	68a1      	ldr	r1, [r4, #8]
10004f24:	6051      	str	r1, [r2, #4]
10004f26:	1d21      	adds	r1, r4, #4
10004f28:	685a      	ldr	r2, [r3, #4]
10004f2a:	428a      	cmp	r2, r1
10004f2c:	d02c      	beq.n	10004f88 <xTaskGenericNotify+0xf8>
10004f2e:	2200      	movs	r2, #0
10004f30:	6162      	str	r2, [r4, #20]
10004f32:	681a      	ldr	r2, [r3, #0]
10004f34:	3a01      	subs	r2, #1
10004f36:	601a      	str	r2, [r3, #0]
10004f38:	6ae3      	ldr	r3, [r4, #44]	; 0x2c
10004f3a:	4a15      	ldr	r2, [pc, #84]	; (10004f90 <xTaskGenericNotify+0x100>)
10004f3c:	6e52      	ldr	r2, [r2, #100]	; 0x64
10004f3e:	4293      	cmp	r3, r2
10004f40:	d901      	bls.n	10004f46 <xTaskGenericNotify+0xb6>
10004f42:	4a13      	ldr	r2, [pc, #76]	; (10004f90 <xTaskGenericNotify+0x100>)
10004f44:	6653      	str	r3, [r2, #100]	; 0x64
10004f46:	4813      	ldr	r0, [pc, #76]	; (10004f94 <xTaskGenericNotify+0x104>)
10004f48:	009a      	lsls	r2, r3, #2
10004f4a:	18d2      	adds	r2, r2, r3
10004f4c:	0092      	lsls	r2, r2, #2
10004f4e:	1882      	adds	r2, r0, r2
10004f50:	6b53      	ldr	r3, [r2, #52]	; 0x34
10004f52:	60a3      	str	r3, [r4, #8]
10004f54:	689a      	ldr	r2, [r3, #8]
10004f56:	60e2      	str	r2, [r4, #12]
10004f58:	6051      	str	r1, [r2, #4]
10004f5a:	6099      	str	r1, [r3, #8]
10004f5c:	6ae3      	ldr	r3, [r4, #44]	; 0x2c
10004f5e:	0002      	movs	r2, r0
10004f60:	3230      	adds	r2, #48	; 0x30
10004f62:	0099      	lsls	r1, r3, #2
10004f64:	18ce      	adds	r6, r1, r3
10004f66:	00b6      	lsls	r6, r6, #2
10004f68:	1992      	adds	r2, r2, r6
10004f6a:	6162      	str	r2, [r4, #20]
10004f6c:	1982      	adds	r2, r0, r6
10004f6e:	6b12      	ldr	r2, [r2, #48]	; 0x30
10004f70:	3201      	adds	r2, #1
10004f72:	1983      	adds	r3, r0, r6
10004f74:	631a      	str	r2, [r3, #48]	; 0x30
10004f76:	6ae2      	ldr	r2, [r4, #44]	; 0x2c
10004f78:	4b05      	ldr	r3, [pc, #20]	; (10004f90 <xTaskGenericNotify+0x100>)
10004f7a:	6d9b      	ldr	r3, [r3, #88]	; 0x58
10004f7c:	6adb      	ldr	r3, [r3, #44]	; 0x2c
10004f7e:	429a      	cmp	r2, r3
10004f80:	d9b8      	bls.n	10004ef4 <xTaskGenericNotify+0x64>
10004f82:	f000 fbd9 	bl	10005738 <vPortYield>
10004f86:	e7b5      	b.n	10004ef4 <xTaskGenericNotify+0x64>
10004f88:	68e2      	ldr	r2, [r4, #12]
10004f8a:	605a      	str	r2, [r3, #4]
10004f8c:	e7cf      	b.n	10004f2e <xTaskGenericNotify+0x9e>
10004f8e:	46c0      	nop			; (mov r8, r8)
10004f90:	20000c64 	.word	0x20000c64
10004f94:	20000be4 	.word	0x20000be4

10004f98 <xTaskGenericNotifyFromISR>:
10004f98:	b5f0      	push	{r4, r5, r6, r7, lr}
10004f9a:	b083      	sub	sp, #12
10004f9c:	0004      	movs	r4, r0
10004f9e:	000d      	movs	r5, r1
10004fa0:	9201      	str	r2, [sp, #4]
10004fa2:	001e      	movs	r6, r3
10004fa4:	9f08      	ldr	r7, [sp, #32]
10004fa6:	f000 fbe9 	bl	1000577c <ulSetInterruptMaskFromISR>
10004faa:	2f00      	cmp	r7, #0
10004fac:	d004      	beq.n	10004fb8 <xTaskGenericNotifyFromISR+0x20>
10004fae:	002b      	movs	r3, r5
10004fb0:	3316      	adds	r3, #22
10004fb2:	009b      	lsls	r3, r3, #2
10004fb4:	591b      	ldr	r3, [r3, r4]
10004fb6:	603b      	str	r3, [r7, #0]
10004fb8:	1963      	adds	r3, r4, r5
10004fba:	3364      	adds	r3, #100	; 0x64
10004fbc:	781f      	ldrb	r7, [r3, #0]
10004fbe:	b2ff      	uxtb	r7, r7
10004fc0:	2202      	movs	r2, #2
10004fc2:	701a      	strb	r2, [r3, #0]
10004fc4:	2e03      	cmp	r6, #3
10004fc6:	d027      	beq.n	10005018 <xTaskGenericNotifyFromISR+0x80>
10004fc8:	d80c      	bhi.n	10004fe4 <xTaskGenericNotifyFromISR+0x4c>
10004fca:	2e01      	cmp	r6, #1
10004fcc:	d01c      	beq.n	10005008 <xTaskGenericNotifyFromISR+0x70>
10004fce:	2e02      	cmp	r6, #2
10004fd0:	d106      	bne.n	10004fe0 <xTaskGenericNotifyFromISR+0x48>
10004fd2:	3516      	adds	r5, #22
10004fd4:	00ad      	lsls	r5, r5, #2
10004fd6:	592b      	ldr	r3, [r5, r4]
10004fd8:	3301      	adds	r3, #1
10004fda:	512b      	str	r3, [r5, r4]
10004fdc:	2501      	movs	r5, #1
10004fde:	e00c      	b.n	10004ffa <xTaskGenericNotifyFromISR+0x62>
10004fe0:	2501      	movs	r5, #1
10004fe2:	e00a      	b.n	10004ffa <xTaskGenericNotifyFromISR+0x62>
10004fe4:	2e04      	cmp	r6, #4
10004fe6:	d107      	bne.n	10004ff8 <xTaskGenericNotifyFromISR+0x60>
10004fe8:	2f02      	cmp	r7, #2
10004fea:	d01b      	beq.n	10005024 <xTaskGenericNotifyFromISR+0x8c>
10004fec:	3516      	adds	r5, #22
10004fee:	00ad      	lsls	r5, r5, #2
10004ff0:	9b01      	ldr	r3, [sp, #4]
10004ff2:	512b      	str	r3, [r5, r4]
10004ff4:	2501      	movs	r5, #1
10004ff6:	e000      	b.n	10004ffa <xTaskGenericNotifyFromISR+0x62>
10004ff8:	2501      	movs	r5, #1
10004ffa:	2f01      	cmp	r7, #1
10004ffc:	d014      	beq.n	10005028 <xTaskGenericNotifyFromISR+0x90>
10004ffe:	f000 fbc1 	bl	10005784 <vClearInterruptMaskFromISR>
10005002:	0028      	movs	r0, r5
10005004:	b003      	add	sp, #12
10005006:	bdf0      	pop	{r4, r5, r6, r7, pc}
10005008:	3516      	adds	r5, #22
1000500a:	00ad      	lsls	r5, r5, #2
1000500c:	592a      	ldr	r2, [r5, r4]
1000500e:	9e01      	ldr	r6, [sp, #4]
10005010:	4316      	orrs	r6, r2
10005012:	512e      	str	r6, [r5, r4]
10005014:	2501      	movs	r5, #1
10005016:	e7f0      	b.n	10004ffa <xTaskGenericNotifyFromISR+0x62>
10005018:	3516      	adds	r5, #22
1000501a:	00ad      	lsls	r5, r5, #2
1000501c:	9b01      	ldr	r3, [sp, #4]
1000501e:	512b      	str	r3, [r5, r4]
10005020:	2501      	movs	r5, #1
10005022:	e7ea      	b.n	10004ffa <xTaskGenericNotifyFromISR+0x62>
10005024:	2500      	movs	r5, #0
10005026:	e7e8      	b.n	10004ffa <xTaskGenericNotifyFromISR+0x62>
10005028:	4b2a      	ldr	r3, [pc, #168]	; (100050d4 <xTaskGenericNotifyFromISR+0x13c>)
1000502a:	6f1b      	ldr	r3, [r3, #112]	; 0x70
1000502c:	2b00      	cmp	r3, #0
1000502e:	d141      	bne.n	100050b4 <xTaskGenericNotifyFromISR+0x11c>
10005030:	6963      	ldr	r3, [r4, #20]
10005032:	68a2      	ldr	r2, [r4, #8]
10005034:	68e1      	ldr	r1, [r4, #12]
10005036:	6091      	str	r1, [r2, #8]
10005038:	68e2      	ldr	r2, [r4, #12]
1000503a:	68a1      	ldr	r1, [r4, #8]
1000503c:	6051      	str	r1, [r2, #4]
1000503e:	1d26      	adds	r6, r4, #4
10005040:	685a      	ldr	r2, [r3, #4]
10005042:	42b2      	cmp	r2, r6
10005044:	d033      	beq.n	100050ae <xTaskGenericNotifyFromISR+0x116>
10005046:	2200      	movs	r2, #0
10005048:	6162      	str	r2, [r4, #20]
1000504a:	681a      	ldr	r2, [r3, #0]
1000504c:	3a01      	subs	r2, #1
1000504e:	601a      	str	r2, [r3, #0]
10005050:	6ae3      	ldr	r3, [r4, #44]	; 0x2c
10005052:	4a20      	ldr	r2, [pc, #128]	; (100050d4 <xTaskGenericNotifyFromISR+0x13c>)
10005054:	6e52      	ldr	r2, [r2, #100]	; 0x64
10005056:	4293      	cmp	r3, r2
10005058:	d901      	bls.n	1000505e <xTaskGenericNotifyFromISR+0xc6>
1000505a:	4a1e      	ldr	r2, [pc, #120]	; (100050d4 <xTaskGenericNotifyFromISR+0x13c>)
1000505c:	6653      	str	r3, [r2, #100]	; 0x64
1000505e:	491e      	ldr	r1, [pc, #120]	; (100050d8 <xTaskGenericNotifyFromISR+0x140>)
10005060:	009a      	lsls	r2, r3, #2
10005062:	18d2      	adds	r2, r2, r3
10005064:	0092      	lsls	r2, r2, #2
10005066:	188a      	adds	r2, r1, r2
10005068:	6b53      	ldr	r3, [r2, #52]	; 0x34
1000506a:	60a3      	str	r3, [r4, #8]
1000506c:	689a      	ldr	r2, [r3, #8]
1000506e:	60e2      	str	r2, [r4, #12]
10005070:	6056      	str	r6, [r2, #4]
10005072:	609e      	str	r6, [r3, #8]
10005074:	6ae6      	ldr	r6, [r4, #44]	; 0x2c
10005076:	000a      	movs	r2, r1
10005078:	3230      	adds	r2, #48	; 0x30
1000507a:	00b3      	lsls	r3, r6, #2
1000507c:	199f      	adds	r7, r3, r6
1000507e:	00bf      	lsls	r7, r7, #2
10005080:	19d2      	adds	r2, r2, r7
10005082:	6162      	str	r2, [r4, #20]
10005084:	19ca      	adds	r2, r1, r7
10005086:	6b12      	ldr	r2, [r2, #48]	; 0x30
10005088:	3201      	adds	r2, #1
1000508a:	19cb      	adds	r3, r1, r7
1000508c:	631a      	str	r2, [r3, #48]	; 0x30
1000508e:	6ae2      	ldr	r2, [r4, #44]	; 0x2c
10005090:	4b10      	ldr	r3, [pc, #64]	; (100050d4 <xTaskGenericNotifyFromISR+0x13c>)
10005092:	6d9b      	ldr	r3, [r3, #88]	; 0x58
10005094:	6adb      	ldr	r3, [r3, #44]	; 0x2c
10005096:	429a      	cmp	r2, r3
10005098:	d9b1      	bls.n	10004ffe <xTaskGenericNotifyFromISR+0x66>
1000509a:	9b09      	ldr	r3, [sp, #36]	; 0x24
1000509c:	2b00      	cmp	r3, #0
1000509e:	d002      	beq.n	100050a6 <xTaskGenericNotifyFromISR+0x10e>
100050a0:	2301      	movs	r3, #1
100050a2:	9a09      	ldr	r2, [sp, #36]	; 0x24
100050a4:	6013      	str	r3, [r2, #0]
100050a6:	4b0b      	ldr	r3, [pc, #44]	; (100050d4 <xTaskGenericNotifyFromISR+0x13c>)
100050a8:	2201      	movs	r2, #1
100050aa:	675a      	str	r2, [r3, #116]	; 0x74
100050ac:	e7a7      	b.n	10004ffe <xTaskGenericNotifyFromISR+0x66>
100050ae:	68e2      	ldr	r2, [r4, #12]
100050b0:	605a      	str	r2, [r3, #4]
100050b2:	e7c8      	b.n	10005046 <xTaskGenericNotifyFromISR+0xae>
100050b4:	4b08      	ldr	r3, [pc, #32]	; (100050d8 <xTaskGenericNotifyFromISR+0x140>)
100050b6:	699a      	ldr	r2, [r3, #24]
100050b8:	61e2      	str	r2, [r4, #28]
100050ba:	6896      	ldr	r6, [r2, #8]
100050bc:	6226      	str	r6, [r4, #32]
100050be:	0021      	movs	r1, r4
100050c0:	3118      	adds	r1, #24
100050c2:	6071      	str	r1, [r6, #4]
100050c4:	6091      	str	r1, [r2, #8]
100050c6:	001a      	movs	r2, r3
100050c8:	3214      	adds	r2, #20
100050ca:	62a2      	str	r2, [r4, #40]	; 0x28
100050cc:	695a      	ldr	r2, [r3, #20]
100050ce:	3201      	adds	r2, #1
100050d0:	615a      	str	r2, [r3, #20]
100050d2:	e7dc      	b.n	1000508e <xTaskGenericNotifyFromISR+0xf6>
100050d4:	20000c64 	.word	0x20000c64
100050d8:	20000be4 	.word	0x20000be4

100050dc <vTaskGenericNotifyGiveFromISR>:
100050dc:	b5f8      	push	{r3, r4, r5, r6, r7, lr}
100050de:	0006      	movs	r6, r0
100050e0:	000c      	movs	r4, r1
100050e2:	0015      	movs	r5, r2
100050e4:	f000 fb4a 	bl	1000577c <ulSetInterruptMaskFromISR>
100050e8:	1933      	adds	r3, r6, r4
100050ea:	3364      	adds	r3, #100	; 0x64
100050ec:	781a      	ldrb	r2, [r3, #0]
100050ee:	2102      	movs	r1, #2
100050f0:	7019      	strb	r1, [r3, #0]
100050f2:	3416      	adds	r4, #22
100050f4:	00a4      	lsls	r4, r4, #2
100050f6:	59a3      	ldr	r3, [r4, r6]
100050f8:	3301      	adds	r3, #1
100050fa:	51a3      	str	r3, [r4, r6]
100050fc:	2a01      	cmp	r2, #1
100050fe:	d002      	beq.n	10005106 <vTaskGenericNotifyGiveFromISR+0x2a>
10005100:	f000 fb40 	bl	10005784 <vClearInterruptMaskFromISR>
10005104:	bdf8      	pop	{r3, r4, r5, r6, r7, pc}
10005106:	4b2a      	ldr	r3, [pc, #168]	; (100051b0 <vTaskGenericNotifyGiveFromISR+0xd4>)
10005108:	6f1b      	ldr	r3, [r3, #112]	; 0x70
1000510a:	2b00      	cmp	r3, #0
1000510c:	d13f      	bne.n	1000518e <vTaskGenericNotifyGiveFromISR+0xb2>
1000510e:	6973      	ldr	r3, [r6, #20]
10005110:	68b2      	ldr	r2, [r6, #8]
10005112:	68f1      	ldr	r1, [r6, #12]
10005114:	6091      	str	r1, [r2, #8]
10005116:	68f2      	ldr	r2, [r6, #12]
10005118:	68b1      	ldr	r1, [r6, #8]
1000511a:	6051      	str	r1, [r2, #4]
1000511c:	1d34      	adds	r4, r6, #4
1000511e:	685a      	ldr	r2, [r3, #4]
10005120:	42a2      	cmp	r2, r4
10005122:	d031      	beq.n	10005188 <vTaskGenericNotifyGiveFromISR+0xac>
10005124:	2200      	movs	r2, #0
10005126:	6172      	str	r2, [r6, #20]
10005128:	681a      	ldr	r2, [r3, #0]
1000512a:	3a01      	subs	r2, #1
1000512c:	601a      	str	r2, [r3, #0]
1000512e:	6af3      	ldr	r3, [r6, #44]	; 0x2c
10005130:	4a1f      	ldr	r2, [pc, #124]	; (100051b0 <vTaskGenericNotifyGiveFromISR+0xd4>)
10005132:	6e52      	ldr	r2, [r2, #100]	; 0x64
10005134:	4293      	cmp	r3, r2
10005136:	d901      	bls.n	1000513c <vTaskGenericNotifyGiveFromISR+0x60>
10005138:	4a1d      	ldr	r2, [pc, #116]	; (100051b0 <vTaskGenericNotifyGiveFromISR+0xd4>)
1000513a:	6653      	str	r3, [r2, #100]	; 0x64
1000513c:	491d      	ldr	r1, [pc, #116]	; (100051b4 <vTaskGenericNotifyGiveFromISR+0xd8>)
1000513e:	009a      	lsls	r2, r3, #2
10005140:	18d2      	adds	r2, r2, r3
10005142:	0092      	lsls	r2, r2, #2
10005144:	188a      	adds	r2, r1, r2
10005146:	6b53      	ldr	r3, [r2, #52]	; 0x34
10005148:	60b3      	str	r3, [r6, #8]
1000514a:	689a      	ldr	r2, [r3, #8]
1000514c:	60f2      	str	r2, [r6, #12]
1000514e:	6054      	str	r4, [r2, #4]
10005150:	609c      	str	r4, [r3, #8]
10005152:	6af4      	ldr	r4, [r6, #44]	; 0x2c
10005154:	000a      	movs	r2, r1
10005156:	3230      	adds	r2, #48	; 0x30
10005158:	00a3      	lsls	r3, r4, #2
1000515a:	191f      	adds	r7, r3, r4
1000515c:	00bf      	lsls	r7, r7, #2
1000515e:	19d2      	adds	r2, r2, r7
10005160:	6172      	str	r2, [r6, #20]
10005162:	19ca      	adds	r2, r1, r7
10005164:	6b12      	ldr	r2, [r2, #48]	; 0x30
10005166:	3201      	adds	r2, #1
10005168:	19cb      	adds	r3, r1, r7
1000516a:	631a      	str	r2, [r3, #48]	; 0x30
1000516c:	6af2      	ldr	r2, [r6, #44]	; 0x2c
1000516e:	4b10      	ldr	r3, [pc, #64]	; (100051b0 <vTaskGenericNotifyGiveFromISR+0xd4>)
10005170:	6d9b      	ldr	r3, [r3, #88]	; 0x58
10005172:	6adb      	ldr	r3, [r3, #44]	; 0x2c
10005174:	429a      	cmp	r2, r3
10005176:	d9c3      	bls.n	10005100 <vTaskGenericNotifyGiveFromISR+0x24>
10005178:	2d00      	cmp	r5, #0
1000517a:	d001      	beq.n	10005180 <vTaskGenericNotifyGiveFromISR+0xa4>
1000517c:	2301      	movs	r3, #1
1000517e:	602b      	str	r3, [r5, #0]
10005180:	4b0b      	ldr	r3, [pc, #44]	; (100051b0 <vTaskGenericNotifyGiveFromISR+0xd4>)
10005182:	2201      	movs	r2, #1
10005184:	675a      	str	r2, [r3, #116]	; 0x74
10005186:	e7bb      	b.n	10005100 <vTaskGenericNotifyGiveFromISR+0x24>
10005188:	68f2      	ldr	r2, [r6, #12]
1000518a:	605a      	str	r2, [r3, #4]
1000518c:	e7ca      	b.n	10005124 <vTaskGenericNotifyGiveFromISR+0x48>
1000518e:	4b09      	ldr	r3, [pc, #36]	; (100051b4 <vTaskGenericNotifyGiveFromISR+0xd8>)
10005190:	699a      	ldr	r2, [r3, #24]
10005192:	61f2      	str	r2, [r6, #28]
10005194:	6894      	ldr	r4, [r2, #8]
10005196:	6234      	str	r4, [r6, #32]
10005198:	0031      	movs	r1, r6
1000519a:	3118      	adds	r1, #24
1000519c:	6061      	str	r1, [r4, #4]
1000519e:	6091      	str	r1, [r2, #8]
100051a0:	001a      	movs	r2, r3
100051a2:	3214      	adds	r2, #20
100051a4:	62b2      	str	r2, [r6, #40]	; 0x28
100051a6:	695a      	ldr	r2, [r3, #20]
100051a8:	3201      	adds	r2, #1
100051aa:	615a      	str	r2, [r3, #20]
100051ac:	e7de      	b.n	1000516c <vTaskGenericNotifyGiveFromISR+0x90>
100051ae:	46c0      	nop			; (mov r8, r8)
100051b0:	20000c64 	.word	0x20000c64
100051b4:	20000be4 	.word	0x20000be4

100051b8 <xTaskGenericNotifyStateClear>:
100051b8:	b570      	push	{r4, r5, r6, lr}
100051ba:	0004      	movs	r4, r0
100051bc:	000d      	movs	r5, r1
100051be:	2800      	cmp	r0, #0
100051c0:	d00b      	beq.n	100051da <xTaskGenericNotifyStateClear+0x22>
100051c2:	f000 fac5 	bl	10005750 <vPortEnterCritical>
100051c6:	1963      	adds	r3, r4, r5
100051c8:	3364      	adds	r3, #100	; 0x64
100051ca:	781b      	ldrb	r3, [r3, #0]
100051cc:	2b02      	cmp	r3, #2
100051ce:	d007      	beq.n	100051e0 <xTaskGenericNotifyStateClear+0x28>
100051d0:	2400      	movs	r4, #0
100051d2:	f000 fac9 	bl	10005768 <vPortExitCritical>
100051d6:	0020      	movs	r0, r4
100051d8:	bd70      	pop	{r4, r5, r6, pc}
100051da:	4b04      	ldr	r3, [pc, #16]	; (100051ec <xTaskGenericNotifyStateClear+0x34>)
100051dc:	6d9c      	ldr	r4, [r3, #88]	; 0x58
100051de:	e7f0      	b.n	100051c2 <xTaskGenericNotifyStateClear+0xa>
100051e0:	1964      	adds	r4, r4, r5
100051e2:	3464      	adds	r4, #100	; 0x64
100051e4:	2300      	movs	r3, #0
100051e6:	7023      	strb	r3, [r4, #0]
100051e8:	2401      	movs	r4, #1
100051ea:	e7f2      	b.n	100051d2 <xTaskGenericNotifyStateClear+0x1a>
100051ec:	20000c64 	.word	0x20000c64

100051f0 <ulTaskGenericNotifyValueClear>:
100051f0:	b570      	push	{r4, r5, r6, lr}
100051f2:	0005      	movs	r5, r0
100051f4:	000c      	movs	r4, r1
100051f6:	0016      	movs	r6, r2
100051f8:	2800      	cmp	r0, #0
100051fa:	d00b      	beq.n	10005214 <ulTaskGenericNotifyValueClear+0x24>
100051fc:	f000 faa8 	bl	10005750 <vPortEnterCritical>
10005200:	3416      	adds	r4, #22
10005202:	00a1      	lsls	r1, r4, #2
10005204:	594c      	ldr	r4, [r1, r5]
10005206:	594b      	ldr	r3, [r1, r5]
10005208:	43b3      	bics	r3, r6
1000520a:	514b      	str	r3, [r1, r5]
1000520c:	f000 faac 	bl	10005768 <vPortExitCritical>
10005210:	0020      	movs	r0, r4
10005212:	bd70      	pop	{r4, r5, r6, pc}
10005214:	4b01      	ldr	r3, [pc, #4]	; (1000521c <ulTaskGenericNotifyValueClear+0x2c>)
10005216:	6d9d      	ldr	r5, [r3, #88]	; 0x58
10005218:	e7f0      	b.n	100051fc <ulTaskGenericNotifyValueClear+0xc>
1000521a:	46c0      	nop			; (mov r8, r8)
1000521c:	20000c64 	.word	0x20000c64

10005220 <prvGetNextExpireTime>:
10005220:	4b07      	ldr	r3, [pc, #28]	; (10005240 <prvGetNextExpireTime+0x20>)
10005222:	681a      	ldr	r2, [r3, #0]
10005224:	6813      	ldr	r3, [r2, #0]
10005226:	2b00      	cmp	r3, #0
10005228:	d106      	bne.n	10005238 <prvGetNextExpireTime+0x18>
1000522a:	3301      	adds	r3, #1
1000522c:	6003      	str	r3, [r0, #0]
1000522e:	2b00      	cmp	r3, #0
10005230:	d104      	bne.n	1000523c <prvGetNextExpireTime+0x1c>
10005232:	68d3      	ldr	r3, [r2, #12]
10005234:	6818      	ldr	r0, [r3, #0]
10005236:	4770      	bx	lr
10005238:	2300      	movs	r3, #0
1000523a:	e7f7      	b.n	1000522c <prvGetNextExpireTime+0xc>
1000523c:	2000      	movs	r0, #0
1000523e:	e7fa      	b.n	10005236 <prvGetNextExpireTime+0x16>
10005240:	20000ce8 	.word	0x20000ce8

10005244 <prvInsertTimerInActiveList>:
10005244:	b510      	push	{r4, lr}
10005246:	6041      	str	r1, [r0, #4]
10005248:	6100      	str	r0, [r0, #16]
1000524a:	4291      	cmp	r1, r2
1000524c:	d80c      	bhi.n	10005268 <prvInsertTimerInActiveList+0x24>
1000524e:	1ad2      	subs	r2, r2, r3
10005250:	6983      	ldr	r3, [r0, #24]
10005252:	429a      	cmp	r2, r3
10005254:	d301      	bcc.n	1000525a <prvInsertTimerInActiveList+0x16>
10005256:	2001      	movs	r0, #1
10005258:	bd10      	pop	{r4, pc}
1000525a:	1d01      	adds	r1, r0, #4
1000525c:	4b09      	ldr	r3, [pc, #36]	; (10005284 <prvInsertTimerInActiveList+0x40>)
1000525e:	6858      	ldr	r0, [r3, #4]
10005260:	f000 fb15 	bl	1000588e <vListInsert>
10005264:	2000      	movs	r0, #0
10005266:	e7f7      	b.n	10005258 <prvInsertTimerInActiveList+0x14>
10005268:	429a      	cmp	r2, r3
1000526a:	d201      	bcs.n	10005270 <prvInsertTimerInActiveList+0x2c>
1000526c:	4299      	cmp	r1, r3
1000526e:	d206      	bcs.n	1000527e <prvInsertTimerInActiveList+0x3a>
10005270:	1d01      	adds	r1, r0, #4
10005272:	4b04      	ldr	r3, [pc, #16]	; (10005284 <prvInsertTimerInActiveList+0x40>)
10005274:	6818      	ldr	r0, [r3, #0]
10005276:	f000 fb0a 	bl	1000588e <vListInsert>
1000527a:	2000      	movs	r0, #0
1000527c:	e7ec      	b.n	10005258 <prvInsertTimerInActiveList+0x14>
1000527e:	2001      	movs	r0, #1
10005280:	e7ea      	b.n	10005258 <prvInsertTimerInActiveList+0x14>
10005282:	46c0      	nop			; (mov r8, r8)
10005284:	20000ce8 	.word	0x20000ce8

10005288 <prvReloadTimer>:
10005288:	b570      	push	{r4, r5, r6, lr}
1000528a:	0004      	movs	r4, r0
1000528c:	000d      	movs	r5, r1
1000528e:	0016      	movs	r6, r2
10005290:	e005      	b.n	1000529e <prvReloadTimer+0x16>
10005292:	69a3      	ldr	r3, [r4, #24]
10005294:	469c      	mov	ip, r3
10005296:	4465      	add	r5, ip
10005298:	0020      	movs	r0, r4
1000529a:	6a23      	ldr	r3, [r4, #32]
1000529c:	4798      	blx	r3
1000529e:	69a3      	ldr	r3, [r4, #24]
100052a0:	1959      	adds	r1, r3, r5
100052a2:	002b      	movs	r3, r5
100052a4:	0032      	movs	r2, r6
100052a6:	0020      	movs	r0, r4
100052a8:	f7ff ffcc 	bl	10005244 <prvInsertTimerInActiveList>
100052ac:	2800      	cmp	r0, #0
100052ae:	d1f0      	bne.n	10005292 <prvReloadTimer+0xa>
100052b0:	bd70      	pop	{r4, r5, r6, pc}

100052b2 <prvProcessExpiredTimer>:
100052b2:	b570      	push	{r4, r5, r6, lr}
100052b4:	0005      	movs	r5, r0
100052b6:	000e      	movs	r6, r1
100052b8:	4b0c      	ldr	r3, [pc, #48]	; (100052ec <prvProcessExpiredTimer+0x3a>)
100052ba:	681b      	ldr	r3, [r3, #0]
100052bc:	68db      	ldr	r3, [r3, #12]
100052be:	68dc      	ldr	r4, [r3, #12]
100052c0:	1d20      	adds	r0, r4, #4
100052c2:	f000 fafb 	bl	100058bc <uxListRemove>
100052c6:	2324      	movs	r3, #36	; 0x24
100052c8:	5ce3      	ldrb	r3, [r4, r3]
100052ca:	075a      	lsls	r2, r3, #29
100052cc:	d407      	bmi.n	100052de <prvProcessExpiredTimer+0x2c>
100052ce:	2201      	movs	r2, #1
100052d0:	4393      	bics	r3, r2
100052d2:	3223      	adds	r2, #35	; 0x23
100052d4:	54a3      	strb	r3, [r4, r2]
100052d6:	6a23      	ldr	r3, [r4, #32]
100052d8:	0020      	movs	r0, r4
100052da:	4798      	blx	r3
100052dc:	bd70      	pop	{r4, r5, r6, pc}
100052de:	0032      	movs	r2, r6
100052e0:	0029      	movs	r1, r5
100052e2:	0020      	movs	r0, r4
100052e4:	f7ff ffd0 	bl	10005288 <prvReloadTimer>
100052e8:	e7f5      	b.n	100052d6 <prvProcessExpiredTimer+0x24>
100052ea:	46c0      	nop			; (mov r8, r8)
100052ec:	20000ce8 	.word	0x20000ce8

100052f0 <prvSwitchTimerLists>:
100052f0:	b510      	push	{r4, lr}
100052f2:	e005      	b.n	10005300 <prvSwitchTimerLists+0x10>
100052f4:	68db      	ldr	r3, [r3, #12]
100052f6:	6818      	ldr	r0, [r3, #0]
100052f8:	2101      	movs	r1, #1
100052fa:	4249      	negs	r1, r1
100052fc:	f7ff ffd9 	bl	100052b2 <prvProcessExpiredTimer>
10005300:	4b04      	ldr	r3, [pc, #16]	; (10005314 <prvSwitchTimerLists+0x24>)
10005302:	681b      	ldr	r3, [r3, #0]
10005304:	681a      	ldr	r2, [r3, #0]
10005306:	2a00      	cmp	r2, #0
10005308:	d1f4      	bne.n	100052f4 <prvSwitchTimerLists+0x4>
1000530a:	4a02      	ldr	r2, [pc, #8]	; (10005314 <prvSwitchTimerLists+0x24>)
1000530c:	6851      	ldr	r1, [r2, #4]
1000530e:	6011      	str	r1, [r2, #0]
10005310:	6053      	str	r3, [r2, #4]
10005312:	bd10      	pop	{r4, pc}
10005314:	20000ce8 	.word	0x20000ce8

10005318 <prvSampleTimeNow>:
10005318:	b570      	push	{r4, r5, r6, lr}
1000531a:	0005      	movs	r5, r0
1000531c:	f7ff f968 	bl	100045f0 <xTaskGetTickCount>
10005320:	0004      	movs	r4, r0
10005322:	4b07      	ldr	r3, [pc, #28]	; (10005340 <prvSampleTimeNow+0x28>)
10005324:	689b      	ldr	r3, [r3, #8]
10005326:	4283      	cmp	r3, r0
10005328:	d805      	bhi.n	10005336 <prvSampleTimeNow+0x1e>
1000532a:	2300      	movs	r3, #0
1000532c:	602b      	str	r3, [r5, #0]
1000532e:	4b04      	ldr	r3, [pc, #16]	; (10005340 <prvSampleTimeNow+0x28>)
10005330:	609c      	str	r4, [r3, #8]
10005332:	0020      	movs	r0, r4
10005334:	bd70      	pop	{r4, r5, r6, pc}
10005336:	f7ff ffdb 	bl	100052f0 <prvSwitchTimerLists>
1000533a:	2301      	movs	r3, #1
1000533c:	602b      	str	r3, [r5, #0]
1000533e:	e7f6      	b.n	1000532e <prvSampleTimeNow+0x16>
10005340:	20000ce8 	.word	0x20000ce8

10005344 <prvProcessTimerOrBlockTask>:
10005344:	b570      	push	{r4, r5, r6, lr}
10005346:	b082      	sub	sp, #8
10005348:	0004      	movs	r4, r0
1000534a:	000d      	movs	r5, r1
1000534c:	f7ff f948 	bl	100045e0 <vTaskSuspendAll>
10005350:	a801      	add	r0, sp, #4
10005352:	f7ff ffe1 	bl	10005318 <prvSampleTimeNow>
10005356:	0006      	movs	r6, r0
10005358:	9b01      	ldr	r3, [sp, #4]
1000535a:	2b00      	cmp	r3, #0
1000535c:	d123      	bne.n	100053a6 <prvProcessTimerOrBlockTask+0x62>
1000535e:	2d00      	cmp	r5, #0
10005360:	d101      	bne.n	10005366 <prvProcessTimerOrBlockTask+0x22>
10005362:	42a0      	cmp	r0, r4
10005364:	d213      	bcs.n	1000538e <prvProcessTimerOrBlockTask+0x4a>
10005366:	2d00      	cmp	r5, #0
10005368:	d005      	beq.n	10005376 <prvProcessTimerOrBlockTask+0x32>
1000536a:	4a10      	ldr	r2, [pc, #64]	; (100053ac <prvProcessTimerOrBlockTask+0x68>)
1000536c:	6852      	ldr	r2, [r2, #4]
1000536e:	6812      	ldr	r2, [r2, #0]
10005370:	2a00      	cmp	r2, #0
10005372:	d113      	bne.n	1000539c <prvProcessTimerOrBlockTask+0x58>
10005374:	2501      	movs	r5, #1
10005376:	1ba1      	subs	r1, r4, r6
10005378:	4b0c      	ldr	r3, [pc, #48]	; (100053ac <prvProcessTimerOrBlockTask+0x68>)
1000537a:	68d8      	ldr	r0, [r3, #12]
1000537c:	002a      	movs	r2, r5
1000537e:	f000 ff11 	bl	100061a4 <vQueueWaitForMessageRestricted>
10005382:	f7ff f9e7 	bl	10004754 <xTaskResumeAll>
10005386:	2800      	cmp	r0, #0
10005388:	d00a      	beq.n	100053a0 <prvProcessTimerOrBlockTask+0x5c>
1000538a:	b002      	add	sp, #8
1000538c:	bd70      	pop	{r4, r5, r6, pc}
1000538e:	f7ff f9e1 	bl	10004754 <xTaskResumeAll>
10005392:	0031      	movs	r1, r6
10005394:	0020      	movs	r0, r4
10005396:	f7ff ff8c 	bl	100052b2 <prvProcessExpiredTimer>
1000539a:	e7f6      	b.n	1000538a <prvProcessTimerOrBlockTask+0x46>
1000539c:	001d      	movs	r5, r3
1000539e:	e7ea      	b.n	10005376 <prvProcessTimerOrBlockTask+0x32>
100053a0:	f000 f9ca 	bl	10005738 <vPortYield>
100053a4:	e7f1      	b.n	1000538a <prvProcessTimerOrBlockTask+0x46>
100053a6:	f7ff f9d5 	bl	10004754 <xTaskResumeAll>
100053aa:	e7ee      	b.n	1000538a <prvProcessTimerOrBlockTask+0x46>
100053ac:	20000ce8 	.word	0x20000ce8

100053b0 <prvProcessReceivedCommands>:
100053b0:	b530      	push	{r4, r5, lr}
100053b2:	b085      	sub	sp, #20
100053b4:	4b32      	ldr	r3, [pc, #200]	; (10005480 <prvProcessReceivedCommands+0xd0>)
100053b6:	68d8      	ldr	r0, [r3, #12]
100053b8:	2200      	movs	r2, #0
100053ba:	a901      	add	r1, sp, #4
100053bc:	f000 fcc7 	bl	10005d4e <xQueueReceive>
100053c0:	2800      	cmp	r0, #0
100053c2:	d05a      	beq.n	1000547a <prvProcessReceivedCommands+0xca>
100053c4:	9b01      	ldr	r3, [sp, #4]
100053c6:	2b00      	cmp	r3, #0
100053c8:	dbf4      	blt.n	100053b4 <prvProcessReceivedCommands+0x4>
100053ca:	9c03      	ldr	r4, [sp, #12]
100053cc:	6963      	ldr	r3, [r4, #20]
100053ce:	2b00      	cmp	r3, #0
100053d0:	d002      	beq.n	100053d8 <prvProcessReceivedCommands+0x28>
100053d2:	1d20      	adds	r0, r4, #4
100053d4:	f000 fa72 	bl	100058bc <uxListRemove>
100053d8:	4668      	mov	r0, sp
100053da:	f7ff ff9d 	bl	10005318 <prvSampleTimeNow>
100053de:	0005      	movs	r5, r0
100053e0:	9901      	ldr	r1, [sp, #4]
100053e2:	2909      	cmp	r1, #9
100053e4:	d8e6      	bhi.n	100053b4 <prvProcessReceivedCommands+0x4>
100053e6:	0089      	lsls	r1, r1, #2
100053e8:	4b26      	ldr	r3, [pc, #152]	; (10005484 <prvProcessReceivedCommands+0xd4>)
100053ea:	5859      	ldr	r1, [r3, r1]
100053ec:	468f      	mov	pc, r1
100053ee:	2224      	movs	r2, #36	; 0x24
100053f0:	5ca3      	ldrb	r3, [r4, r2]
100053f2:	2101      	movs	r1, #1
100053f4:	430b      	orrs	r3, r1
100053f6:	54a3      	strb	r3, [r4, r2]
100053f8:	9902      	ldr	r1, [sp, #8]
100053fa:	69a3      	ldr	r3, [r4, #24]
100053fc:	469c      	mov	ip, r3
100053fe:	4461      	add	r1, ip
10005400:	9b02      	ldr	r3, [sp, #8]
10005402:	0002      	movs	r2, r0
10005404:	0020      	movs	r0, r4
10005406:	f7ff ff1d 	bl	10005244 <prvInsertTimerInActiveList>
1000540a:	2800      	cmp	r0, #0
1000540c:	d0d2      	beq.n	100053b4 <prvProcessReceivedCommands+0x4>
1000540e:	2324      	movs	r3, #36	; 0x24
10005410:	5ce3      	ldrb	r3, [r4, r3]
10005412:	075a      	lsls	r2, r3, #29
10005414:	d407      	bmi.n	10005426 <prvProcessReceivedCommands+0x76>
10005416:	2201      	movs	r2, #1
10005418:	4393      	bics	r3, r2
1000541a:	3223      	adds	r2, #35	; 0x23
1000541c:	54a3      	strb	r3, [r4, r2]
1000541e:	6a23      	ldr	r3, [r4, #32]
10005420:	0020      	movs	r0, r4
10005422:	4798      	blx	r3
10005424:	e7c6      	b.n	100053b4 <prvProcessReceivedCommands+0x4>
10005426:	9902      	ldr	r1, [sp, #8]
10005428:	69a3      	ldr	r3, [r4, #24]
1000542a:	469c      	mov	ip, r3
1000542c:	4461      	add	r1, ip
1000542e:	002a      	movs	r2, r5
10005430:	0020      	movs	r0, r4
10005432:	f7ff ff29 	bl	10005288 <prvReloadTimer>
10005436:	e7f2      	b.n	1000541e <prvProcessReceivedCommands+0x6e>
10005438:	2224      	movs	r2, #36	; 0x24
1000543a:	5ca3      	ldrb	r3, [r4, r2]
1000543c:	2101      	movs	r1, #1
1000543e:	438b      	bics	r3, r1
10005440:	54a3      	strb	r3, [r4, r2]
10005442:	e7b7      	b.n	100053b4 <prvProcessReceivedCommands+0x4>
10005444:	2224      	movs	r2, #36	; 0x24
10005446:	5ca3      	ldrb	r3, [r4, r2]
10005448:	2101      	movs	r1, #1
1000544a:	430b      	orrs	r3, r1
1000544c:	54a3      	strb	r3, [r4, r2]
1000544e:	9902      	ldr	r1, [sp, #8]
10005450:	61a1      	str	r1, [r4, #24]
10005452:	1809      	adds	r1, r1, r0
10005454:	0003      	movs	r3, r0
10005456:	0002      	movs	r2, r0
10005458:	0020      	movs	r0, r4
1000545a:	f7ff fef3 	bl	10005244 <prvInsertTimerInActiveList>
1000545e:	e7a9      	b.n	100053b4 <prvProcessReceivedCommands+0x4>
10005460:	2324      	movs	r3, #36	; 0x24
10005462:	5ce3      	ldrb	r3, [r4, r3]
10005464:	079a      	lsls	r2, r3, #30
10005466:	d504      	bpl.n	10005472 <prvProcessReceivedCommands+0xc2>
10005468:	2201      	movs	r2, #1
1000546a:	4393      	bics	r3, r2
1000546c:	3223      	adds	r2, #35	; 0x23
1000546e:	54a3      	strb	r3, [r4, r2]
10005470:	e7a0      	b.n	100053b4 <prvProcessReceivedCommands+0x4>
10005472:	0020      	movs	r0, r4
10005474:	f000 f91c 	bl	100056b0 <vPortFree>
10005478:	e79c      	b.n	100053b4 <prvProcessReceivedCommands+0x4>
1000547a:	b005      	add	sp, #20
1000547c:	bd30      	pop	{r4, r5, pc}
1000547e:	46c0      	nop			; (mov r8, r8)
10005480:	20000ce8 	.word	0x20000ce8
10005484:	10007944 	.word	0x10007944

10005488 <prvTimerTask>:
10005488:	b500      	push	{lr}
1000548a:	b083      	sub	sp, #12
1000548c:	a801      	add	r0, sp, #4
1000548e:	f7ff fec7 	bl	10005220 <prvGetNextExpireTime>
10005492:	9901      	ldr	r1, [sp, #4]
10005494:	f7ff ff56 	bl	10005344 <prvProcessTimerOrBlockTask>
10005498:	f7ff ff8a 	bl	100053b0 <prvProcessReceivedCommands>
1000549c:	e7f6      	b.n	1000548c <prvTimerTask+0x4>

1000549e <prvCheckForValidListAndQueue>:
1000549e:	b570      	push	{r4, r5, r6, lr}
100054a0:	f000 f956 	bl	10005750 <vPortEnterCritical>
100054a4:	4b0f      	ldr	r3, [pc, #60]	; (100054e4 <prvCheckForValidListAndQueue+0x46>)
100054a6:	68db      	ldr	r3, [r3, #12]
100054a8:	2b00      	cmp	r3, #0
100054aa:	d002      	beq.n	100054b2 <prvCheckForValidListAndQueue+0x14>
100054ac:	f000 f95c 	bl	10005768 <vPortExitCritical>
100054b0:	bd70      	pop	{r4, r5, r6, pc}
100054b2:	4c0c      	ldr	r4, [pc, #48]	; (100054e4 <prvCheckForValidListAndQueue+0x46>)
100054b4:	0026      	movs	r6, r4
100054b6:	3610      	adds	r6, #16
100054b8:	0030      	movs	r0, r6
100054ba:	f000 f9cf 	bl	1000585c <vListInitialise>
100054be:	0025      	movs	r5, r4
100054c0:	3524      	adds	r5, #36	; 0x24
100054c2:	0028      	movs	r0, r5
100054c4:	f000 f9ca 	bl	1000585c <vListInitialise>
100054c8:	6026      	str	r6, [r4, #0]
100054ca:	6065      	str	r5, [r4, #4]
100054cc:	2200      	movs	r2, #0
100054ce:	210c      	movs	r1, #12
100054d0:	200a      	movs	r0, #10
100054d2:	f000 fb09 	bl	10005ae8 <xQueueGenericCreate>
100054d6:	60e0      	str	r0, [r4, #12]
100054d8:	2800      	cmp	r0, #0
100054da:	d0e7      	beq.n	100054ac <prvCheckForValidListAndQueue+0xe>
100054dc:	4902      	ldr	r1, [pc, #8]	; (100054e8 <prvCheckForValidListAndQueue+0x4a>)
100054de:	f000 fe11 	bl	10006104 <vQueueAddToRegistry>
100054e2:	e7e3      	b.n	100054ac <prvCheckForValidListAndQueue+0xe>
100054e4:	20000ce8 	.word	0x20000ce8
100054e8:	1000796c 	.word	0x1000796c

100054ec <prvInitialiseNewTimer>:
100054ec:	b5f0      	push	{r4, r5, r6, r7, lr}
100054ee:	46c6      	mov	lr, r8
100054f0:	b500      	push	{lr}
100054f2:	4680      	mov	r8, r0
100054f4:	000f      	movs	r7, r1
100054f6:	0015      	movs	r5, r2
100054f8:	001e      	movs	r6, r3
100054fa:	9c07      	ldr	r4, [sp, #28]
100054fc:	f7ff ffcf 	bl	1000549e <prvCheckForValidListAndQueue>
10005500:	4643      	mov	r3, r8
10005502:	6023      	str	r3, [r4, #0]
10005504:	61a7      	str	r7, [r4, #24]
10005506:	61e6      	str	r6, [r4, #28]
10005508:	9b06      	ldr	r3, [sp, #24]
1000550a:	6223      	str	r3, [r4, #32]
1000550c:	1d20      	adds	r0, r4, #4
1000550e:	f000 f9b0 	bl	10005872 <vListInitialiseItem>
10005512:	2d00      	cmp	r5, #0
10005514:	d004      	beq.n	10005520 <prvInitialiseNewTimer+0x34>
10005516:	2224      	movs	r2, #36	; 0x24
10005518:	5ca3      	ldrb	r3, [r4, r2]
1000551a:	2104      	movs	r1, #4
1000551c:	430b      	orrs	r3, r1
1000551e:	54a3      	strb	r3, [r4, r2]
10005520:	bc80      	pop	{r7}
10005522:	46b8      	mov	r8, r7
10005524:	bdf0      	pop	{r4, r5, r6, r7, pc}

10005526 <xTimerCreateTimerTask>:
10005526:	b500      	push	{lr}
10005528:	b083      	sub	sp, #12
1000552a:	f7ff ffb8 	bl	1000549e <prvCheckForValidListAndQueue>
1000552e:	4b09      	ldr	r3, [pc, #36]	; (10005554 <xTimerCreateTimerTask+0x2e>)
10005530:	68db      	ldr	r3, [r3, #12]
10005532:	2b00      	cmp	r3, #0
10005534:	d00c      	beq.n	10005550 <xTimerCreateTimerTask+0x2a>
10005536:	4b07      	ldr	r3, [pc, #28]	; (10005554 <xTimerCreateTimerTask+0x2e>)
10005538:	3338      	adds	r3, #56	; 0x38
1000553a:	9301      	str	r3, [sp, #4]
1000553c:	2303      	movs	r3, #3
1000553e:	9300      	str	r3, [sp, #0]
10005540:	2300      	movs	r3, #0
10005542:	2280      	movs	r2, #128	; 0x80
10005544:	4904      	ldr	r1, [pc, #16]	; (10005558 <xTimerCreateTimerTask+0x32>)
10005546:	4805      	ldr	r0, [pc, #20]	; (1000555c <xTimerCreateTimerTask+0x36>)
10005548:	f7fe fe84 	bl	10004254 <xTaskCreate>
1000554c:	b003      	add	sp, #12
1000554e:	bd00      	pop	{pc}
10005550:	2000      	movs	r0, #0
10005552:	e7fb      	b.n	1000554c <xTimerCreateTimerTask+0x26>
10005554:	20000ce8 	.word	0x20000ce8
10005558:	10007974 	.word	0x10007974
1000555c:	10005489 	.word	0x10005489

10005560 <xTimerCreate>:
10005560:	b5f0      	push	{r4, r5, r6, r7, lr}
10005562:	b085      	sub	sp, #20
10005564:	9003      	str	r0, [sp, #12]
10005566:	000d      	movs	r5, r1
10005568:	0016      	movs	r6, r2
1000556a:	001f      	movs	r7, r3
1000556c:	2028      	movs	r0, #40	; 0x28
1000556e:	f000 f893 	bl	10005698 <pvPortMalloc>
10005572:	1e04      	subs	r4, r0, #0
10005574:	d00b      	beq.n	1000558e <xTimerCreate+0x2e>
10005576:	2324      	movs	r3, #36	; 0x24
10005578:	2200      	movs	r2, #0
1000557a:	54c2      	strb	r2, [r0, r3]
1000557c:	9001      	str	r0, [sp, #4]
1000557e:	9b0a      	ldr	r3, [sp, #40]	; 0x28
10005580:	9300      	str	r3, [sp, #0]
10005582:	003b      	movs	r3, r7
10005584:	0032      	movs	r2, r6
10005586:	0029      	movs	r1, r5
10005588:	9803      	ldr	r0, [sp, #12]
1000558a:	f7ff ffaf 	bl	100054ec <prvInitialiseNewTimer>
1000558e:	0020      	movs	r0, r4
10005590:	b005      	add	sp, #20
10005592:	bdf0      	pop	{r4, r5, r6, r7, pc}

10005594 <xTimerGenericCommand>:
10005594:	b530      	push	{r4, r5, lr}
10005596:	b085      	sub	sp, #20
10005598:	0004      	movs	r4, r0
1000559a:	001d      	movs	r5, r3
1000559c:	4b12      	ldr	r3, [pc, #72]	; (100055e8 <xTimerGenericCommand+0x54>)
1000559e:	68d8      	ldr	r0, [r3, #12]
100055a0:	2800      	cmp	r0, #0
100055a2:	d01f      	beq.n	100055e4 <xTimerGenericCommand+0x50>
100055a4:	9101      	str	r1, [sp, #4]
100055a6:	9202      	str	r2, [sp, #8]
100055a8:	9403      	str	r4, [sp, #12]
100055aa:	2905      	cmp	r1, #5
100055ac:	dc13      	bgt.n	100055d6 <xTimerGenericCommand+0x42>
100055ae:	f7ff fbbd 	bl	10004d2c <xTaskGetSchedulerState>
100055b2:	2802      	cmp	r0, #2
100055b4:	d007      	beq.n	100055c6 <xTimerGenericCommand+0x32>
100055b6:	4b0c      	ldr	r3, [pc, #48]	; (100055e8 <xTimerGenericCommand+0x54>)
100055b8:	68d8      	ldr	r0, [r3, #12]
100055ba:	2300      	movs	r3, #0
100055bc:	2200      	movs	r2, #0
100055be:	a901      	add	r1, sp, #4
100055c0:	f000 fad1 	bl	10005b66 <xQueueGenericSend>
100055c4:	e00c      	b.n	100055e0 <xTimerGenericCommand+0x4c>
100055c6:	4b08      	ldr	r3, [pc, #32]	; (100055e8 <xTimerGenericCommand+0x54>)
100055c8:	68d8      	ldr	r0, [r3, #12]
100055ca:	2300      	movs	r3, #0
100055cc:	9a08      	ldr	r2, [sp, #32]
100055ce:	a901      	add	r1, sp, #4
100055d0:	f000 fac9 	bl	10005b66 <xQueueGenericSend>
100055d4:	e004      	b.n	100055e0 <xTimerGenericCommand+0x4c>
100055d6:	2300      	movs	r3, #0
100055d8:	002a      	movs	r2, r5
100055da:	a901      	add	r1, sp, #4
100055dc:	f000 fb3c 	bl	10005c58 <xQueueGenericSendFromISR>
100055e0:	b005      	add	sp, #20
100055e2:	bd30      	pop	{r4, r5, pc}
100055e4:	2000      	movs	r0, #0
100055e6:	e7fb      	b.n	100055e0 <xTimerGenericCommand+0x4c>
100055e8:	20000ce8 	.word	0x20000ce8

100055ec <xTimerGetTimerDaemonTaskHandle>:
100055ec:	4b01      	ldr	r3, [pc, #4]	; (100055f4 <xTimerGetTimerDaemonTaskHandle+0x8>)
100055ee:	6b98      	ldr	r0, [r3, #56]	; 0x38
100055f0:	4770      	bx	lr
100055f2:	46c0      	nop			; (mov r8, r8)
100055f4:	20000ce8 	.word	0x20000ce8

100055f8 <xTimerGetPeriod>:
100055f8:	6980      	ldr	r0, [r0, #24]
100055fa:	4770      	bx	lr

100055fc <vTimerSetReloadMode>:
100055fc:	b570      	push	{r4, r5, r6, lr}
100055fe:	0004      	movs	r4, r0
10005600:	000d      	movs	r5, r1
10005602:	f000 f8a5 	bl	10005750 <vPortEnterCritical>
10005606:	2d00      	cmp	r5, #0
10005608:	d007      	beq.n	1000561a <vTimerSetReloadMode+0x1e>
1000560a:	2224      	movs	r2, #36	; 0x24
1000560c:	5ca3      	ldrb	r3, [r4, r2]
1000560e:	2104      	movs	r1, #4
10005610:	430b      	orrs	r3, r1
10005612:	54a3      	strb	r3, [r4, r2]
10005614:	f000 f8a8 	bl	10005768 <vPortExitCritical>
10005618:	bd70      	pop	{r4, r5, r6, pc}
1000561a:	2224      	movs	r2, #36	; 0x24
1000561c:	5ca3      	ldrb	r3, [r4, r2]
1000561e:	2104      	movs	r1, #4
10005620:	438b      	bics	r3, r1
10005622:	54a3      	strb	r3, [r4, r2]
10005624:	e7f6      	b.n	10005614 <vTimerSetReloadMode+0x18>

10005626 <xTimerGetReloadMode>:
10005626:	b510      	push	{r4, lr}
10005628:	0004      	movs	r4, r0
1000562a:	f000 f891 	bl	10005750 <vPortEnterCritical>
1000562e:	2324      	movs	r3, #36	; 0x24
10005630:	5ce3      	ldrb	r3, [r4, r3]
10005632:	075b      	lsls	r3, r3, #29
10005634:	d404      	bmi.n	10005640 <xTimerGetReloadMode+0x1a>
10005636:	2400      	movs	r4, #0
10005638:	f000 f896 	bl	10005768 <vPortExitCritical>
1000563c:	0020      	movs	r0, r4
1000563e:	bd10      	pop	{r4, pc}
10005640:	2401      	movs	r4, #1
10005642:	e7f9      	b.n	10005638 <xTimerGetReloadMode+0x12>

10005644 <uxTimerGetReloadMode>:
10005644:	b510      	push	{r4, lr}
10005646:	f7ff ffee 	bl	10005626 <xTimerGetReloadMode>
1000564a:	bd10      	pop	{r4, pc}

1000564c <xTimerGetExpiryTime>:
1000564c:	6840      	ldr	r0, [r0, #4]
1000564e:	4770      	bx	lr

10005650 <pcTimerGetName>:
10005650:	6800      	ldr	r0, [r0, #0]
10005652:	4770      	bx	lr

10005654 <xTimerIsTimerActive>:
10005654:	b510      	push	{r4, lr}
10005656:	0004      	movs	r4, r0
10005658:	f000 f87a 	bl	10005750 <vPortEnterCritical>
1000565c:	2324      	movs	r3, #36	; 0x24
1000565e:	5ce3      	ldrb	r3, [r4, r3]
10005660:	07db      	lsls	r3, r3, #31
10005662:	d404      	bmi.n	1000566e <xTimerIsTimerActive+0x1a>
10005664:	2400      	movs	r4, #0
10005666:	f000 f87f 	bl	10005768 <vPortExitCritical>
1000566a:	0020      	movs	r0, r4
1000566c:	bd10      	pop	{r4, pc}
1000566e:	2401      	movs	r4, #1
10005670:	e7f9      	b.n	10005666 <xTimerIsTimerActive+0x12>

10005672 <pvTimerGetTimerID>:
10005672:	b510      	push	{r4, lr}
10005674:	0004      	movs	r4, r0
10005676:	f000 f86b 	bl	10005750 <vPortEnterCritical>
1000567a:	69e4      	ldr	r4, [r4, #28]
1000567c:	f000 f874 	bl	10005768 <vPortExitCritical>
10005680:	0020      	movs	r0, r4
10005682:	bd10      	pop	{r4, pc}

10005684 <vTimerSetTimerID>:
10005684:	b570      	push	{r4, r5, r6, lr}
10005686:	0004      	movs	r4, r0
10005688:	000d      	movs	r5, r1
1000568a:	f000 f861 	bl	10005750 <vPortEnterCritical>
1000568e:	61e5      	str	r5, [r4, #28]
10005690:	f000 f86a 	bl	10005768 <vPortExitCritical>
10005694:	bd70      	pop	{r4, r5, r6, pc}
10005696:	46c0      	nop			; (mov r8, r8)

10005698 <pvPortMalloc>:
10005698:	b510      	push	{r4, lr}
1000569a:	0004      	movs	r4, r0
1000569c:	f7fe ffa0 	bl	100045e0 <vTaskSuspendAll>
100056a0:	0020      	movs	r0, r4
100056a2:	f7fe fa61 	bl	10003b68 <__wrap_malloc>
100056a6:	0004      	movs	r4, r0
100056a8:	f7ff f854 	bl	10004754 <xTaskResumeAll>
100056ac:	0020      	movs	r0, r4
100056ae:	bd10      	pop	{r4, pc}

100056b0 <vPortFree>:
100056b0:	b510      	push	{r4, lr}
100056b2:	1e04      	subs	r4, r0, #0
100056b4:	d006      	beq.n	100056c4 <vPortFree+0x14>
100056b6:	f7fe ff93 	bl	100045e0 <vTaskSuspendAll>
100056ba:	0020      	movs	r0, r4
100056bc:	f7fe fa66 	bl	10003b8c <__wrap_free>
100056c0:	f7ff f848 	bl	10004754 <xTaskResumeAll>
100056c4:	bd10      	pop	{r4, pc}
	...

100056d0 <prvTaskExitError>:
100056d0:	b082      	sub	sp, #8
100056d2:	2300      	movs	r3, #0
100056d4:	9301      	str	r3, [sp, #4]
100056d6:	b672      	cpsid	i
100056d8:	9b01      	ldr	r3, [sp, #4]
100056da:	2b00      	cmp	r3, #0
100056dc:	d0fc      	beq.n	100056d8 <prvTaskExitError+0x8>
100056de:	b002      	add	sp, #8
100056e0:	4770      	bx	lr

100056e2 <vPortStartFirstTask>:
100056e2:	4a0b      	ldr	r2, [pc, #44]	; (10005710 <pxCurrentTCBConst2>)
100056e4:	6813      	ldr	r3, [r2, #0]
100056e6:	6818      	ldr	r0, [r3, #0]
100056e8:	3020      	adds	r0, #32
100056ea:	f380 8809 	msr	PSP, r0
100056ee:	2002      	movs	r0, #2
100056f0:	f380 8814 	msr	CONTROL, r0
100056f4:	f3bf 8f6f 	isb	sy
100056f8:	bc3f      	pop	{r0, r1, r2, r3, r4, r5}
100056fa:	46ae      	mov	lr, r5
100056fc:	bc08      	pop	{r3}
100056fe:	bc04      	pop	{r2}
10005700:	b662      	cpsie	i
10005702:	4718      	bx	r3
10005704:	46c0      	nop			; (mov r8, r8)
10005706:	46c0      	nop			; (mov r8, r8)
10005708:	46c0      	nop			; (mov r8, r8)
1000570a:	46c0      	nop			; (mov r8, r8)
1000570c:	46c0      	nop			; (mov r8, r8)
1000570e:	46c0      	nop			; (mov r8, r8)

10005710 <pxCurrentTCBConst2>:
10005710:	20000cbc 	.word	0x20000cbc

10005714 <pxPortInitialiseStack>:
10005714:	b510      	push	{r4, lr}
10005716:	1f03      	subs	r3, r0, #4
10005718:	2480      	movs	r4, #128	; 0x80
1000571a:	0464      	lsls	r4, r4, #17
1000571c:	601c      	str	r4, [r3, #0]
1000571e:	3b04      	subs	r3, #4
10005720:	6019      	str	r1, [r3, #0]
10005722:	3b04      	subs	r3, #4
10005724:	4902      	ldr	r1, [pc, #8]	; (10005730 <pxPortInitialiseStack+0x1c>)
10005726:	6019      	str	r1, [r3, #0]
10005728:	3b14      	subs	r3, #20
1000572a:	601a      	str	r2, [r3, #0]
1000572c:	3840      	subs	r0, #64	; 0x40
1000572e:	bd10      	pop	{r4, pc}
10005730:	100056d1 	.word	0x100056d1

10005734 <isr_svcall>:
10005734:	4770      	bx	lr

10005736 <vPortEndScheduler>:
10005736:	4770      	bx	lr

10005738 <vPortYield>:
10005738:	4b04      	ldr	r3, [pc, #16]	; (1000574c <vPortYield+0x14>)
1000573a:	2280      	movs	r2, #128	; 0x80
1000573c:	0552      	lsls	r2, r2, #21
1000573e:	601a      	str	r2, [r3, #0]
10005740:	f3bf 8f4f 	dsb	sy
10005744:	f3bf 8f6f 	isb	sy
10005748:	4770      	bx	lr
1000574a:	46c0      	nop			; (mov r8, r8)
1000574c:	e000ed04 	.word	0xe000ed04

10005750 <vPortEnterCritical>:
10005750:	b672      	cpsid	i
10005752:	4a04      	ldr	r2, [pc, #16]	; (10005764 <vPortEnterCritical+0x14>)
10005754:	6813      	ldr	r3, [r2, #0]
10005756:	3301      	adds	r3, #1
10005758:	6013      	str	r3, [r2, #0]
1000575a:	f3bf 8f4f 	dsb	sy
1000575e:	f3bf 8f6f 	isb	sy
10005762:	4770      	bx	lr
10005764:	20000268 	.word	0x20000268

10005768 <vPortExitCritical>:
10005768:	4a03      	ldr	r2, [pc, #12]	; (10005778 <vPortExitCritical+0x10>)
1000576a:	6813      	ldr	r3, [r2, #0]
1000576c:	3b01      	subs	r3, #1
1000576e:	6013      	str	r3, [r2, #0]
10005770:	2b00      	cmp	r3, #0
10005772:	d100      	bne.n	10005776 <vPortExitCritical+0xe>
10005774:	b662      	cpsie	i
10005776:	4770      	bx	lr
10005778:	20000268 	.word	0x20000268

1000577c <ulSetInterruptMaskFromISR>:
1000577c:	f3ef 8010 	mrs	r0, PRIMASK
10005780:	b672      	cpsid	i
10005782:	4770      	bx	lr

10005784 <vClearInterruptMaskFromISR>:
10005784:	f380 8810 	msr	PRIMASK, r0
10005788:	4770      	bx	lr

1000578a <isr_pendsv>:
1000578a:	f3ef 8009 	mrs	r0, PSP
1000578e:	4b10      	ldr	r3, [pc, #64]	; (100057d0 <pxCurrentTCBConst>)
10005790:	681a      	ldr	r2, [r3, #0]
10005792:	3820      	subs	r0, #32
10005794:	6010      	str	r0, [r2, #0]
10005796:	c0f0      	stmia	r0!, {r4, r5, r6, r7}
10005798:	4644      	mov	r4, r8
1000579a:	464d      	mov	r5, r9
1000579c:	4656      	mov	r6, sl
1000579e:	465f      	mov	r7, fp
100057a0:	c0f0      	stmia	r0!, {r4, r5, r6, r7}
100057a2:	b508      	push	{r3, lr}
100057a4:	b672      	cpsid	i
100057a6:	f7ff f8b7 	bl	10004918 <vTaskSwitchContext>
100057aa:	b662      	cpsie	i
100057ac:	bc0c      	pop	{r2, r3}
100057ae:	6811      	ldr	r1, [r2, #0]
100057b0:	6808      	ldr	r0, [r1, #0]
100057b2:	3010      	adds	r0, #16
100057b4:	c8f0      	ldmia	r0!, {r4, r5, r6, r7}
100057b6:	46a0      	mov	r8, r4
100057b8:	46a9      	mov	r9, r5
100057ba:	46b2      	mov	sl, r6
100057bc:	46bb      	mov	fp, r7
100057be:	f380 8809 	msr	PSP, r0
100057c2:	3820      	subs	r0, #32
100057c4:	c8f0      	ldmia	r0!, {r4, r5, r6, r7}
100057c6:	4718      	bx	r3
100057c8:	46c0      	nop			; (mov r8, r8)
100057ca:	46c0      	nop			; (mov r8, r8)
100057cc:	46c0      	nop			; (mov r8, r8)
100057ce:	46c0      	nop			; (mov r8, r8)

100057d0 <pxCurrentTCBConst>:
100057d0:	20000cbc 	.word	0x20000cbc

100057d4 <isr_systick>:
100057d4:	b510      	push	{r4, lr}
100057d6:	f7ff ffd1 	bl	1000577c <ulSetInterruptMaskFromISR>
100057da:	0004      	movs	r4, r0
100057dc:	f7fe ff24 	bl	10004628 <xTaskIncrementTick>
100057e0:	2800      	cmp	r0, #0
100057e2:	d003      	beq.n	100057ec <isr_systick+0x18>
100057e4:	4b03      	ldr	r3, [pc, #12]	; (100057f4 <isr_systick+0x20>)
100057e6:	2280      	movs	r2, #128	; 0x80
100057e8:	0552      	lsls	r2, r2, #21
100057ea:	601a      	str	r2, [r3, #0]
100057ec:	0020      	movs	r0, r4
100057ee:	f7ff ffc9 	bl	10005784 <vClearInterruptMaskFromISR>
100057f2:	bd10      	pop	{r4, pc}
100057f4:	e000ed04 	.word	0xe000ed04

100057f8 <vPortSetupTimerInterrupt>:
100057f8:	4b05      	ldr	r3, [pc, #20]	; (10005810 <vPortSetupTimerInterrupt+0x18>)
100057fa:	2200      	movs	r2, #0
100057fc:	601a      	str	r2, [r3, #0]
100057fe:	4905      	ldr	r1, [pc, #20]	; (10005814 <vPortSetupTimerInterrupt+0x1c>)
10005800:	600a      	str	r2, [r1, #0]
10005802:	4a05      	ldr	r2, [pc, #20]	; (10005818 <vPortSetupTimerInterrupt+0x20>)
10005804:	4905      	ldr	r1, [pc, #20]	; (1000581c <vPortSetupTimerInterrupt+0x24>)
10005806:	6011      	str	r1, [r2, #0]
10005808:	2207      	movs	r2, #7
1000580a:	601a      	str	r2, [r3, #0]
1000580c:	4770      	bx	lr
1000580e:	46c0      	nop			; (mov r8, r8)
10005810:	e000e010 	.word	0xe000e010
10005814:	e000e018 	.word	0xe000e018
10005818:	e000e014 	.word	0xe000e014
1000581c:	00144b4f 	.word	0x00144b4f

10005820 <xPortStartScheduler>:
10005820:	b510      	push	{r4, lr}
10005822:	4b0c      	ldr	r3, [pc, #48]	; (10005854 <xPortStartScheduler+0x34>)
10005824:	6819      	ldr	r1, [r3, #0]
10005826:	22ff      	movs	r2, #255	; 0xff
10005828:	0412      	lsls	r2, r2, #16
1000582a:	430a      	orrs	r2, r1
1000582c:	601a      	str	r2, [r3, #0]
1000582e:	6819      	ldr	r1, [r3, #0]
10005830:	22ff      	movs	r2, #255	; 0xff
10005832:	0612      	lsls	r2, r2, #24
10005834:	430a      	orrs	r2, r1
10005836:	601a      	str	r2, [r3, #0]
10005838:	f7ff ffde 	bl	100057f8 <vPortSetupTimerInterrupt>
1000583c:	4b06      	ldr	r3, [pc, #24]	; (10005858 <xPortStartScheduler+0x38>)
1000583e:	2200      	movs	r2, #0
10005840:	601a      	str	r2, [r3, #0]
10005842:	f7ff ff4e 	bl	100056e2 <vPortStartFirstTask>
10005846:	f7ff f867 	bl	10004918 <vTaskSwitchContext>
1000584a:	f7ff ff41 	bl	100056d0 <prvTaskExitError>
1000584e:	2000      	movs	r0, #0
10005850:	bd10      	pop	{r4, pc}
10005852:	46c0      	nop			; (mov r8, r8)
10005854:	e000ed20 	.word	0xe000ed20
10005858:	20000268 	.word	0x20000268

1000585c <vListInitialise>:
1000585c:	0003      	movs	r3, r0
1000585e:	3308      	adds	r3, #8
10005860:	6043      	str	r3, [r0, #4]
10005862:	2201      	movs	r2, #1
10005864:	4252      	negs	r2, r2
10005866:	6082      	str	r2, [r0, #8]
10005868:	60c3      	str	r3, [r0, #12]
1000586a:	6103      	str	r3, [r0, #16]
1000586c:	2300      	movs	r3, #0
1000586e:	6003      	str	r3, [r0, #0]
10005870:	4770      	bx	lr

10005872 <vListInitialiseItem>:
10005872:	2300      	movs	r3, #0
10005874:	6103      	str	r3, [r0, #16]
10005876:	4770      	bx	lr

10005878 <vListInsertEnd>:
10005878:	6843      	ldr	r3, [r0, #4]
1000587a:	604b      	str	r3, [r1, #4]
1000587c:	689a      	ldr	r2, [r3, #8]
1000587e:	608a      	str	r2, [r1, #8]
10005880:	6051      	str	r1, [r2, #4]
10005882:	6099      	str	r1, [r3, #8]
10005884:	6108      	str	r0, [r1, #16]
10005886:	6803      	ldr	r3, [r0, #0]
10005888:	3301      	adds	r3, #1
1000588a:	6003      	str	r3, [r0, #0]
1000588c:	4770      	bx	lr

1000588e <vListInsert>:
1000588e:	b530      	push	{r4, r5, lr}
10005890:	680c      	ldr	r4, [r1, #0]
10005892:	1c63      	adds	r3, r4, #1
10005894:	d010      	beq.n	100058b8 <vListInsert+0x2a>
10005896:	0003      	movs	r3, r0
10005898:	3308      	adds	r3, #8
1000589a:	001a      	movs	r2, r3
1000589c:	685b      	ldr	r3, [r3, #4]
1000589e:	681d      	ldr	r5, [r3, #0]
100058a0:	42a5      	cmp	r5, r4
100058a2:	d9fa      	bls.n	1000589a <vListInsert+0xc>
100058a4:	6853      	ldr	r3, [r2, #4]
100058a6:	604b      	str	r3, [r1, #4]
100058a8:	6099      	str	r1, [r3, #8]
100058aa:	608a      	str	r2, [r1, #8]
100058ac:	6051      	str	r1, [r2, #4]
100058ae:	6108      	str	r0, [r1, #16]
100058b0:	6803      	ldr	r3, [r0, #0]
100058b2:	3301      	adds	r3, #1
100058b4:	6003      	str	r3, [r0, #0]
100058b6:	bd30      	pop	{r4, r5, pc}
100058b8:	6902      	ldr	r2, [r0, #16]
100058ba:	e7f3      	b.n	100058a4 <vListInsert+0x16>

100058bc <uxListRemove>:
100058bc:	6903      	ldr	r3, [r0, #16]
100058be:	6841      	ldr	r1, [r0, #4]
100058c0:	6882      	ldr	r2, [r0, #8]
100058c2:	608a      	str	r2, [r1, #8]
100058c4:	6841      	ldr	r1, [r0, #4]
100058c6:	6051      	str	r1, [r2, #4]
100058c8:	685a      	ldr	r2, [r3, #4]
100058ca:	4282      	cmp	r2, r0
100058cc:	d006      	beq.n	100058dc <uxListRemove+0x20>
100058ce:	2200      	movs	r2, #0
100058d0:	6102      	str	r2, [r0, #16]
100058d2:	681a      	ldr	r2, [r3, #0]
100058d4:	3a01      	subs	r2, #1
100058d6:	601a      	str	r2, [r3, #0]
100058d8:	6818      	ldr	r0, [r3, #0]
100058da:	4770      	bx	lr
100058dc:	6882      	ldr	r2, [r0, #8]
100058de:	605a      	str	r2, [r3, #4]
100058e0:	e7f5      	b.n	100058ce <uxListRemove+0x12>
	...

100058e4 <prvIsQueueFull>:
100058e4:	b510      	push	{r4, lr}
100058e6:	0004      	movs	r4, r0
100058e8:	f7ff ff32 	bl	10005750 <vPortEnterCritical>
100058ec:	6ba2      	ldr	r2, [r4, #56]	; 0x38
100058ee:	6be3      	ldr	r3, [r4, #60]	; 0x3c
100058f0:	429a      	cmp	r2, r3
100058f2:	d004      	beq.n	100058fe <prvIsQueueFull+0x1a>
100058f4:	2400      	movs	r4, #0
100058f6:	f7ff ff37 	bl	10005768 <vPortExitCritical>
100058fa:	0020      	movs	r0, r4
100058fc:	bd10      	pop	{r4, pc}
100058fe:	2401      	movs	r4, #1
10005900:	e7f9      	b.n	100058f6 <prvIsQueueFull+0x12>

10005902 <prvIsQueueEmpty>:
10005902:	b510      	push	{r4, lr}
10005904:	0004      	movs	r4, r0
10005906:	f7ff ff23 	bl	10005750 <vPortEnterCritical>
1000590a:	6ba3      	ldr	r3, [r4, #56]	; 0x38
1000590c:	2b00      	cmp	r3, #0
1000590e:	d104      	bne.n	1000591a <prvIsQueueEmpty+0x18>
10005910:	2401      	movs	r4, #1
10005912:	f7ff ff29 	bl	10005768 <vPortExitCritical>
10005916:	0020      	movs	r0, r4
10005918:	bd10      	pop	{r4, pc}
1000591a:	2400      	movs	r4, #0
1000591c:	e7f9      	b.n	10005912 <prvIsQueueEmpty+0x10>

1000591e <prvCopyDataToQueue>:
1000591e:	b570      	push	{r4, r5, r6, lr}
10005920:	0004      	movs	r4, r0
10005922:	0016      	movs	r6, r2
10005924:	6b85      	ldr	r5, [r0, #56]	; 0x38
10005926:	6c02      	ldr	r2, [r0, #64]	; 0x40
10005928:	2a00      	cmp	r2, #0
1000592a:	d020      	beq.n	1000596e <prvCopyDataToQueue+0x50>
1000592c:	2e00      	cmp	r6, #0
1000592e:	d10d      	bne.n	1000594c <prvCopyDataToQueue+0x2e>
10005930:	6840      	ldr	r0, [r0, #4]
10005932:	f7fe f93d 	bl	10003bb0 <__wrap___aeabi_memcpy>
10005936:	6863      	ldr	r3, [r4, #4]
10005938:	6c22      	ldr	r2, [r4, #64]	; 0x40
1000593a:	4694      	mov	ip, r2
1000593c:	4463      	add	r3, ip
1000593e:	6063      	str	r3, [r4, #4]
10005940:	68a2      	ldr	r2, [r4, #8]
10005942:	4293      	cmp	r3, r2
10005944:	d313      	bcc.n	1000596e <prvCopyDataToQueue+0x50>
10005946:	6823      	ldr	r3, [r4, #0]
10005948:	6063      	str	r3, [r4, #4]
1000594a:	e010      	b.n	1000596e <prvCopyDataToQueue+0x50>
1000594c:	68c0      	ldr	r0, [r0, #12]
1000594e:	f7fe f92f 	bl	10003bb0 <__wrap___aeabi_memcpy>
10005952:	6c23      	ldr	r3, [r4, #64]	; 0x40
10005954:	425a      	negs	r2, r3
10005956:	68e1      	ldr	r1, [r4, #12]
10005958:	1acb      	subs	r3, r1, r3
1000595a:	60e3      	str	r3, [r4, #12]
1000595c:	6821      	ldr	r1, [r4, #0]
1000595e:	428b      	cmp	r3, r1
10005960:	d203      	bcs.n	1000596a <prvCopyDataToQueue+0x4c>
10005962:	68a3      	ldr	r3, [r4, #8]
10005964:	469c      	mov	ip, r3
10005966:	4462      	add	r2, ip
10005968:	60e2      	str	r2, [r4, #12]
1000596a:	2e02      	cmp	r6, #2
1000596c:	d003      	beq.n	10005976 <prvCopyDataToQueue+0x58>
1000596e:	3501      	adds	r5, #1
10005970:	63a5      	str	r5, [r4, #56]	; 0x38
10005972:	2000      	movs	r0, #0
10005974:	bd70      	pop	{r4, r5, r6, pc}
10005976:	2d00      	cmp	r5, #0
10005978:	d0f9      	beq.n	1000596e <prvCopyDataToQueue+0x50>
1000597a:	3d01      	subs	r5, #1
1000597c:	e7f7      	b.n	1000596e <prvCopyDataToQueue+0x50>

1000597e <prvCopyDataFromQueue>:
1000597e:	b510      	push	{r4, lr}
10005980:	0003      	movs	r3, r0
10005982:	0008      	movs	r0, r1
10005984:	6c1a      	ldr	r2, [r3, #64]	; 0x40
10005986:	2a00      	cmp	r2, #0
10005988:	d00a      	beq.n	100059a0 <prvCopyDataFromQueue+0x22>
1000598a:	68d9      	ldr	r1, [r3, #12]
1000598c:	1889      	adds	r1, r1, r2
1000598e:	60d9      	str	r1, [r3, #12]
10005990:	689c      	ldr	r4, [r3, #8]
10005992:	42a1      	cmp	r1, r4
10005994:	d301      	bcc.n	1000599a <prvCopyDataFromQueue+0x1c>
10005996:	6819      	ldr	r1, [r3, #0]
10005998:	60d9      	str	r1, [r3, #12]
1000599a:	68d9      	ldr	r1, [r3, #12]
1000599c:	f7fe f908 	bl	10003bb0 <__wrap___aeabi_memcpy>
100059a0:	bd10      	pop	{r4, pc}

100059a2 <prvUnlockQueue>:
100059a2:	b570      	push	{r4, r5, r6, lr}
100059a4:	0005      	movs	r5, r0
100059a6:	f7ff fed3 	bl	10005750 <vPortEnterCritical>
100059aa:	2345      	movs	r3, #69	; 0x45
100059ac:	5cec      	ldrb	r4, [r5, r3]
100059ae:	b264      	sxtb	r4, r4
100059b0:	e001      	b.n	100059b6 <prvUnlockQueue+0x14>
100059b2:	3c01      	subs	r4, #1
100059b4:	b264      	sxtb	r4, r4
100059b6:	2c00      	cmp	r4, #0
100059b8:	dd0b      	ble.n	100059d2 <prvUnlockQueue+0x30>
100059ba:	6a6b      	ldr	r3, [r5, #36]	; 0x24
100059bc:	2b00      	cmp	r3, #0
100059be:	d008      	beq.n	100059d2 <prvUnlockQueue+0x30>
100059c0:	0028      	movs	r0, r5
100059c2:	3024      	adds	r0, #36	; 0x24
100059c4:	f7ff f884 	bl	10004ad0 <xTaskRemoveFromEventList>
100059c8:	2800      	cmp	r0, #0
100059ca:	d0f2      	beq.n	100059b2 <prvUnlockQueue+0x10>
100059cc:	f7ff f984 	bl	10004cd8 <vTaskMissedYield>
100059d0:	e7ef      	b.n	100059b2 <prvUnlockQueue+0x10>
100059d2:	2345      	movs	r3, #69	; 0x45
100059d4:	22ff      	movs	r2, #255	; 0xff
100059d6:	54ea      	strb	r2, [r5, r3]
100059d8:	f7ff fec6 	bl	10005768 <vPortExitCritical>
100059dc:	f7ff feb8 	bl	10005750 <vPortEnterCritical>
100059e0:	2344      	movs	r3, #68	; 0x44
100059e2:	5cec      	ldrb	r4, [r5, r3]
100059e4:	b264      	sxtb	r4, r4
100059e6:	e001      	b.n	100059ec <prvUnlockQueue+0x4a>
100059e8:	3c01      	subs	r4, #1
100059ea:	b264      	sxtb	r4, r4
100059ec:	2c00      	cmp	r4, #0
100059ee:	dd0b      	ble.n	10005a08 <prvUnlockQueue+0x66>
100059f0:	692b      	ldr	r3, [r5, #16]
100059f2:	2b00      	cmp	r3, #0
100059f4:	d008      	beq.n	10005a08 <prvUnlockQueue+0x66>
100059f6:	0028      	movs	r0, r5
100059f8:	3010      	adds	r0, #16
100059fa:	f7ff f869 	bl	10004ad0 <xTaskRemoveFromEventList>
100059fe:	2800      	cmp	r0, #0
10005a00:	d0f2      	beq.n	100059e8 <prvUnlockQueue+0x46>
10005a02:	f7ff f969 	bl	10004cd8 <vTaskMissedYield>
10005a06:	e7ef      	b.n	100059e8 <prvUnlockQueue+0x46>
10005a08:	2344      	movs	r3, #68	; 0x44
10005a0a:	22ff      	movs	r2, #255	; 0xff
10005a0c:	54ea      	strb	r2, [r5, r3]
10005a0e:	f7ff feab 	bl	10005768 <vPortExitCritical>
10005a12:	bd70      	pop	{r4, r5, r6, pc}

10005a14 <xQueueGenericReset>:
10005a14:	b5f8      	push	{r3, r4, r5, r6, r7, lr}
10005a16:	0004      	movs	r4, r0
10005a18:	000d      	movs	r5, r1
10005a1a:	2800      	cmp	r0, #0
10005a1c:	d052      	beq.n	10005ac4 <xQueueGenericReset+0xb0>
10005a1e:	6bc3      	ldr	r3, [r0, #60]	; 0x3c
10005a20:	2b00      	cmp	r3, #0
10005a22:	d051      	beq.n	10005ac8 <xQueueGenericReset+0xb4>
10005a24:	6c01      	ldr	r1, [r0, #64]	; 0x40
10005a26:	2600      	movs	r6, #0
10005a28:	0c0f      	lsrs	r7, r1, #16
10005a2a:	0c1a      	lsrs	r2, r3, #16
10005a2c:	2f00      	cmp	r7, #0
10005a2e:	d113      	bne.n	10005a58 <xQueueGenericReset+0x44>
10005a30:	b290      	uxth	r0, r2
10005a32:	2800      	cmp	r0, #0
10005a34:	d103      	bne.n	10005a3e <xQueueGenericReset+0x2a>
10005a36:	2e00      	cmp	r6, #0
10005a38:	d014      	beq.n	10005a64 <xQueueGenericReset+0x50>
10005a3a:	2000      	movs	r0, #0
10005a3c:	e045      	b.n	10005aca <xQueueGenericReset+0xb6>
10005a3e:	1c08      	adds	r0, r1, #0
10005a40:	b289      	uxth	r1, r1
10005a42:	b29b      	uxth	r3, r3
10005a44:	434b      	muls	r3, r1
10005a46:	b280      	uxth	r0, r0
10005a48:	b292      	uxth	r2, r2
10005a4a:	4342      	muls	r2, r0
10005a4c:	0c1b      	lsrs	r3, r3, #16
10005a4e:	18d3      	adds	r3, r2, r3
10005a50:	0c1b      	lsrs	r3, r3, #16
10005a52:	d0f0      	beq.n	10005a36 <xQueueGenericReset+0x22>
10005a54:	2601      	movs	r6, #1
10005a56:	e7ee      	b.n	10005a36 <xQueueGenericReset+0x22>
10005a58:	b292      	uxth	r2, r2
10005a5a:	2a00      	cmp	r2, #0
10005a5c:	d1fa      	bne.n	10005a54 <xQueueGenericReset+0x40>
10005a5e:	1c3a      	adds	r2, r7, #0
10005a60:	1c18      	adds	r0, r3, #0
10005a62:	e7ed      	b.n	10005a40 <xQueueGenericReset+0x2c>
10005a64:	f7ff fe74 	bl	10005750 <vPortEnterCritical>
10005a68:	6822      	ldr	r2, [r4, #0]
10005a6a:	6be3      	ldr	r3, [r4, #60]	; 0x3c
10005a6c:	6c20      	ldr	r0, [r4, #64]	; 0x40
10005a6e:	0001      	movs	r1, r0
10005a70:	4359      	muls	r1, r3
10005a72:	1851      	adds	r1, r2, r1
10005a74:	60a1      	str	r1, [r4, #8]
10005a76:	2100      	movs	r1, #0
10005a78:	63a1      	str	r1, [r4, #56]	; 0x38
10005a7a:	6062      	str	r2, [r4, #4]
10005a7c:	3b01      	subs	r3, #1
10005a7e:	4343      	muls	r3, r0
10005a80:	18d3      	adds	r3, r2, r3
10005a82:	60e3      	str	r3, [r4, #12]
10005a84:	23ff      	movs	r3, #255	; 0xff
10005a86:	2244      	movs	r2, #68	; 0x44
10005a88:	54a3      	strb	r3, [r4, r2]
10005a8a:	3201      	adds	r2, #1
10005a8c:	54a3      	strb	r3, [r4, r2]
10005a8e:	2d00      	cmp	r5, #0
10005a90:	d10f      	bne.n	10005ab2 <xQueueGenericReset+0x9e>
10005a92:	6923      	ldr	r3, [r4, #16]
10005a94:	2b00      	cmp	r3, #0
10005a96:	d103      	bne.n	10005aa0 <xQueueGenericReset+0x8c>
10005a98:	f7ff fe66 	bl	10005768 <vPortExitCritical>
10005a9c:	2001      	movs	r0, #1
10005a9e:	e014      	b.n	10005aca <xQueueGenericReset+0xb6>
10005aa0:	0020      	movs	r0, r4
10005aa2:	3010      	adds	r0, #16
10005aa4:	f7ff f814 	bl	10004ad0 <xTaskRemoveFromEventList>
10005aa8:	2800      	cmp	r0, #0
10005aaa:	d0f5      	beq.n	10005a98 <xQueueGenericReset+0x84>
10005aac:	f7ff fe44 	bl	10005738 <vPortYield>
10005ab0:	e7f2      	b.n	10005a98 <xQueueGenericReset+0x84>
10005ab2:	0020      	movs	r0, r4
10005ab4:	3010      	adds	r0, #16
10005ab6:	f7ff fed1 	bl	1000585c <vListInitialise>
10005aba:	0020      	movs	r0, r4
10005abc:	3024      	adds	r0, #36	; 0x24
10005abe:	f7ff fecd 	bl	1000585c <vListInitialise>
10005ac2:	e7e9      	b.n	10005a98 <xQueueGenericReset+0x84>
10005ac4:	2000      	movs	r0, #0
10005ac6:	e000      	b.n	10005aca <xQueueGenericReset+0xb6>
10005ac8:	2000      	movs	r0, #0
10005aca:	bdf8      	pop	{r3, r4, r5, r6, r7, pc}

10005acc <prvInitialiseNewQueue>:
10005acc:	b510      	push	{r4, lr}
10005ace:	0003      	movs	r3, r0
10005ad0:	9802      	ldr	r0, [sp, #8]
10005ad2:	2900      	cmp	r1, #0
10005ad4:	d106      	bne.n	10005ae4 <prvInitialiseNewQueue+0x18>
10005ad6:	6000      	str	r0, [r0, #0]
10005ad8:	63c3      	str	r3, [r0, #60]	; 0x3c
10005ada:	6401      	str	r1, [r0, #64]	; 0x40
10005adc:	2101      	movs	r1, #1
10005ade:	f7ff ff99 	bl	10005a14 <xQueueGenericReset>
10005ae2:	bd10      	pop	{r4, pc}
10005ae4:	6002      	str	r2, [r0, #0]
10005ae6:	e7f7      	b.n	10005ad8 <prvInitialiseNewQueue+0xc>

10005ae8 <xQueueGenericCreate>:
10005ae8:	b5f0      	push	{r4, r5, r6, r7, lr}
10005aea:	b083      	sub	sp, #12
10005aec:	0004      	movs	r4, r0
10005aee:	000d      	movs	r5, r1
10005af0:	0016      	movs	r6, r2
10005af2:	2800      	cmp	r0, #0
10005af4:	d02f      	beq.n	10005b56 <xQueueGenericCreate+0x6e>
10005af6:	2000      	movs	r0, #0
10005af8:	0c0a      	lsrs	r2, r1, #16
10005afa:	0c23      	lsrs	r3, r4, #16
10005afc:	2a00      	cmp	r2, #0
10005afe:	d125      	bne.n	10005b4c <xQueueGenericCreate+0x64>
10005b00:	b29a      	uxth	r2, r3
10005b02:	2a00      	cmp	r2, #0
10005b04:	d114      	bne.n	10005b30 <xQueueGenericCreate+0x48>
10005b06:	2800      	cmp	r0, #0
10005b08:	d129      	bne.n	10005b5e <xQueueGenericCreate+0x76>
10005b0a:	0028      	movs	r0, r5
10005b0c:	4360      	muls	r0, r4
10005b0e:	0003      	movs	r3, r0
10005b10:	3349      	adds	r3, #73	; 0x49
10005b12:	d826      	bhi.n	10005b62 <xQueueGenericCreate+0x7a>
10005b14:	3048      	adds	r0, #72	; 0x48
10005b16:	f7ff fdbf 	bl	10005698 <pvPortMalloc>
10005b1a:	1e07      	subs	r7, r0, #0
10005b1c:	d01c      	beq.n	10005b58 <xQueueGenericCreate+0x70>
10005b1e:	0002      	movs	r2, r0
10005b20:	3248      	adds	r2, #72	; 0x48
10005b22:	9000      	str	r0, [sp, #0]
10005b24:	0033      	movs	r3, r6
10005b26:	0029      	movs	r1, r5
10005b28:	0020      	movs	r0, r4
10005b2a:	f7ff ffcf 	bl	10005acc <prvInitialiseNewQueue>
10005b2e:	e013      	b.n	10005b58 <xQueueGenericCreate+0x70>
10005b30:	1c1a      	adds	r2, r3, #0
10005b32:	1c2f      	adds	r7, r5, #0
10005b34:	b2ab      	uxth	r3, r5
10005b36:	b2a1      	uxth	r1, r4
10005b38:	4359      	muls	r1, r3
10005b3a:	b2bf      	uxth	r7, r7
10005b3c:	b293      	uxth	r3, r2
10005b3e:	437b      	muls	r3, r7
10005b40:	0c09      	lsrs	r1, r1, #16
10005b42:	185b      	adds	r3, r3, r1
10005b44:	0c1b      	lsrs	r3, r3, #16
10005b46:	d0de      	beq.n	10005b06 <xQueueGenericCreate+0x1e>
10005b48:	2001      	movs	r0, #1
10005b4a:	e7dc      	b.n	10005b06 <xQueueGenericCreate+0x1e>
10005b4c:	b29b      	uxth	r3, r3
10005b4e:	2b00      	cmp	r3, #0
10005b50:	d1fa      	bne.n	10005b48 <xQueueGenericCreate+0x60>
10005b52:	1c27      	adds	r7, r4, #0
10005b54:	e7ee      	b.n	10005b34 <xQueueGenericCreate+0x4c>
10005b56:	2700      	movs	r7, #0
10005b58:	0038      	movs	r0, r7
10005b5a:	b003      	add	sp, #12
10005b5c:	bdf0      	pop	{r4, r5, r6, r7, pc}
10005b5e:	2700      	movs	r7, #0
10005b60:	e7fa      	b.n	10005b58 <xQueueGenericCreate+0x70>
10005b62:	2700      	movs	r7, #0
10005b64:	e7f8      	b.n	10005b58 <xQueueGenericCreate+0x70>

10005b66 <xQueueGenericSend>:
10005b66:	b5f0      	push	{r4, r5, r6, r7, lr}
10005b68:	b085      	sub	sp, #20
10005b6a:	0004      	movs	r4, r0
10005b6c:	000d      	movs	r5, r1
10005b6e:	9201      	str	r2, [sp, #4]
10005b70:	001e      	movs	r6, r3
10005b72:	2700      	movs	r7, #0
10005b74:	e030      	b.n	10005bd8 <xQueueGenericSend+0x72>
10005b76:	0032      	movs	r2, r6
10005b78:	0029      	movs	r1, r5
10005b7a:	0020      	movs	r0, r4
10005b7c:	f7ff fecf 	bl	1000591e <prvCopyDataToQueue>
10005b80:	6a63      	ldr	r3, [r4, #36]	; 0x24
10005b82:	2b00      	cmp	r3, #0
10005b84:	d106      	bne.n	10005b94 <xQueueGenericSend+0x2e>
10005b86:	2800      	cmp	r0, #0
10005b88:	d10d      	bne.n	10005ba6 <xQueueGenericSend+0x40>
10005b8a:	f7ff fded 	bl	10005768 <vPortExitCritical>
10005b8e:	2001      	movs	r0, #1
10005b90:	b005      	add	sp, #20
10005b92:	bdf0      	pop	{r4, r5, r6, r7, pc}
10005b94:	0020      	movs	r0, r4
10005b96:	3024      	adds	r0, #36	; 0x24
10005b98:	f7fe ff9a 	bl	10004ad0 <xTaskRemoveFromEventList>
10005b9c:	2800      	cmp	r0, #0
10005b9e:	d0f4      	beq.n	10005b8a <xQueueGenericSend+0x24>
10005ba0:	f7ff fdca 	bl	10005738 <vPortYield>
10005ba4:	e7f1      	b.n	10005b8a <xQueueGenericSend+0x24>
10005ba6:	f7ff fdc7 	bl	10005738 <vPortYield>
10005baa:	e7ee      	b.n	10005b8a <xQueueGenericSend+0x24>
10005bac:	f7ff fddc 	bl	10005768 <vPortExitCritical>
10005bb0:	2000      	movs	r0, #0
10005bb2:	e7ed      	b.n	10005b90 <xQueueGenericSend+0x2a>
10005bb4:	a802      	add	r0, sp, #8
10005bb6:	f7ff f85b 	bl	10004c70 <vTaskInternalSetTimeOutState>
10005bba:	3701      	adds	r7, #1
10005bbc:	e019      	b.n	10005bf2 <xQueueGenericSend+0x8c>
10005bbe:	2344      	movs	r3, #68	; 0x44
10005bc0:	2200      	movs	r2, #0
10005bc2:	54e2      	strb	r2, [r4, r3]
10005bc4:	e020      	b.n	10005c08 <xQueueGenericSend+0xa2>
10005bc6:	2345      	movs	r3, #69	; 0x45
10005bc8:	2200      	movs	r2, #0
10005bca:	54e2      	strb	r2, [r4, r3]
10005bcc:	e021      	b.n	10005c12 <xQueueGenericSend+0xac>
10005bce:	0020      	movs	r0, r4
10005bd0:	f7ff fee7 	bl	100059a2 <prvUnlockQueue>
10005bd4:	f7fe fdbe 	bl	10004754 <xTaskResumeAll>
10005bd8:	f7ff fdba 	bl	10005750 <vPortEnterCritical>
10005bdc:	6ba3      	ldr	r3, [r4, #56]	; 0x38
10005bde:	6be2      	ldr	r2, [r4, #60]	; 0x3c
10005be0:	4293      	cmp	r3, r2
10005be2:	d3c8      	bcc.n	10005b76 <xQueueGenericSend+0x10>
10005be4:	2e02      	cmp	r6, #2
10005be6:	d0c6      	beq.n	10005b76 <xQueueGenericSend+0x10>
10005be8:	9b01      	ldr	r3, [sp, #4]
10005bea:	2b00      	cmp	r3, #0
10005bec:	d0de      	beq.n	10005bac <xQueueGenericSend+0x46>
10005bee:	2f00      	cmp	r7, #0
10005bf0:	d0e0      	beq.n	10005bb4 <xQueueGenericSend+0x4e>
10005bf2:	f7ff fdb9 	bl	10005768 <vPortExitCritical>
10005bf6:	f7fe fcf3 	bl	100045e0 <vTaskSuspendAll>
10005bfa:	f7ff fda9 	bl	10005750 <vPortEnterCritical>
10005bfe:	2344      	movs	r3, #68	; 0x44
10005c00:	5ce1      	ldrb	r1, [r4, r3]
10005c02:	b249      	sxtb	r1, r1
10005c04:	1c4b      	adds	r3, r1, #1
10005c06:	d0da      	beq.n	10005bbe <xQueueGenericSend+0x58>
10005c08:	2345      	movs	r3, #69	; 0x45
10005c0a:	5ce0      	ldrb	r0, [r4, r3]
10005c0c:	b240      	sxtb	r0, r0
10005c0e:	1c43      	adds	r3, r0, #1
10005c10:	d0d9      	beq.n	10005bc6 <xQueueGenericSend+0x60>
10005c12:	f7ff fda9 	bl	10005768 <vPortExitCritical>
10005c16:	a901      	add	r1, sp, #4
10005c18:	a802      	add	r0, sp, #8
10005c1a:	f7ff f831 	bl	10004c80 <xTaskCheckForTimeOut>
10005c1e:	2800      	cmp	r0, #0
10005c20:	d113      	bne.n	10005c4a <xQueueGenericSend+0xe4>
10005c22:	0020      	movs	r0, r4
10005c24:	f7ff fe5e 	bl	100058e4 <prvIsQueueFull>
10005c28:	2800      	cmp	r0, #0
10005c2a:	d0d0      	beq.n	10005bce <xQueueGenericSend+0x68>
10005c2c:	0020      	movs	r0, r4
10005c2e:	3010      	adds	r0, #16
10005c30:	9901      	ldr	r1, [sp, #4]
10005c32:	f7fe feff 	bl	10004a34 <vTaskPlaceOnEventList>
10005c36:	0020      	movs	r0, r4
10005c38:	f7ff feb3 	bl	100059a2 <prvUnlockQueue>
10005c3c:	f7fe fd8a 	bl	10004754 <xTaskResumeAll>
10005c40:	2800      	cmp	r0, #0
10005c42:	d1c9      	bne.n	10005bd8 <xQueueGenericSend+0x72>
10005c44:	f7ff fd78 	bl	10005738 <vPortYield>
10005c48:	e7c6      	b.n	10005bd8 <xQueueGenericSend+0x72>
10005c4a:	0020      	movs	r0, r4
10005c4c:	f7ff fea9 	bl	100059a2 <prvUnlockQueue>
10005c50:	f7fe fd80 	bl	10004754 <xTaskResumeAll>
10005c54:	2000      	movs	r0, #0
10005c56:	e79b      	b.n	10005b90 <xQueueGenericSend+0x2a>

10005c58 <xQueueGenericSendFromISR>:
10005c58:	b5f0      	push	{r4, r5, r6, r7, lr}
10005c5a:	b083      	sub	sp, #12
10005c5c:	0004      	movs	r4, r0
10005c5e:	9100      	str	r1, [sp, #0]
10005c60:	9201      	str	r2, [sp, #4]
10005c62:	001d      	movs	r5, r3
10005c64:	f7ff fd8a 	bl	1000577c <ulSetInterruptMaskFromISR>
10005c68:	0007      	movs	r7, r0
10005c6a:	6ba3      	ldr	r3, [r4, #56]	; 0x38
10005c6c:	6be2      	ldr	r2, [r4, #60]	; 0x3c
10005c6e:	4293      	cmp	r3, r2
10005c70:	d308      	bcc.n	10005c84 <xQueueGenericSendFromISR+0x2c>
10005c72:	2d02      	cmp	r5, #2
10005c74:	d006      	beq.n	10005c84 <xQueueGenericSendFromISR+0x2c>
10005c76:	2400      	movs	r4, #0
10005c78:	0038      	movs	r0, r7
10005c7a:	f7ff fd83 	bl	10005784 <vClearInterruptMaskFromISR>
10005c7e:	0020      	movs	r0, r4
10005c80:	b003      	add	sp, #12
10005c82:	bdf0      	pop	{r4, r5, r6, r7, pc}
10005c84:	2345      	movs	r3, #69	; 0x45
10005c86:	5ce6      	ldrb	r6, [r4, r3]
10005c88:	b276      	sxtb	r6, r6
10005c8a:	6ba3      	ldr	r3, [r4, #56]	; 0x38
10005c8c:	002a      	movs	r2, r5
10005c8e:	9900      	ldr	r1, [sp, #0]
10005c90:	0020      	movs	r0, r4
10005c92:	f7ff fe44 	bl	1000591e <prvCopyDataToQueue>
10005c96:	1c73      	adds	r3, r6, #1
10005c98:	d111      	bne.n	10005cbe <xQueueGenericSendFromISR+0x66>
10005c9a:	6a63      	ldr	r3, [r4, #36]	; 0x24
10005c9c:	2b00      	cmp	r3, #0
10005c9e:	d101      	bne.n	10005ca4 <xQueueGenericSendFromISR+0x4c>
10005ca0:	2401      	movs	r4, #1
10005ca2:	e7e9      	b.n	10005c78 <xQueueGenericSendFromISR+0x20>
10005ca4:	0020      	movs	r0, r4
10005ca6:	3024      	adds	r0, #36	; 0x24
10005ca8:	f7fe ff12 	bl	10004ad0 <xTaskRemoveFromEventList>
10005cac:	2800      	cmp	r0, #0
10005cae:	d010      	beq.n	10005cd2 <xQueueGenericSendFromISR+0x7a>
10005cb0:	9a01      	ldr	r2, [sp, #4]
10005cb2:	2a00      	cmp	r2, #0
10005cb4:	d00f      	beq.n	10005cd6 <xQueueGenericSendFromISR+0x7e>
10005cb6:	2301      	movs	r3, #1
10005cb8:	6013      	str	r3, [r2, #0]
10005cba:	2401      	movs	r4, #1
10005cbc:	e7dc      	b.n	10005c78 <xQueueGenericSendFromISR+0x20>
10005cbe:	f7fe fca3 	bl	10004608 <uxTaskGetNumberOfTasks>
10005cc2:	4286      	cmp	r6, r0
10005cc4:	d209      	bcs.n	10005cda <xQueueGenericSendFromISR+0x82>
10005cc6:	1c73      	adds	r3, r6, #1
10005cc8:	b25b      	sxtb	r3, r3
10005cca:	2245      	movs	r2, #69	; 0x45
10005ccc:	54a3      	strb	r3, [r4, r2]
10005cce:	2401      	movs	r4, #1
10005cd0:	e7d2      	b.n	10005c78 <xQueueGenericSendFromISR+0x20>
10005cd2:	2401      	movs	r4, #1
10005cd4:	e7d0      	b.n	10005c78 <xQueueGenericSendFromISR+0x20>
10005cd6:	2401      	movs	r4, #1
10005cd8:	e7ce      	b.n	10005c78 <xQueueGenericSendFromISR+0x20>
10005cda:	2401      	movs	r4, #1
10005cdc:	e7cc      	b.n	10005c78 <xQueueGenericSendFromISR+0x20>

10005cde <xQueueGiveFromISR>:
10005cde:	b5f8      	push	{r3, r4, r5, r6, r7, lr}
10005ce0:	0004      	movs	r4, r0
10005ce2:	000e      	movs	r6, r1
10005ce4:	f7ff fd4a 	bl	1000577c <ulSetInterruptMaskFromISR>
10005ce8:	0005      	movs	r5, r0
10005cea:	6ba3      	ldr	r3, [r4, #56]	; 0x38
10005cec:	6be2      	ldr	r2, [r4, #60]	; 0x3c
10005cee:	429a      	cmp	r2, r3
10005cf0:	d921      	bls.n	10005d36 <xQueueGiveFromISR+0x58>
10005cf2:	2245      	movs	r2, #69	; 0x45
10005cf4:	5ca7      	ldrb	r7, [r4, r2]
10005cf6:	b27f      	sxtb	r7, r7
10005cf8:	3301      	adds	r3, #1
10005cfa:	63a3      	str	r3, [r4, #56]	; 0x38
10005cfc:	1c7b      	adds	r3, r7, #1
10005cfe:	d110      	bne.n	10005d22 <xQueueGiveFromISR+0x44>
10005d00:	6a63      	ldr	r3, [r4, #36]	; 0x24
10005d02:	2b00      	cmp	r3, #0
10005d04:	d101      	bne.n	10005d0a <xQueueGiveFromISR+0x2c>
10005d06:	2401      	movs	r4, #1
10005d08:	e016      	b.n	10005d38 <xQueueGiveFromISR+0x5a>
10005d0a:	0020      	movs	r0, r4
10005d0c:	3024      	adds	r0, #36	; 0x24
10005d0e:	f7fe fedf 	bl	10004ad0 <xTaskRemoveFromEventList>
10005d12:	2800      	cmp	r0, #0
10005d14:	d015      	beq.n	10005d42 <xQueueGiveFromISR+0x64>
10005d16:	2e00      	cmp	r6, #0
10005d18:	d015      	beq.n	10005d46 <xQueueGiveFromISR+0x68>
10005d1a:	2301      	movs	r3, #1
10005d1c:	6033      	str	r3, [r6, #0]
10005d1e:	2401      	movs	r4, #1
10005d20:	e00a      	b.n	10005d38 <xQueueGiveFromISR+0x5a>
10005d22:	f7fe fc71 	bl	10004608 <uxTaskGetNumberOfTasks>
10005d26:	4287      	cmp	r7, r0
10005d28:	d20f      	bcs.n	10005d4a <xQueueGiveFromISR+0x6c>
10005d2a:	3701      	adds	r7, #1
10005d2c:	b27f      	sxtb	r7, r7
10005d2e:	2345      	movs	r3, #69	; 0x45
10005d30:	54e7      	strb	r7, [r4, r3]
10005d32:	2401      	movs	r4, #1
10005d34:	e000      	b.n	10005d38 <xQueueGiveFromISR+0x5a>
10005d36:	2400      	movs	r4, #0
10005d38:	0028      	movs	r0, r5
10005d3a:	f7ff fd23 	bl	10005784 <vClearInterruptMaskFromISR>
10005d3e:	0020      	movs	r0, r4
10005d40:	bdf8      	pop	{r3, r4, r5, r6, r7, pc}
10005d42:	2401      	movs	r4, #1
10005d44:	e7f8      	b.n	10005d38 <xQueueGiveFromISR+0x5a>
10005d46:	2401      	movs	r4, #1
10005d48:	e7f6      	b.n	10005d38 <xQueueGiveFromISR+0x5a>
10005d4a:	2401      	movs	r4, #1
10005d4c:	e7f4      	b.n	10005d38 <xQueueGiveFromISR+0x5a>

10005d4e <xQueueReceive>:
10005d4e:	b5f0      	push	{r4, r5, r6, r7, lr}
10005d50:	b085      	sub	sp, #20
10005d52:	0004      	movs	r4, r0
10005d54:	000d      	movs	r5, r1
10005d56:	9201      	str	r2, [sp, #4]
10005d58:	2700      	movs	r7, #0
10005d5a:	e037      	b.n	10005dcc <xQueueReceive+0x7e>
10005d5c:	0029      	movs	r1, r5
10005d5e:	0020      	movs	r0, r4
10005d60:	f7ff fe0d 	bl	1000597e <prvCopyDataFromQueue>
10005d64:	3e01      	subs	r6, #1
10005d66:	63a6      	str	r6, [r4, #56]	; 0x38
10005d68:	6923      	ldr	r3, [r4, #16]
10005d6a:	2b00      	cmp	r3, #0
10005d6c:	d104      	bne.n	10005d78 <xQueueReceive+0x2a>
10005d6e:	f7ff fcfb 	bl	10005768 <vPortExitCritical>
10005d72:	2001      	movs	r0, #1
10005d74:	b005      	add	sp, #20
10005d76:	bdf0      	pop	{r4, r5, r6, r7, pc}
10005d78:	0020      	movs	r0, r4
10005d7a:	3010      	adds	r0, #16
10005d7c:	f7fe fea8 	bl	10004ad0 <xTaskRemoveFromEventList>
10005d80:	2800      	cmp	r0, #0
10005d82:	d0f4      	beq.n	10005d6e <xQueueReceive+0x20>
10005d84:	f7ff fcd8 	bl	10005738 <vPortYield>
10005d88:	e7f1      	b.n	10005d6e <xQueueReceive+0x20>
10005d8a:	f7ff fced 	bl	10005768 <vPortExitCritical>
10005d8e:	2000      	movs	r0, #0
10005d90:	e7f0      	b.n	10005d74 <xQueueReceive+0x26>
10005d92:	a802      	add	r0, sp, #8
10005d94:	f7fe ff6c 	bl	10004c70 <vTaskInternalSetTimeOutState>
10005d98:	3701      	adds	r7, #1
10005d9a:	e021      	b.n	10005de0 <xQueueReceive+0x92>
10005d9c:	2344      	movs	r3, #68	; 0x44
10005d9e:	2200      	movs	r2, #0
10005da0:	54e2      	strb	r2, [r4, r3]
10005da2:	e028      	b.n	10005df6 <xQueueReceive+0xa8>
10005da4:	2345      	movs	r3, #69	; 0x45
10005da6:	2200      	movs	r2, #0
10005da8:	54e2      	strb	r2, [r4, r3]
10005daa:	e029      	b.n	10005e00 <xQueueReceive+0xb2>
10005dac:	0020      	movs	r0, r4
10005dae:	f7ff fdf8 	bl	100059a2 <prvUnlockQueue>
10005db2:	f7fe fccf 	bl	10004754 <xTaskResumeAll>
10005db6:	e009      	b.n	10005dcc <xQueueReceive+0x7e>
10005db8:	0020      	movs	r0, r4
10005dba:	f7ff fdf2 	bl	100059a2 <prvUnlockQueue>
10005dbe:	f7fe fcc9 	bl	10004754 <xTaskResumeAll>
10005dc2:	0020      	movs	r0, r4
10005dc4:	f7ff fd9d 	bl	10005902 <prvIsQueueEmpty>
10005dc8:	2800      	cmp	r0, #0
10005dca:	d135      	bne.n	10005e38 <xQueueReceive+0xea>
10005dcc:	f7ff fcc0 	bl	10005750 <vPortEnterCritical>
10005dd0:	6ba6      	ldr	r6, [r4, #56]	; 0x38
10005dd2:	2e00      	cmp	r6, #0
10005dd4:	d1c2      	bne.n	10005d5c <xQueueReceive+0xe>
10005dd6:	9b01      	ldr	r3, [sp, #4]
10005dd8:	2b00      	cmp	r3, #0
10005dda:	d0d6      	beq.n	10005d8a <xQueueReceive+0x3c>
10005ddc:	2f00      	cmp	r7, #0
10005dde:	d0d8      	beq.n	10005d92 <xQueueReceive+0x44>
10005de0:	f7ff fcc2 	bl	10005768 <vPortExitCritical>
10005de4:	f7fe fbfc 	bl	100045e0 <vTaskSuspendAll>
10005de8:	f7ff fcb2 	bl	10005750 <vPortEnterCritical>
10005dec:	2344      	movs	r3, #68	; 0x44
10005dee:	5ce3      	ldrb	r3, [r4, r3]
10005df0:	b25b      	sxtb	r3, r3
10005df2:	3301      	adds	r3, #1
10005df4:	d0d2      	beq.n	10005d9c <xQueueReceive+0x4e>
10005df6:	2345      	movs	r3, #69	; 0x45
10005df8:	5ce3      	ldrb	r3, [r4, r3]
10005dfa:	b25b      	sxtb	r3, r3
10005dfc:	3301      	adds	r3, #1
10005dfe:	d0d1      	beq.n	10005da4 <xQueueReceive+0x56>
10005e00:	f7ff fcb2 	bl	10005768 <vPortExitCritical>
10005e04:	a901      	add	r1, sp, #4
10005e06:	a802      	add	r0, sp, #8
10005e08:	f7fe ff3a 	bl	10004c80 <xTaskCheckForTimeOut>
10005e0c:	2800      	cmp	r0, #0
10005e0e:	d1d3      	bne.n	10005db8 <xQueueReceive+0x6a>
10005e10:	0020      	movs	r0, r4
10005e12:	f7ff fd76 	bl	10005902 <prvIsQueueEmpty>
10005e16:	2800      	cmp	r0, #0
10005e18:	d0c8      	beq.n	10005dac <xQueueReceive+0x5e>
10005e1a:	0020      	movs	r0, r4
10005e1c:	3024      	adds	r0, #36	; 0x24
10005e1e:	9901      	ldr	r1, [sp, #4]
10005e20:	f7fe fe08 	bl	10004a34 <vTaskPlaceOnEventList>
10005e24:	0020      	movs	r0, r4
10005e26:	f7ff fdbc 	bl	100059a2 <prvUnlockQueue>
10005e2a:	f7fe fc93 	bl	10004754 <xTaskResumeAll>
10005e2e:	2800      	cmp	r0, #0
10005e30:	d1cc      	bne.n	10005dcc <xQueueReceive+0x7e>
10005e32:	f7ff fc81 	bl	10005738 <vPortYield>
10005e36:	e7c9      	b.n	10005dcc <xQueueReceive+0x7e>
10005e38:	2000      	movs	r0, #0
10005e3a:	e79b      	b.n	10005d74 <xQueueReceive+0x26>

10005e3c <xQueueSemaphoreTake>:
10005e3c:	b530      	push	{r4, r5, lr}
10005e3e:	b085      	sub	sp, #20
10005e40:	0004      	movs	r4, r0
10005e42:	9101      	str	r1, [sp, #4]
10005e44:	2500      	movs	r5, #0
10005e46:	e033      	b.n	10005eb0 <xQueueSemaphoreTake+0x74>
10005e48:	3b01      	subs	r3, #1
10005e4a:	63a3      	str	r3, [r4, #56]	; 0x38
10005e4c:	6923      	ldr	r3, [r4, #16]
10005e4e:	2b00      	cmp	r3, #0
10005e50:	d104      	bne.n	10005e5c <xQueueSemaphoreTake+0x20>
10005e52:	f7ff fc89 	bl	10005768 <vPortExitCritical>
10005e56:	2001      	movs	r0, #1
10005e58:	b005      	add	sp, #20
10005e5a:	bd30      	pop	{r4, r5, pc}
10005e5c:	0020      	movs	r0, r4
10005e5e:	3010      	adds	r0, #16
10005e60:	f7fe fe36 	bl	10004ad0 <xTaskRemoveFromEventList>
10005e64:	2800      	cmp	r0, #0
10005e66:	d0f4      	beq.n	10005e52 <xQueueSemaphoreTake+0x16>
10005e68:	f7ff fc66 	bl	10005738 <vPortYield>
10005e6c:	e7f1      	b.n	10005e52 <xQueueSemaphoreTake+0x16>
10005e6e:	f7ff fc7b 	bl	10005768 <vPortExitCritical>
10005e72:	2000      	movs	r0, #0
10005e74:	e7f0      	b.n	10005e58 <xQueueSemaphoreTake+0x1c>
10005e76:	a802      	add	r0, sp, #8
10005e78:	f7fe fefa 	bl	10004c70 <vTaskInternalSetTimeOutState>
10005e7c:	3501      	adds	r5, #1
10005e7e:	e021      	b.n	10005ec4 <xQueueSemaphoreTake+0x88>
10005e80:	2344      	movs	r3, #68	; 0x44
10005e82:	2200      	movs	r2, #0
10005e84:	54e2      	strb	r2, [r4, r3]
10005e86:	e028      	b.n	10005eda <xQueueSemaphoreTake+0x9e>
10005e88:	2345      	movs	r3, #69	; 0x45
10005e8a:	2200      	movs	r2, #0
10005e8c:	54e2      	strb	r2, [r4, r3]
10005e8e:	e029      	b.n	10005ee4 <xQueueSemaphoreTake+0xa8>
10005e90:	0020      	movs	r0, r4
10005e92:	f7ff fd86 	bl	100059a2 <prvUnlockQueue>
10005e96:	f7fe fc5d 	bl	10004754 <xTaskResumeAll>
10005e9a:	e009      	b.n	10005eb0 <xQueueSemaphoreTake+0x74>
10005e9c:	0020      	movs	r0, r4
10005e9e:	f7ff fd80 	bl	100059a2 <prvUnlockQueue>
10005ea2:	f7fe fc57 	bl	10004754 <xTaskResumeAll>
10005ea6:	0020      	movs	r0, r4
10005ea8:	f7ff fd2b 	bl	10005902 <prvIsQueueEmpty>
10005eac:	2800      	cmp	r0, #0
10005eae:	d135      	bne.n	10005f1c <xQueueSemaphoreTake+0xe0>
10005eb0:	f7ff fc4e 	bl	10005750 <vPortEnterCritical>
10005eb4:	6ba3      	ldr	r3, [r4, #56]	; 0x38
10005eb6:	2b00      	cmp	r3, #0
10005eb8:	d1c6      	bne.n	10005e48 <xQueueSemaphoreTake+0xc>
10005eba:	9b01      	ldr	r3, [sp, #4]
10005ebc:	2b00      	cmp	r3, #0
10005ebe:	d0d6      	beq.n	10005e6e <xQueueSemaphoreTake+0x32>
10005ec0:	2d00      	cmp	r5, #0
10005ec2:	d0d8      	beq.n	10005e76 <xQueueSemaphoreTake+0x3a>
10005ec4:	f7ff fc50 	bl	10005768 <vPortExitCritical>
10005ec8:	f7fe fb8a 	bl	100045e0 <vTaskSuspendAll>
10005ecc:	f7ff fc40 	bl	10005750 <vPortEnterCritical>
10005ed0:	2344      	movs	r3, #68	; 0x44
10005ed2:	5ce3      	ldrb	r3, [r4, r3]
10005ed4:	b25b      	sxtb	r3, r3
10005ed6:	3301      	adds	r3, #1
10005ed8:	d0d2      	beq.n	10005e80 <xQueueSemaphoreTake+0x44>
10005eda:	2345      	movs	r3, #69	; 0x45
10005edc:	5ce3      	ldrb	r3, [r4, r3]
10005ede:	b25b      	sxtb	r3, r3
10005ee0:	3301      	adds	r3, #1
10005ee2:	d0d1      	beq.n	10005e88 <xQueueSemaphoreTake+0x4c>
10005ee4:	f7ff fc40 	bl	10005768 <vPortExitCritical>
10005ee8:	a901      	add	r1, sp, #4
10005eea:	a802      	add	r0, sp, #8
10005eec:	f7fe fec8 	bl	10004c80 <xTaskCheckForTimeOut>
10005ef0:	2800      	cmp	r0, #0
10005ef2:	d1d3      	bne.n	10005e9c <xQueueSemaphoreTake+0x60>
10005ef4:	0020      	movs	r0, r4
10005ef6:	f7ff fd04 	bl	10005902 <prvIsQueueEmpty>
10005efa:	2800      	cmp	r0, #0
10005efc:	d0c8      	beq.n	10005e90 <xQueueSemaphoreTake+0x54>
10005efe:	0020      	movs	r0, r4
10005f00:	3024      	adds	r0, #36	; 0x24
10005f02:	9901      	ldr	r1, [sp, #4]
10005f04:	f7fe fd96 	bl	10004a34 <vTaskPlaceOnEventList>
10005f08:	0020      	movs	r0, r4
10005f0a:	f7ff fd4a 	bl	100059a2 <prvUnlockQueue>
10005f0e:	f7fe fc21 	bl	10004754 <xTaskResumeAll>
10005f12:	2800      	cmp	r0, #0
10005f14:	d1cc      	bne.n	10005eb0 <xQueueSemaphoreTake+0x74>
10005f16:	f7ff fc0f 	bl	10005738 <vPortYield>
10005f1a:	e7c9      	b.n	10005eb0 <xQueueSemaphoreTake+0x74>
10005f1c:	2000      	movs	r0, #0
10005f1e:	e79b      	b.n	10005e58 <xQueueSemaphoreTake+0x1c>

10005f20 <xQueuePeek>:
10005f20:	b570      	push	{r4, r5, r6, lr}
10005f22:	b084      	sub	sp, #16
10005f24:	0004      	movs	r4, r0
10005f26:	000d      	movs	r5, r1
10005f28:	9201      	str	r2, [sp, #4]
10005f2a:	2600      	movs	r6, #0
10005f2c:	e037      	b.n	10005f9e <xQueuePeek+0x7e>
10005f2e:	68e6      	ldr	r6, [r4, #12]
10005f30:	0029      	movs	r1, r5
10005f32:	0020      	movs	r0, r4
10005f34:	f7ff fd23 	bl	1000597e <prvCopyDataFromQueue>
10005f38:	60e6      	str	r6, [r4, #12]
10005f3a:	6a63      	ldr	r3, [r4, #36]	; 0x24
10005f3c:	2b00      	cmp	r3, #0
10005f3e:	d104      	bne.n	10005f4a <xQueuePeek+0x2a>
10005f40:	f7ff fc12 	bl	10005768 <vPortExitCritical>
10005f44:	2001      	movs	r0, #1
10005f46:	b004      	add	sp, #16
10005f48:	bd70      	pop	{r4, r5, r6, pc}
10005f4a:	0020      	movs	r0, r4
10005f4c:	3024      	adds	r0, #36	; 0x24
10005f4e:	f7fe fdbf 	bl	10004ad0 <xTaskRemoveFromEventList>
10005f52:	2800      	cmp	r0, #0
10005f54:	d0f4      	beq.n	10005f40 <xQueuePeek+0x20>
10005f56:	f7ff fbef 	bl	10005738 <vPortYield>
10005f5a:	e7f1      	b.n	10005f40 <xQueuePeek+0x20>
10005f5c:	f7ff fc04 	bl	10005768 <vPortExitCritical>
10005f60:	2000      	movs	r0, #0
10005f62:	e7f0      	b.n	10005f46 <xQueuePeek+0x26>
10005f64:	a802      	add	r0, sp, #8
10005f66:	f7fe fe83 	bl	10004c70 <vTaskInternalSetTimeOutState>
10005f6a:	3601      	adds	r6, #1
10005f6c:	e021      	b.n	10005fb2 <xQueuePeek+0x92>
10005f6e:	2344      	movs	r3, #68	; 0x44
10005f70:	2200      	movs	r2, #0
10005f72:	54e2      	strb	r2, [r4, r3]
10005f74:	e028      	b.n	10005fc8 <xQueuePeek+0xa8>
10005f76:	2345      	movs	r3, #69	; 0x45
10005f78:	2200      	movs	r2, #0
10005f7a:	54e2      	strb	r2, [r4, r3]
10005f7c:	e029      	b.n	10005fd2 <xQueuePeek+0xb2>
10005f7e:	0020      	movs	r0, r4
10005f80:	f7ff fd0f 	bl	100059a2 <prvUnlockQueue>
10005f84:	f7fe fbe6 	bl	10004754 <xTaskResumeAll>
10005f88:	e009      	b.n	10005f9e <xQueuePeek+0x7e>
10005f8a:	0020      	movs	r0, r4
10005f8c:	f7ff fd09 	bl	100059a2 <prvUnlockQueue>
10005f90:	f7fe fbe0 	bl	10004754 <xTaskResumeAll>
10005f94:	0020      	movs	r0, r4
10005f96:	f7ff fcb4 	bl	10005902 <prvIsQueueEmpty>
10005f9a:	2800      	cmp	r0, #0
10005f9c:	d135      	bne.n	1000600a <xQueuePeek+0xea>
10005f9e:	f7ff fbd7 	bl	10005750 <vPortEnterCritical>
10005fa2:	6ba3      	ldr	r3, [r4, #56]	; 0x38
10005fa4:	2b00      	cmp	r3, #0
10005fa6:	d1c2      	bne.n	10005f2e <xQueuePeek+0xe>
10005fa8:	9b01      	ldr	r3, [sp, #4]
10005faa:	2b00      	cmp	r3, #0
10005fac:	d0d6      	beq.n	10005f5c <xQueuePeek+0x3c>
10005fae:	2e00      	cmp	r6, #0
10005fb0:	d0d8      	beq.n	10005f64 <xQueuePeek+0x44>
10005fb2:	f7ff fbd9 	bl	10005768 <vPortExitCritical>
10005fb6:	f7fe fb13 	bl	100045e0 <vTaskSuspendAll>
10005fba:	f7ff fbc9 	bl	10005750 <vPortEnterCritical>
10005fbe:	2344      	movs	r3, #68	; 0x44
10005fc0:	5ce3      	ldrb	r3, [r4, r3]
10005fc2:	b25b      	sxtb	r3, r3
10005fc4:	3301      	adds	r3, #1
10005fc6:	d0d2      	beq.n	10005f6e <xQueuePeek+0x4e>
10005fc8:	2345      	movs	r3, #69	; 0x45
10005fca:	5ce3      	ldrb	r3, [r4, r3]
10005fcc:	b25b      	sxtb	r3, r3
10005fce:	3301      	adds	r3, #1
10005fd0:	d0d1      	beq.n	10005f76 <xQueuePeek+0x56>
10005fd2:	f7ff fbc9 	bl	10005768 <vPortExitCritical>
10005fd6:	a901      	add	r1, sp, #4
10005fd8:	a802      	add	r0, sp, #8
10005fda:	f7fe fe51 	bl	10004c80 <xTaskCheckForTimeOut>
10005fde:	2800      	cmp	r0, #0
10005fe0:	d1d3      	bne.n	10005f8a <xQueuePeek+0x6a>
10005fe2:	0020      	movs	r0, r4
10005fe4:	f7ff fc8d 	bl	10005902 <prvIsQueueEmpty>
10005fe8:	2800      	cmp	r0, #0
10005fea:	d0c8      	beq.n	10005f7e <xQueuePeek+0x5e>
10005fec:	0020      	movs	r0, r4
10005fee:	3024      	adds	r0, #36	; 0x24
10005ff0:	9901      	ldr	r1, [sp, #4]
10005ff2:	f7fe fd1f 	bl	10004a34 <vTaskPlaceOnEventList>
10005ff6:	0020      	movs	r0, r4
10005ff8:	f7ff fcd3 	bl	100059a2 <prvUnlockQueue>
10005ffc:	f7fe fbaa 	bl	10004754 <xTaskResumeAll>
10006000:	2800      	cmp	r0, #0
10006002:	d1cc      	bne.n	10005f9e <xQueuePeek+0x7e>
10006004:	f7ff fb98 	bl	10005738 <vPortYield>
10006008:	e7c9      	b.n	10005f9e <xQueuePeek+0x7e>
1000600a:	2000      	movs	r0, #0
1000600c:	e79b      	b.n	10005f46 <xQueuePeek+0x26>

1000600e <xQueueReceiveFromISR>:
1000600e:	b5f0      	push	{r4, r5, r6, r7, lr}
10006010:	b083      	sub	sp, #12
10006012:	0004      	movs	r4, r0
10006014:	9100      	str	r1, [sp, #0]
10006016:	9201      	str	r2, [sp, #4]
10006018:	f7ff fbb0 	bl	1000577c <ulSetInterruptMaskFromISR>
1000601c:	0005      	movs	r5, r0
1000601e:	6ba6      	ldr	r6, [r4, #56]	; 0x38
10006020:	2e00      	cmp	r6, #0
10006022:	d106      	bne.n	10006032 <xQueueReceiveFromISR+0x24>
10006024:	2400      	movs	r4, #0
10006026:	0028      	movs	r0, r5
10006028:	f7ff fbac 	bl	10005784 <vClearInterruptMaskFromISR>
1000602c:	0020      	movs	r0, r4
1000602e:	b003      	add	sp, #12
10006030:	bdf0      	pop	{r4, r5, r6, r7, pc}
10006032:	2344      	movs	r3, #68	; 0x44
10006034:	5ce7      	ldrb	r7, [r4, r3]
10006036:	b27f      	sxtb	r7, r7
10006038:	9900      	ldr	r1, [sp, #0]
1000603a:	0020      	movs	r0, r4
1000603c:	f7ff fc9f 	bl	1000597e <prvCopyDataFromQueue>
10006040:	1e73      	subs	r3, r6, #1
10006042:	63a3      	str	r3, [r4, #56]	; 0x38
10006044:	1c7b      	adds	r3, r7, #1
10006046:	d111      	bne.n	1000606c <xQueueReceiveFromISR+0x5e>
10006048:	6923      	ldr	r3, [r4, #16]
1000604a:	2b00      	cmp	r3, #0
1000604c:	d101      	bne.n	10006052 <xQueueReceiveFromISR+0x44>
1000604e:	2401      	movs	r4, #1
10006050:	e7e9      	b.n	10006026 <xQueueReceiveFromISR+0x18>
10006052:	0020      	movs	r0, r4
10006054:	3010      	adds	r0, #16
10006056:	f7fe fd3b 	bl	10004ad0 <xTaskRemoveFromEventList>
1000605a:	2800      	cmp	r0, #0
1000605c:	d010      	beq.n	10006080 <xQueueReceiveFromISR+0x72>
1000605e:	9a01      	ldr	r2, [sp, #4]
10006060:	2a00      	cmp	r2, #0
10006062:	d00f      	beq.n	10006084 <xQueueReceiveFromISR+0x76>
10006064:	2301      	movs	r3, #1
10006066:	6013      	str	r3, [r2, #0]
10006068:	2401      	movs	r4, #1
1000606a:	e7dc      	b.n	10006026 <xQueueReceiveFromISR+0x18>
1000606c:	f7fe facc 	bl	10004608 <uxTaskGetNumberOfTasks>
10006070:	4287      	cmp	r7, r0
10006072:	d209      	bcs.n	10006088 <xQueueReceiveFromISR+0x7a>
10006074:	1c7b      	adds	r3, r7, #1
10006076:	b25b      	sxtb	r3, r3
10006078:	2244      	movs	r2, #68	; 0x44
1000607a:	54a3      	strb	r3, [r4, r2]
1000607c:	2401      	movs	r4, #1
1000607e:	e7d2      	b.n	10006026 <xQueueReceiveFromISR+0x18>
10006080:	2401      	movs	r4, #1
10006082:	e7d0      	b.n	10006026 <xQueueReceiveFromISR+0x18>
10006084:	2401      	movs	r4, #1
10006086:	e7ce      	b.n	10006026 <xQueueReceiveFromISR+0x18>
10006088:	2401      	movs	r4, #1
1000608a:	e7cc      	b.n	10006026 <xQueueReceiveFromISR+0x18>

1000608c <xQueuePeekFromISR>:
1000608c:	b5f8      	push	{r3, r4, r5, r6, r7, lr}
1000608e:	0004      	movs	r4, r0
10006090:	000e      	movs	r6, r1
10006092:	f7ff fb73 	bl	1000577c <ulSetInterruptMaskFromISR>
10006096:	0005      	movs	r5, r0
10006098:	6ba3      	ldr	r3, [r4, #56]	; 0x38
1000609a:	2b00      	cmp	r3, #0
1000609c:	d105      	bne.n	100060aa <xQueuePeekFromISR+0x1e>
1000609e:	2400      	movs	r4, #0
100060a0:	0028      	movs	r0, r5
100060a2:	f7ff fb6f 	bl	10005784 <vClearInterruptMaskFromISR>
100060a6:	0020      	movs	r0, r4
100060a8:	bdf8      	pop	{r3, r4, r5, r6, r7, pc}
100060aa:	68e7      	ldr	r7, [r4, #12]
100060ac:	0031      	movs	r1, r6
100060ae:	0020      	movs	r0, r4
100060b0:	f7ff fc65 	bl	1000597e <prvCopyDataFromQueue>
100060b4:	60e7      	str	r7, [r4, #12]
100060b6:	2401      	movs	r4, #1
100060b8:	e7f2      	b.n	100060a0 <xQueuePeekFromISR+0x14>

100060ba <uxQueueMessagesWaiting>:
100060ba:	b510      	push	{r4, lr}
100060bc:	0004      	movs	r4, r0
100060be:	f7ff fb47 	bl	10005750 <vPortEnterCritical>
100060c2:	6ba4      	ldr	r4, [r4, #56]	; 0x38
100060c4:	f7ff fb50 	bl	10005768 <vPortExitCritical>
100060c8:	0020      	movs	r0, r4
100060ca:	bd10      	pop	{r4, pc}

100060cc <uxQueueSpacesAvailable>:
100060cc:	b510      	push	{r4, lr}
100060ce:	0004      	movs	r4, r0
100060d0:	f7ff fb3e 	bl	10005750 <vPortEnterCritical>
100060d4:	6be3      	ldr	r3, [r4, #60]	; 0x3c
100060d6:	6ba4      	ldr	r4, [r4, #56]	; 0x38
100060d8:	1b1c      	subs	r4, r3, r4
100060da:	f7ff fb45 	bl	10005768 <vPortExitCritical>
100060de:	0020      	movs	r0, r4
100060e0:	bd10      	pop	{r4, pc}

100060e2 <uxQueueMessagesWaitingFromISR>:
100060e2:	6b80      	ldr	r0, [r0, #56]	; 0x38
100060e4:	4770      	bx	lr

100060e6 <xQueueIsQueueEmptyFromISR>:
100060e6:	6b83      	ldr	r3, [r0, #56]	; 0x38
100060e8:	2b00      	cmp	r3, #0
100060ea:	d101      	bne.n	100060f0 <xQueueIsQueueEmptyFromISR+0xa>
100060ec:	2001      	movs	r0, #1
100060ee:	4770      	bx	lr
100060f0:	2000      	movs	r0, #0
100060f2:	e7fc      	b.n	100060ee <xQueueIsQueueEmptyFromISR+0x8>

100060f4 <xQueueIsQueueFullFromISR>:
100060f4:	6b82      	ldr	r2, [r0, #56]	; 0x38
100060f6:	6bc3      	ldr	r3, [r0, #60]	; 0x3c
100060f8:	429a      	cmp	r2, r3
100060fa:	d001      	beq.n	10006100 <xQueueIsQueueFullFromISR+0xc>
100060fc:	2000      	movs	r0, #0
100060fe:	4770      	bx	lr
10006100:	2001      	movs	r0, #1
10006102:	e7fc      	b.n	100060fe <xQueueIsQueueFullFromISR+0xa>

10006104 <vQueueAddToRegistry>:
10006104:	b530      	push	{r4, r5, lr}
10006106:	2900      	cmp	r1, #0
10006108:	d008      	beq.n	1000611c <vQueueAddToRegistry+0x18>
1000610a:	2500      	movs	r5, #0
1000610c:	2300      	movs	r3, #0
1000610e:	e007      	b.n	10006120 <vQueueAddToRegistry+0x1c>
10006110:	4d0c      	ldr	r5, [pc, #48]	; (10006144 <vQueueAddToRegistry+0x40>)
10006112:	192d      	adds	r5, r5, r4
10006114:	2d00      	cmp	r5, #0
10006116:	d001      	beq.n	1000611c <vQueueAddToRegistry+0x18>
10006118:	6029      	str	r1, [r5, #0]
1000611a:	6068      	str	r0, [r5, #4]
1000611c:	bd30      	pop	{r4, r5, pc}
1000611e:	3301      	adds	r3, #1
10006120:	2b09      	cmp	r3, #9
10006122:	d8f7      	bhi.n	10006114 <vQueueAddToRegistry+0x10>
10006124:	00dc      	lsls	r4, r3, #3
10006126:	4a07      	ldr	r2, [pc, #28]	; (10006144 <vQueueAddToRegistry+0x40>)
10006128:	1912      	adds	r2, r2, r4
1000612a:	6852      	ldr	r2, [r2, #4]
1000612c:	4282      	cmp	r2, r0
1000612e:	d0ef      	beq.n	10006110 <vQueueAddToRegistry+0xc>
10006130:	2d00      	cmp	r5, #0
10006132:	d1f4      	bne.n	1000611e <vQueueAddToRegistry+0x1a>
10006134:	00da      	lsls	r2, r3, #3
10006136:	4c03      	ldr	r4, [pc, #12]	; (10006144 <vQueueAddToRegistry+0x40>)
10006138:	5912      	ldr	r2, [r2, r4]
1000613a:	2a00      	cmp	r2, #0
1000613c:	d1ef      	bne.n	1000611e <vQueueAddToRegistry+0x1a>
1000613e:	00da      	lsls	r2, r3, #3
10006140:	18a5      	adds	r5, r4, r2
10006142:	e7ec      	b.n	1000611e <vQueueAddToRegistry+0x1a>
10006144:	20000d24 	.word	0x20000d24

10006148 <pcQueueGetName>:
10006148:	2300      	movs	r3, #0
1000614a:	2b09      	cmp	r3, #9
1000614c:	d80a      	bhi.n	10006164 <pcQueueGetName+0x1c>
1000614e:	00d9      	lsls	r1, r3, #3
10006150:	4a05      	ldr	r2, [pc, #20]	; (10006168 <pcQueueGetName+0x20>)
10006152:	1852      	adds	r2, r2, r1
10006154:	6852      	ldr	r2, [r2, #4]
10006156:	4282      	cmp	r2, r0
10006158:	d001      	beq.n	1000615e <pcQueueGetName+0x16>
1000615a:	3301      	adds	r3, #1
1000615c:	e7f5      	b.n	1000614a <pcQueueGetName+0x2>
1000615e:	4a02      	ldr	r2, [pc, #8]	; (10006168 <pcQueueGetName+0x20>)
10006160:	5888      	ldr	r0, [r1, r2]
10006162:	e000      	b.n	10006166 <pcQueueGetName+0x1e>
10006164:	2000      	movs	r0, #0
10006166:	4770      	bx	lr
10006168:	20000d24 	.word	0x20000d24

1000616c <vQueueUnregisterQueue>:
1000616c:	2300      	movs	r3, #0
1000616e:	2b09      	cmp	r3, #9
10006170:	d80d      	bhi.n	1000618e <vQueueUnregisterQueue+0x22>
10006172:	00d9      	lsls	r1, r3, #3
10006174:	4a06      	ldr	r2, [pc, #24]	; (10006190 <vQueueUnregisterQueue+0x24>)
10006176:	1852      	adds	r2, r2, r1
10006178:	6852      	ldr	r2, [r2, #4]
1000617a:	4282      	cmp	r2, r0
1000617c:	d001      	beq.n	10006182 <vQueueUnregisterQueue+0x16>
1000617e:	3301      	adds	r3, #1
10006180:	e7f5      	b.n	1000616e <vQueueUnregisterQueue+0x2>
10006182:	4a03      	ldr	r2, [pc, #12]	; (10006190 <vQueueUnregisterQueue+0x24>)
10006184:	000b      	movs	r3, r1
10006186:	2100      	movs	r1, #0
10006188:	5099      	str	r1, [r3, r2]
1000618a:	18d3      	adds	r3, r2, r3
1000618c:	6059      	str	r1, [r3, #4]
1000618e:	4770      	bx	lr
10006190:	20000d24 	.word	0x20000d24

10006194 <vQueueDelete>:
10006194:	b510      	push	{r4, lr}
10006196:	0004      	movs	r4, r0
10006198:	f7ff ffe8 	bl	1000616c <vQueueUnregisterQueue>
1000619c:	0020      	movs	r0, r4
1000619e:	f7ff fa87 	bl	100056b0 <vPortFree>
100061a2:	bd10      	pop	{r4, pc}

100061a4 <vQueueWaitForMessageRestricted>:
100061a4:	b570      	push	{r4, r5, r6, lr}
100061a6:	0004      	movs	r4, r0
100061a8:	000d      	movs	r5, r1
100061aa:	0016      	movs	r6, r2
100061ac:	f7ff fad0 	bl	10005750 <vPortEnterCritical>
100061b0:	2344      	movs	r3, #68	; 0x44
100061b2:	5ce3      	ldrb	r3, [r4, r3]
100061b4:	b25b      	sxtb	r3, r3
100061b6:	3301      	adds	r3, #1
100061b8:	d00d      	beq.n	100061d6 <vQueueWaitForMessageRestricted+0x32>
100061ba:	2345      	movs	r3, #69	; 0x45
100061bc:	5ce3      	ldrb	r3, [r4, r3]
100061be:	b25b      	sxtb	r3, r3
100061c0:	3301      	adds	r3, #1
100061c2:	d00c      	beq.n	100061de <vQueueWaitForMessageRestricted+0x3a>
100061c4:	f7ff fad0 	bl	10005768 <vPortExitCritical>
100061c8:	6ba3      	ldr	r3, [r4, #56]	; 0x38
100061ca:	2b00      	cmp	r3, #0
100061cc:	d00b      	beq.n	100061e6 <vQueueWaitForMessageRestricted+0x42>
100061ce:	0020      	movs	r0, r4
100061d0:	f7ff fbe7 	bl	100059a2 <prvUnlockQueue>
100061d4:	bd70      	pop	{r4, r5, r6, pc}
100061d6:	2344      	movs	r3, #68	; 0x44
100061d8:	2200      	movs	r2, #0
100061da:	54e2      	strb	r2, [r4, r3]
100061dc:	e7ed      	b.n	100061ba <vQueueWaitForMessageRestricted+0x16>
100061de:	2345      	movs	r3, #69	; 0x45
100061e0:	2200      	movs	r2, #0
100061e2:	54e2      	strb	r2, [r4, r3]
100061e4:	e7ee      	b.n	100061c4 <vQueueWaitForMessageRestricted+0x20>
100061e6:	0020      	movs	r0, r4
100061e8:	3024      	adds	r0, #36	; 0x24
100061ea:	0032      	movs	r2, r6
100061ec:	0029      	movs	r1, r5
100061ee:	f7fe fc4f 	bl	10004a90 <vTaskPlaceOnEventListRestricted>
100061f2:	e7ec      	b.n	100061ce <vQueueWaitForMessageRestricted+0x2a>

100061f4 <malloc>:
100061f4:	b510      	push	{r4, lr}
100061f6:	4b03      	ldr	r3, [pc, #12]	; (10006204 <malloc+0x10>)
100061f8:	0001      	movs	r1, r0
100061fa:	6818      	ldr	r0, [r3, #0]
100061fc:	f000 f80e 	bl	1000621c <_malloc_r>
10006200:	bd10      	pop	{r4, pc}
10006202:	46c0      	nop			; (mov r8, r8)
10006204:	2000026c 	.word	0x2000026c

10006208 <free>:
10006208:	b510      	push	{r4, lr}
1000620a:	4b03      	ldr	r3, [pc, #12]	; (10006218 <free+0x10>)
1000620c:	0001      	movs	r1, r0
1000620e:	6818      	ldr	r0, [r3, #0]
10006210:	f000 fb64 	bl	100068dc <_free_r>
10006214:	bd10      	pop	{r4, pc}
10006216:	46c0      	nop			; (mov r8, r8)
10006218:	2000026c 	.word	0x2000026c

1000621c <_malloc_r>:
1000621c:	b5f0      	push	{r4, r5, r6, r7, lr}
1000621e:	464e      	mov	r6, r9
10006220:	4645      	mov	r5, r8
10006222:	46de      	mov	lr, fp
10006224:	4657      	mov	r7, sl
10006226:	b5e0      	push	{r5, r6, r7, lr}
10006228:	000d      	movs	r5, r1
1000622a:	350b      	adds	r5, #11
1000622c:	0006      	movs	r6, r0
1000622e:	b083      	sub	sp, #12
10006230:	2d16      	cmp	r5, #22
10006232:	d822      	bhi.n	1000627a <_malloc_r+0x5e>
10006234:	2910      	cmp	r1, #16
10006236:	d900      	bls.n	1000623a <_malloc_r+0x1e>
10006238:	e0b2      	b.n	100063a0 <_malloc_r+0x184>
1000623a:	f000 fab1 	bl	100067a0 <__malloc_lock>
1000623e:	2510      	movs	r5, #16
10006240:	2318      	movs	r3, #24
10006242:	2002      	movs	r0, #2
10006244:	4fcc      	ldr	r7, [pc, #816]	; (10006578 <_malloc_r+0x35c>)
10006246:	18fb      	adds	r3, r7, r3
10006248:	001a      	movs	r2, r3
1000624a:	685c      	ldr	r4, [r3, #4]
1000624c:	3a08      	subs	r2, #8
1000624e:	4294      	cmp	r4, r2
10006250:	d100      	bne.n	10006254 <_malloc_r+0x38>
10006252:	e0b5      	b.n	100063c0 <_malloc_r+0x1a4>
10006254:	2303      	movs	r3, #3
10006256:	6862      	ldr	r2, [r4, #4]
10006258:	439a      	bics	r2, r3
1000625a:	0013      	movs	r3, r2
1000625c:	68e2      	ldr	r2, [r4, #12]
1000625e:	68a1      	ldr	r1, [r4, #8]
10006260:	60ca      	str	r2, [r1, #12]
10006262:	6091      	str	r1, [r2, #8]
10006264:	2201      	movs	r2, #1
10006266:	18e3      	adds	r3, r4, r3
10006268:	6859      	ldr	r1, [r3, #4]
1000626a:	0030      	movs	r0, r6
1000626c:	430a      	orrs	r2, r1
1000626e:	605a      	str	r2, [r3, #4]
10006270:	f000 fa9e 	bl	100067b0 <__malloc_unlock>
10006274:	0020      	movs	r0, r4
10006276:	3008      	adds	r0, #8
10006278:	e095      	b.n	100063a6 <_malloc_r+0x18a>
1000627a:	2307      	movs	r3, #7
1000627c:	439d      	bics	r5, r3
1000627e:	d500      	bpl.n	10006282 <_malloc_r+0x66>
10006280:	e08e      	b.n	100063a0 <_malloc_r+0x184>
10006282:	42a9      	cmp	r1, r5
10006284:	d900      	bls.n	10006288 <_malloc_r+0x6c>
10006286:	e08b      	b.n	100063a0 <_malloc_r+0x184>
10006288:	f000 fa8a 	bl	100067a0 <__malloc_lock>
1000628c:	23fc      	movs	r3, #252	; 0xfc
1000628e:	005b      	lsls	r3, r3, #1
10006290:	429d      	cmp	r5, r3
10006292:	d200      	bcs.n	10006296 <_malloc_r+0x7a>
10006294:	e1a7      	b.n	100065e6 <_malloc_r+0x3ca>
10006296:	0a68      	lsrs	r0, r5, #9
10006298:	d100      	bne.n	1000629c <_malloc_r+0x80>
1000629a:	e08b      	b.n	100063b4 <_malloc_r+0x198>
1000629c:	2804      	cmp	r0, #4
1000629e:	d900      	bls.n	100062a2 <_malloc_r+0x86>
100062a0:	e17a      	b.n	10006598 <_malloc_r+0x37c>
100062a2:	2338      	movs	r3, #56	; 0x38
100062a4:	4698      	mov	r8, r3
100062a6:	09a8      	lsrs	r0, r5, #6
100062a8:	4480      	add	r8, r0
100062aa:	3039      	adds	r0, #57	; 0x39
100062ac:	00c1      	lsls	r1, r0, #3
100062ae:	4fb2      	ldr	r7, [pc, #712]	; (10006578 <_malloc_r+0x35c>)
100062b0:	1879      	adds	r1, r7, r1
100062b2:	684c      	ldr	r4, [r1, #4]
100062b4:	3908      	subs	r1, #8
100062b6:	42a1      	cmp	r1, r4
100062b8:	d00e      	beq.n	100062d8 <_malloc_r+0xbc>
100062ba:	2303      	movs	r3, #3
100062bc:	469c      	mov	ip, r3
100062be:	e004      	b.n	100062ca <_malloc_r+0xae>
100062c0:	2a00      	cmp	r2, #0
100062c2:	dacb      	bge.n	1000625c <_malloc_r+0x40>
100062c4:	68e4      	ldr	r4, [r4, #12]
100062c6:	42a1      	cmp	r1, r4
100062c8:	d006      	beq.n	100062d8 <_malloc_r+0xbc>
100062ca:	4662      	mov	r2, ip
100062cc:	6863      	ldr	r3, [r4, #4]
100062ce:	4393      	bics	r3, r2
100062d0:	1b5a      	subs	r2, r3, r5
100062d2:	2a0f      	cmp	r2, #15
100062d4:	ddf4      	ble.n	100062c0 <_malloc_r+0xa4>
100062d6:	4640      	mov	r0, r8
100062d8:	003a      	movs	r2, r7
100062da:	693c      	ldr	r4, [r7, #16]
100062dc:	3208      	adds	r2, #8
100062de:	4294      	cmp	r4, r2
100062e0:	d100      	bne.n	100062e4 <_malloc_r+0xc8>
100062e2:	e078      	b.n	100063d6 <_malloc_r+0x1ba>
100062e4:	2303      	movs	r3, #3
100062e6:	6861      	ldr	r1, [r4, #4]
100062e8:	4399      	bics	r1, r3
100062ea:	4689      	mov	r9, r1
100062ec:	000b      	movs	r3, r1
100062ee:	1b49      	subs	r1, r1, r5
100062f0:	290f      	cmp	r1, #15
100062f2:	dd00      	ble.n	100062f6 <_malloc_r+0xda>
100062f4:	e17b      	b.n	100065ee <_malloc_r+0x3d2>
100062f6:	617a      	str	r2, [r7, #20]
100062f8:	613a      	str	r2, [r7, #16]
100062fa:	2900      	cmp	r1, #0
100062fc:	dab2      	bge.n	10006264 <_malloc_r+0x48>
100062fe:	2280      	movs	r2, #128	; 0x80
10006300:	0092      	lsls	r2, r2, #2
10006302:	4591      	cmp	r9, r2
10006304:	d300      	bcc.n	10006308 <_malloc_r+0xec>
10006306:	e10f      	b.n	10006528 <_malloc_r+0x30c>
10006308:	0959      	lsrs	r1, r3, #5
1000630a:	08da      	lsrs	r2, r3, #3
1000630c:	2301      	movs	r3, #1
1000630e:	408b      	lsls	r3, r1
10006310:	00d2      	lsls	r2, r2, #3
10006312:	6879      	ldr	r1, [r7, #4]
10006314:	19d2      	adds	r2, r2, r7
10006316:	430b      	orrs	r3, r1
10006318:	6891      	ldr	r1, [r2, #8]
1000631a:	607b      	str	r3, [r7, #4]
1000631c:	60e2      	str	r2, [r4, #12]
1000631e:	60a1      	str	r1, [r4, #8]
10006320:	6094      	str	r4, [r2, #8]
10006322:	60cc      	str	r4, [r1, #12]
10006324:	2101      	movs	r1, #1
10006326:	1082      	asrs	r2, r0, #2
10006328:	4091      	lsls	r1, r2
1000632a:	4299      	cmp	r1, r3
1000632c:	d859      	bhi.n	100063e2 <_malloc_r+0x1c6>
1000632e:	420b      	tst	r3, r1
10006330:	d105      	bne.n	1000633e <_malloc_r+0x122>
10006332:	2203      	movs	r2, #3
10006334:	4390      	bics	r0, r2
10006336:	0049      	lsls	r1, r1, #1
10006338:	3004      	adds	r0, #4
1000633a:	420b      	tst	r3, r1
1000633c:	d0fb      	beq.n	10006336 <_malloc_r+0x11a>
1000633e:	2303      	movs	r3, #3
10006340:	4698      	mov	r8, r3
10006342:	00c3      	lsls	r3, r0, #3
10006344:	4699      	mov	r9, r3
10006346:	44b9      	add	r9, r7
10006348:	46cc      	mov	ip, r9
1000634a:	4682      	mov	sl, r0
1000634c:	4663      	mov	r3, ip
1000634e:	68dc      	ldr	r4, [r3, #12]
10006350:	45a4      	cmp	ip, r4
10006352:	d107      	bne.n	10006364 <_malloc_r+0x148>
10006354:	e12c      	b.n	100065b0 <_malloc_r+0x394>
10006356:	2a00      	cmp	r2, #0
10006358:	db00      	blt.n	1000635c <_malloc_r+0x140>
1000635a:	e135      	b.n	100065c8 <_malloc_r+0x3ac>
1000635c:	68e4      	ldr	r4, [r4, #12]
1000635e:	45a4      	cmp	ip, r4
10006360:	d100      	bne.n	10006364 <_malloc_r+0x148>
10006362:	e125      	b.n	100065b0 <_malloc_r+0x394>
10006364:	4642      	mov	r2, r8
10006366:	6863      	ldr	r3, [r4, #4]
10006368:	4393      	bics	r3, r2
1000636a:	1b5a      	subs	r2, r3, r5
1000636c:	2a0f      	cmp	r2, #15
1000636e:	ddf2      	ble.n	10006356 <_malloc_r+0x13a>
10006370:	2001      	movs	r0, #1
10006372:	4680      	mov	r8, r0
10006374:	1961      	adds	r1, r4, r5
10006376:	4305      	orrs	r5, r0
10006378:	6065      	str	r5, [r4, #4]
1000637a:	68a0      	ldr	r0, [r4, #8]
1000637c:	68e5      	ldr	r5, [r4, #12]
1000637e:	3708      	adds	r7, #8
10006380:	60c5      	str	r5, [r0, #12]
10006382:	60a8      	str	r0, [r5, #8]
10006384:	4640      	mov	r0, r8
10006386:	4310      	orrs	r0, r2
10006388:	60f9      	str	r1, [r7, #12]
1000638a:	60b9      	str	r1, [r7, #8]
1000638c:	6048      	str	r0, [r1, #4]
1000638e:	60cf      	str	r7, [r1, #12]
10006390:	0030      	movs	r0, r6
10006392:	608f      	str	r7, [r1, #8]
10006394:	50e2      	str	r2, [r4, r3]
10006396:	f000 fa0b 	bl	100067b0 <__malloc_unlock>
1000639a:	0020      	movs	r0, r4
1000639c:	3008      	adds	r0, #8
1000639e:	e002      	b.n	100063a6 <_malloc_r+0x18a>
100063a0:	230c      	movs	r3, #12
100063a2:	2000      	movs	r0, #0
100063a4:	6033      	str	r3, [r6, #0]
100063a6:	b003      	add	sp, #12
100063a8:	bcf0      	pop	{r4, r5, r6, r7}
100063aa:	46bb      	mov	fp, r7
100063ac:	46b2      	mov	sl, r6
100063ae:	46a9      	mov	r9, r5
100063b0:	46a0      	mov	r8, r4
100063b2:	bdf0      	pop	{r4, r5, r6, r7, pc}
100063b4:	2180      	movs	r1, #128	; 0x80
100063b6:	233f      	movs	r3, #63	; 0x3f
100063b8:	2040      	movs	r0, #64	; 0x40
100063ba:	4698      	mov	r8, r3
100063bc:	0089      	lsls	r1, r1, #2
100063be:	e776      	b.n	100062ae <_malloc_r+0x92>
100063c0:	68dc      	ldr	r4, [r3, #12]
100063c2:	3002      	adds	r0, #2
100063c4:	42a3      	cmp	r3, r4
100063c6:	d000      	beq.n	100063ca <_malloc_r+0x1ae>
100063c8:	e744      	b.n	10006254 <_malloc_r+0x38>
100063ca:	003a      	movs	r2, r7
100063cc:	693c      	ldr	r4, [r7, #16]
100063ce:	3208      	adds	r2, #8
100063d0:	4294      	cmp	r4, r2
100063d2:	d000      	beq.n	100063d6 <_malloc_r+0x1ba>
100063d4:	e786      	b.n	100062e4 <_malloc_r+0xc8>
100063d6:	2101      	movs	r1, #1
100063d8:	687b      	ldr	r3, [r7, #4]
100063da:	1082      	asrs	r2, r0, #2
100063dc:	4091      	lsls	r1, r2
100063de:	4299      	cmp	r1, r3
100063e0:	d9a5      	bls.n	1000632e <_malloc_r+0x112>
100063e2:	2303      	movs	r3, #3
100063e4:	68bc      	ldr	r4, [r7, #8]
100063e6:	6862      	ldr	r2, [r4, #4]
100063e8:	439a      	bics	r2, r3
100063ea:	4691      	mov	r9, r2
100063ec:	4295      	cmp	r5, r2
100063ee:	d803      	bhi.n	100063f8 <_malloc_r+0x1dc>
100063f0:	1b53      	subs	r3, r2, r5
100063f2:	2b0f      	cmp	r3, #15
100063f4:	dd00      	ble.n	100063f8 <_malloc_r+0x1dc>
100063f6:	e089      	b.n	1000650c <_malloc_r+0x2f0>
100063f8:	0023      	movs	r3, r4
100063fa:	444b      	add	r3, r9
100063fc:	4a5f      	ldr	r2, [pc, #380]	; (1000657c <_malloc_r+0x360>)
100063fe:	9301      	str	r3, [sp, #4]
10006400:	4b5f      	ldr	r3, [pc, #380]	; (10006580 <_malloc_r+0x364>)
10006402:	4693      	mov	fp, r2
10006404:	681b      	ldr	r3, [r3, #0]
10006406:	6812      	ldr	r2, [r2, #0]
10006408:	18eb      	adds	r3, r5, r3
1000640a:	3201      	adds	r2, #1
1000640c:	d100      	bne.n	10006410 <_malloc_r+0x1f4>
1000640e:	e13d      	b.n	1000668c <_malloc_r+0x470>
10006410:	4a5c      	ldr	r2, [pc, #368]	; (10006584 <_malloc_r+0x368>)
10006412:	4694      	mov	ip, r2
10006414:	4463      	add	r3, ip
10006416:	0b1b      	lsrs	r3, r3, #12
10006418:	031b      	lsls	r3, r3, #12
1000641a:	9300      	str	r3, [sp, #0]
1000641c:	0030      	movs	r0, r6
1000641e:	9900      	ldr	r1, [sp, #0]
10006420:	f000 f9ce 	bl	100067c0 <_sbrk_r>
10006424:	0003      	movs	r3, r0
10006426:	4680      	mov	r8, r0
10006428:	3301      	adds	r3, #1
1000642a:	d100      	bne.n	1000642e <_malloc_r+0x212>
1000642c:	e0fa      	b.n	10006624 <_malloc_r+0x408>
1000642e:	9b01      	ldr	r3, [sp, #4]
10006430:	4283      	cmp	r3, r0
10006432:	d900      	bls.n	10006436 <_malloc_r+0x21a>
10006434:	e0f4      	b.n	10006620 <_malloc_r+0x404>
10006436:	4b54      	ldr	r3, [pc, #336]	; (10006588 <_malloc_r+0x36c>)
10006438:	9800      	ldr	r0, [sp, #0]
1000643a:	001a      	movs	r2, r3
1000643c:	469a      	mov	sl, r3
1000643e:	6812      	ldr	r2, [r2, #0]
10006440:	0003      	movs	r3, r0
10006442:	4694      	mov	ip, r2
10006444:	4651      	mov	r1, sl
10006446:	4463      	add	r3, ip
10006448:	600b      	str	r3, [r1, #0]
1000644a:	9901      	ldr	r1, [sp, #4]
1000644c:	001a      	movs	r2, r3
1000644e:	4541      	cmp	r1, r8
10006450:	d100      	bne.n	10006454 <_malloc_r+0x238>
10006452:	e151      	b.n	100066f8 <_malloc_r+0x4dc>
10006454:	465b      	mov	r3, fp
10006456:	681b      	ldr	r3, [r3, #0]
10006458:	3301      	adds	r3, #1
1000645a:	d100      	bne.n	1000645e <_malloc_r+0x242>
1000645c:	e156      	b.n	1000670c <_malloc_r+0x4f0>
1000645e:	4643      	mov	r3, r8
10006460:	9901      	ldr	r1, [sp, #4]
10006462:	1a5b      	subs	r3, r3, r1
10006464:	189a      	adds	r2, r3, r2
10006466:	4653      	mov	r3, sl
10006468:	601a      	str	r2, [r3, #0]
1000646a:	2307      	movs	r3, #7
1000646c:	4642      	mov	r2, r8
1000646e:	4641      	mov	r1, r8
10006470:	401a      	ands	r2, r3
10006472:	9201      	str	r2, [sp, #4]
10006474:	4219      	tst	r1, r3
10006476:	d100      	bne.n	1000647a <_malloc_r+0x25e>
10006478:	e112      	b.n	100066a0 <_malloc_r+0x484>
1000647a:	2308      	movs	r3, #8
1000647c:	4698      	mov	r8, r3
1000647e:	1a88      	subs	r0, r1, r2
10006480:	4b42      	ldr	r3, [pc, #264]	; (1000658c <_malloc_r+0x370>)
10006482:	9900      	ldr	r1, [sp, #0]
10006484:	4480      	add	r8, r0
10006486:	4441      	add	r1, r8
10006488:	1a9b      	subs	r3, r3, r2
1000648a:	1a5b      	subs	r3, r3, r1
1000648c:	051b      	lsls	r3, r3, #20
1000648e:	0d1b      	lsrs	r3, r3, #20
10006490:	9100      	str	r1, [sp, #0]
10006492:	0030      	movs	r0, r6
10006494:	0019      	movs	r1, r3
10006496:	469b      	mov	fp, r3
10006498:	f000 f992 	bl	100067c0 <_sbrk_r>
1000649c:	1c43      	adds	r3, r0, #1
1000649e:	d100      	bne.n	100064a2 <_malloc_r+0x286>
100064a0:	e150      	b.n	10006744 <_malloc_r+0x528>
100064a2:	4643      	mov	r3, r8
100064a4:	1ac0      	subs	r0, r0, r3
100064a6:	0003      	movs	r3, r0
100064a8:	445b      	add	r3, fp
100064aa:	9300      	str	r3, [sp, #0]
100064ac:	4653      	mov	r3, sl
100064ae:	4652      	mov	r2, sl
100064b0:	681b      	ldr	r3, [r3, #0]
100064b2:	2101      	movs	r1, #1
100064b4:	445b      	add	r3, fp
100064b6:	6013      	str	r3, [r2, #0]
100064b8:	4642      	mov	r2, r8
100064ba:	4640      	mov	r0, r8
100064bc:	60ba      	str	r2, [r7, #8]
100064be:	9a00      	ldr	r2, [sp, #0]
100064c0:	430a      	orrs	r2, r1
100064c2:	6042      	str	r2, [r0, #4]
100064c4:	42bc      	cmp	r4, r7
100064c6:	d100      	bne.n	100064ca <_malloc_r+0x2ae>
100064c8:	e124      	b.n	10006714 <_malloc_r+0x4f8>
100064ca:	464a      	mov	r2, r9
100064cc:	2a0f      	cmp	r2, #15
100064ce:	d800      	bhi.n	100064d2 <_malloc_r+0x2b6>
100064d0:	e122      	b.n	10006718 <_malloc_r+0x4fc>
100064d2:	2007      	movs	r0, #7
100064d4:	3a0c      	subs	r2, #12
100064d6:	4382      	bics	r2, r0
100064d8:	6860      	ldr	r0, [r4, #4]
100064da:	4001      	ands	r1, r0
100064dc:	2005      	movs	r0, #5
100064de:	4311      	orrs	r1, r2
100064e0:	6061      	str	r1, [r4, #4]
100064e2:	18a1      	adds	r1, r4, r2
100064e4:	6048      	str	r0, [r1, #4]
100064e6:	6088      	str	r0, [r1, #8]
100064e8:	2a0f      	cmp	r2, #15
100064ea:	d900      	bls.n	100064ee <_malloc_r+0x2d2>
100064ec:	e135      	b.n	1000675a <_malloc_r+0x53e>
100064ee:	4642      	mov	r2, r8
100064f0:	4644      	mov	r4, r8
100064f2:	6852      	ldr	r2, [r2, #4]
100064f4:	4926      	ldr	r1, [pc, #152]	; (10006590 <_malloc_r+0x374>)
100064f6:	6808      	ldr	r0, [r1, #0]
100064f8:	4298      	cmp	r0, r3
100064fa:	d200      	bcs.n	100064fe <_malloc_r+0x2e2>
100064fc:	600b      	str	r3, [r1, #0]
100064fe:	4925      	ldr	r1, [pc, #148]	; (10006594 <_malloc_r+0x378>)
10006500:	6808      	ldr	r0, [r1, #0]
10006502:	4298      	cmp	r0, r3
10006504:	d300      	bcc.n	10006508 <_malloc_r+0x2ec>
10006506:	e08f      	b.n	10006628 <_malloc_r+0x40c>
10006508:	600b      	str	r3, [r1, #0]
1000650a:	e08d      	b.n	10006628 <_malloc_r+0x40c>
1000650c:	2201      	movs	r2, #1
1000650e:	0029      	movs	r1, r5
10006510:	4313      	orrs	r3, r2
10006512:	4311      	orrs	r1, r2
10006514:	1965      	adds	r5, r4, r5
10006516:	6061      	str	r1, [r4, #4]
10006518:	0030      	movs	r0, r6
1000651a:	60bd      	str	r5, [r7, #8]
1000651c:	606b      	str	r3, [r5, #4]
1000651e:	f000 f947 	bl	100067b0 <__malloc_unlock>
10006522:	0020      	movs	r0, r4
10006524:	3008      	adds	r0, #8
10006526:	e73e      	b.n	100063a6 <_malloc_r+0x18a>
10006528:	0a5a      	lsrs	r2, r3, #9
1000652a:	2a04      	cmp	r2, #4
1000652c:	d972      	bls.n	10006614 <_malloc_r+0x3f8>
1000652e:	2a14      	cmp	r2, #20
10006530:	d900      	bls.n	10006534 <_malloc_r+0x318>
10006532:	e0c5      	b.n	100066c0 <_malloc_r+0x4a4>
10006534:	0011      	movs	r1, r2
10006536:	325c      	adds	r2, #92	; 0x5c
10006538:	315b      	adds	r1, #91	; 0x5b
1000653a:	00d2      	lsls	r2, r2, #3
1000653c:	2308      	movs	r3, #8
1000653e:	425b      	negs	r3, r3
10006540:	469c      	mov	ip, r3
10006542:	18ba      	adds	r2, r7, r2
10006544:	4494      	add	ip, r2
10006546:	4663      	mov	r3, ip
10006548:	689a      	ldr	r2, [r3, #8]
1000654a:	2303      	movs	r3, #3
1000654c:	4698      	mov	r8, r3
1000654e:	4594      	cmp	ip, r2
10006550:	d100      	bne.n	10006554 <_malloc_r+0x338>
10006552:	e09e      	b.n	10006692 <_malloc_r+0x476>
10006554:	4643      	mov	r3, r8
10006556:	6851      	ldr	r1, [r2, #4]
10006558:	4399      	bics	r1, r3
1000655a:	4549      	cmp	r1, r9
1000655c:	d902      	bls.n	10006564 <_malloc_r+0x348>
1000655e:	6892      	ldr	r2, [r2, #8]
10006560:	4594      	cmp	ip, r2
10006562:	d1f7      	bne.n	10006554 <_malloc_r+0x338>
10006564:	68d3      	ldr	r3, [r2, #12]
10006566:	469c      	mov	ip, r3
10006568:	687b      	ldr	r3, [r7, #4]
1000656a:	4661      	mov	r1, ip
1000656c:	60a2      	str	r2, [r4, #8]
1000656e:	60e1      	str	r1, [r4, #12]
10006570:	608c      	str	r4, [r1, #8]
10006572:	60d4      	str	r4, [r2, #12]
10006574:	e6d6      	b.n	10006324 <_malloc_r+0x108>
10006576:	46c0      	nop			; (mov r8, r8)
10006578:	20000698 	.word	0x20000698
1000657c:	20000aa0 	.word	0x20000aa0
10006580:	20000da8 	.word	0x20000da8
10006584:	0000100f 	.word	0x0000100f
10006588:	20000d78 	.word	0x20000d78
1000658c:	00001008 	.word	0x00001008
10006590:	20000da0 	.word	0x20000da0
10006594:	20000da4 	.word	0x20000da4
10006598:	2814      	cmp	r0, #20
1000659a:	d952      	bls.n	10006642 <_malloc_r+0x426>
1000659c:	2854      	cmp	r0, #84	; 0x54
1000659e:	d900      	bls.n	100065a2 <_malloc_r+0x386>
100065a0:	e096      	b.n	100066d0 <_malloc_r+0x4b4>
100065a2:	236e      	movs	r3, #110	; 0x6e
100065a4:	4698      	mov	r8, r3
100065a6:	0b28      	lsrs	r0, r5, #12
100065a8:	4480      	add	r8, r0
100065aa:	306f      	adds	r0, #111	; 0x6f
100065ac:	00c1      	lsls	r1, r0, #3
100065ae:	e67e      	b.n	100062ae <_malloc_r+0x92>
100065b0:	2308      	movs	r3, #8
100065b2:	469b      	mov	fp, r3
100065b4:	3b07      	subs	r3, #7
100065b6:	44dc      	add	ip, fp
100065b8:	469b      	mov	fp, r3
100065ba:	44da      	add	sl, fp
100065bc:	4643      	mov	r3, r8
100065be:	4652      	mov	r2, sl
100065c0:	4213      	tst	r3, r2
100065c2:	d000      	beq.n	100065c6 <_malloc_r+0x3aa>
100065c4:	e6c2      	b.n	1000634c <_malloc_r+0x130>
100065c6:	e04c      	b.n	10006662 <_malloc_r+0x446>
100065c8:	2201      	movs	r2, #1
100065ca:	18e3      	adds	r3, r4, r3
100065cc:	6859      	ldr	r1, [r3, #4]
100065ce:	0030      	movs	r0, r6
100065d0:	430a      	orrs	r2, r1
100065d2:	605a      	str	r2, [r3, #4]
100065d4:	68e3      	ldr	r3, [r4, #12]
100065d6:	68a2      	ldr	r2, [r4, #8]
100065d8:	60d3      	str	r3, [r2, #12]
100065da:	609a      	str	r2, [r3, #8]
100065dc:	f000 f8e8 	bl	100067b0 <__malloc_unlock>
100065e0:	0020      	movs	r0, r4
100065e2:	3008      	adds	r0, #8
100065e4:	e6df      	b.n	100063a6 <_malloc_r+0x18a>
100065e6:	002b      	movs	r3, r5
100065e8:	08e8      	lsrs	r0, r5, #3
100065ea:	3308      	adds	r3, #8
100065ec:	e62a      	b.n	10006244 <_malloc_r+0x28>
100065ee:	2301      	movs	r3, #1
100065f0:	1960      	adds	r0, r4, r5
100065f2:	431d      	orrs	r5, r3
100065f4:	6065      	str	r5, [r4, #4]
100065f6:	6178      	str	r0, [r7, #20]
100065f8:	6138      	str	r0, [r7, #16]
100065fa:	60c2      	str	r2, [r0, #12]
100065fc:	6082      	str	r2, [r0, #8]
100065fe:	001a      	movs	r2, r3
10006600:	464b      	mov	r3, r9
10006602:	430a      	orrs	r2, r1
10006604:	6042      	str	r2, [r0, #4]
10006606:	0030      	movs	r0, r6
10006608:	50e1      	str	r1, [r4, r3]
1000660a:	f000 f8d1 	bl	100067b0 <__malloc_unlock>
1000660e:	0020      	movs	r0, r4
10006610:	3008      	adds	r0, #8
10006612:	e6c8      	b.n	100063a6 <_malloc_r+0x18a>
10006614:	099a      	lsrs	r2, r3, #6
10006616:	0011      	movs	r1, r2
10006618:	3239      	adds	r2, #57	; 0x39
1000661a:	3138      	adds	r1, #56	; 0x38
1000661c:	00d2      	lsls	r2, r2, #3
1000661e:	e78d      	b.n	1000653c <_malloc_r+0x320>
10006620:	42bc      	cmp	r4, r7
10006622:	d060      	beq.n	100066e6 <_malloc_r+0x4ca>
10006624:	68bc      	ldr	r4, [r7, #8]
10006626:	6862      	ldr	r2, [r4, #4]
10006628:	2303      	movs	r3, #3
1000662a:	439a      	bics	r2, r3
1000662c:	1b53      	subs	r3, r2, r5
1000662e:	4295      	cmp	r5, r2
10006630:	d802      	bhi.n	10006638 <_malloc_r+0x41c>
10006632:	2b0f      	cmp	r3, #15
10006634:	dd00      	ble.n	10006638 <_malloc_r+0x41c>
10006636:	e769      	b.n	1000650c <_malloc_r+0x2f0>
10006638:	0030      	movs	r0, r6
1000663a:	f000 f8b9 	bl	100067b0 <__malloc_unlock>
1000663e:	2000      	movs	r0, #0
10006640:	e6b1      	b.n	100063a6 <_malloc_r+0x18a>
10006642:	235b      	movs	r3, #91	; 0x5b
10006644:	4698      	mov	r8, r3
10006646:	4480      	add	r8, r0
10006648:	305c      	adds	r0, #92	; 0x5c
1000664a:	00c1      	lsls	r1, r0, #3
1000664c:	e62f      	b.n	100062ae <_malloc_r+0x92>
1000664e:	2308      	movs	r3, #8
10006650:	425b      	negs	r3, r3
10006652:	469c      	mov	ip, r3
10006654:	44e1      	add	r9, ip
10006656:	464b      	mov	r3, r9
10006658:	689b      	ldr	r3, [r3, #8]
1000665a:	3801      	subs	r0, #1
1000665c:	454b      	cmp	r3, r9
1000665e:	d000      	beq.n	10006662 <_malloc_r+0x446>
10006660:	e098      	b.n	10006794 <_malloc_r+0x578>
10006662:	4643      	mov	r3, r8
10006664:	4203      	tst	r3, r0
10006666:	d1f2      	bne.n	1000664e <_malloc_r+0x432>
10006668:	687b      	ldr	r3, [r7, #4]
1000666a:	438b      	bics	r3, r1
1000666c:	607b      	str	r3, [r7, #4]
1000666e:	0049      	lsls	r1, r1, #1
10006670:	4299      	cmp	r1, r3
10006672:	d900      	bls.n	10006676 <_malloc_r+0x45a>
10006674:	e6b5      	b.n	100063e2 <_malloc_r+0x1c6>
10006676:	2900      	cmp	r1, #0
10006678:	d104      	bne.n	10006684 <_malloc_r+0x468>
1000667a:	e6b2      	b.n	100063e2 <_malloc_r+0x1c6>
1000667c:	2204      	movs	r2, #4
1000667e:	4694      	mov	ip, r2
10006680:	0049      	lsls	r1, r1, #1
10006682:	44e2      	add	sl, ip
10006684:	420b      	tst	r3, r1
10006686:	d0f9      	beq.n	1000667c <_malloc_r+0x460>
10006688:	4650      	mov	r0, sl
1000668a:	e65a      	b.n	10006342 <_malloc_r+0x126>
1000668c:	3310      	adds	r3, #16
1000668e:	9300      	str	r3, [sp, #0]
10006690:	e6c4      	b.n	1000641c <_malloc_r+0x200>
10006692:	1089      	asrs	r1, r1, #2
10006694:	3b02      	subs	r3, #2
10006696:	408b      	lsls	r3, r1
10006698:	6879      	ldr	r1, [r7, #4]
1000669a:	430b      	orrs	r3, r1
1000669c:	607b      	str	r3, [r7, #4]
1000669e:	e764      	b.n	1000656a <_malloc_r+0x34e>
100066a0:	9b00      	ldr	r3, [sp, #0]
100066a2:	0030      	movs	r0, r6
100066a4:	4443      	add	r3, r8
100066a6:	425b      	negs	r3, r3
100066a8:	051b      	lsls	r3, r3, #20
100066aa:	0d1b      	lsrs	r3, r3, #20
100066ac:	0019      	movs	r1, r3
100066ae:	469b      	mov	fp, r3
100066b0:	f000 f886 	bl	100067c0 <_sbrk_r>
100066b4:	1c43      	adds	r3, r0, #1
100066b6:	d000      	beq.n	100066ba <_malloc_r+0x49e>
100066b8:	e6f3      	b.n	100064a2 <_malloc_r+0x286>
100066ba:	2300      	movs	r3, #0
100066bc:	469b      	mov	fp, r3
100066be:	e6f5      	b.n	100064ac <_malloc_r+0x290>
100066c0:	2a54      	cmp	r2, #84	; 0x54
100066c2:	d82b      	bhi.n	1000671c <_malloc_r+0x500>
100066c4:	0b1a      	lsrs	r2, r3, #12
100066c6:	0011      	movs	r1, r2
100066c8:	326f      	adds	r2, #111	; 0x6f
100066ca:	316e      	adds	r1, #110	; 0x6e
100066cc:	00d2      	lsls	r2, r2, #3
100066ce:	e735      	b.n	1000653c <_malloc_r+0x320>
100066d0:	23aa      	movs	r3, #170	; 0xaa
100066d2:	005b      	lsls	r3, r3, #1
100066d4:	4298      	cmp	r0, r3
100066d6:	d82b      	bhi.n	10006730 <_malloc_r+0x514>
100066d8:	3bdd      	subs	r3, #221	; 0xdd
100066da:	4698      	mov	r8, r3
100066dc:	0be8      	lsrs	r0, r5, #15
100066de:	4480      	add	r8, r0
100066e0:	3078      	adds	r0, #120	; 0x78
100066e2:	00c1      	lsls	r1, r0, #3
100066e4:	e5e3      	b.n	100062ae <_malloc_r+0x92>
100066e6:	4b2c      	ldr	r3, [pc, #176]	; (10006798 <_malloc_r+0x57c>)
100066e8:	9a00      	ldr	r2, [sp, #0]
100066ea:	469a      	mov	sl, r3
100066ec:	681b      	ldr	r3, [r3, #0]
100066ee:	469c      	mov	ip, r3
100066f0:	4653      	mov	r3, sl
100066f2:	4462      	add	r2, ip
100066f4:	601a      	str	r2, [r3, #0]
100066f6:	e6ad      	b.n	10006454 <_malloc_r+0x238>
100066f8:	0509      	lsls	r1, r1, #20
100066fa:	d000      	beq.n	100066fe <_malloc_r+0x4e2>
100066fc:	e6aa      	b.n	10006454 <_malloc_r+0x238>
100066fe:	0002      	movs	r2, r0
10006700:	68bc      	ldr	r4, [r7, #8]
10006702:	444a      	add	r2, r9
10006704:	3101      	adds	r1, #1
10006706:	430a      	orrs	r2, r1
10006708:	6062      	str	r2, [r4, #4]
1000670a:	e6f3      	b.n	100064f4 <_malloc_r+0x2d8>
1000670c:	465b      	mov	r3, fp
1000670e:	4642      	mov	r2, r8
10006710:	601a      	str	r2, [r3, #0]
10006712:	e6aa      	b.n	1000646a <_malloc_r+0x24e>
10006714:	4644      	mov	r4, r8
10006716:	e6ed      	b.n	100064f4 <_malloc_r+0x2d8>
10006718:	6041      	str	r1, [r0, #4]
1000671a:	e78d      	b.n	10006638 <_malloc_r+0x41c>
1000671c:	21aa      	movs	r1, #170	; 0xaa
1000671e:	0049      	lsls	r1, r1, #1
10006720:	428a      	cmp	r2, r1
10006722:	d824      	bhi.n	1000676e <_malloc_r+0x552>
10006724:	0bda      	lsrs	r2, r3, #15
10006726:	0011      	movs	r1, r2
10006728:	3278      	adds	r2, #120	; 0x78
1000672a:	3177      	adds	r1, #119	; 0x77
1000672c:	00d2      	lsls	r2, r2, #3
1000672e:	e705      	b.n	1000653c <_malloc_r+0x320>
10006730:	4b1a      	ldr	r3, [pc, #104]	; (1000679c <_malloc_r+0x580>)
10006732:	4298      	cmp	r0, r3
10006734:	d824      	bhi.n	10006780 <_malloc_r+0x564>
10006736:	237c      	movs	r3, #124	; 0x7c
10006738:	4698      	mov	r8, r3
1000673a:	0ca8      	lsrs	r0, r5, #18
1000673c:	4480      	add	r8, r0
1000673e:	307d      	adds	r0, #125	; 0x7d
10006740:	00c1      	lsls	r1, r0, #3
10006742:	e5b4      	b.n	100062ae <_malloc_r+0x92>
10006744:	9a00      	ldr	r2, [sp, #0]
10006746:	9b01      	ldr	r3, [sp, #4]
10006748:	4694      	mov	ip, r2
1000674a:	4642      	mov	r2, r8
1000674c:	3b08      	subs	r3, #8
1000674e:	4463      	add	r3, ip
10006750:	1a9b      	subs	r3, r3, r2
10006752:	9300      	str	r3, [sp, #0]
10006754:	2300      	movs	r3, #0
10006756:	469b      	mov	fp, r3
10006758:	e6a8      	b.n	100064ac <_malloc_r+0x290>
1000675a:	0021      	movs	r1, r4
1000675c:	0030      	movs	r0, r6
1000675e:	3108      	adds	r1, #8
10006760:	f000 f8bc 	bl	100068dc <_free_r>
10006764:	4653      	mov	r3, sl
10006766:	68bc      	ldr	r4, [r7, #8]
10006768:	681b      	ldr	r3, [r3, #0]
1000676a:	6862      	ldr	r2, [r4, #4]
1000676c:	e6c2      	b.n	100064f4 <_malloc_r+0x2d8>
1000676e:	490b      	ldr	r1, [pc, #44]	; (1000679c <_malloc_r+0x580>)
10006770:	428a      	cmp	r2, r1
10006772:	d80b      	bhi.n	1000678c <_malloc_r+0x570>
10006774:	0c9a      	lsrs	r2, r3, #18
10006776:	0011      	movs	r1, r2
10006778:	327d      	adds	r2, #125	; 0x7d
1000677a:	317c      	adds	r1, #124	; 0x7c
1000677c:	00d2      	lsls	r2, r2, #3
1000677e:	e6dd      	b.n	1000653c <_malloc_r+0x320>
10006780:	21fe      	movs	r1, #254	; 0xfe
10006782:	237e      	movs	r3, #126	; 0x7e
10006784:	207f      	movs	r0, #127	; 0x7f
10006786:	4698      	mov	r8, r3
10006788:	0089      	lsls	r1, r1, #2
1000678a:	e590      	b.n	100062ae <_malloc_r+0x92>
1000678c:	22fe      	movs	r2, #254	; 0xfe
1000678e:	217e      	movs	r1, #126	; 0x7e
10006790:	0092      	lsls	r2, r2, #2
10006792:	e6d3      	b.n	1000653c <_malloc_r+0x320>
10006794:	687b      	ldr	r3, [r7, #4]
10006796:	e76a      	b.n	1000666e <_malloc_r+0x452>
10006798:	20000d78 	.word	0x20000d78
1000679c:	00000554 	.word	0x00000554

100067a0 <__malloc_lock>:
100067a0:	b510      	push	{r4, lr}
100067a2:	4802      	ldr	r0, [pc, #8]	; (100067ac <__malloc_lock+0xc>)
100067a4:	f000 f97c 	bl	10006aa0 <__retarget_lock_acquire_recursive>
100067a8:	bd10      	pop	{r4, pc}
100067aa:	46c0      	nop			; (mov r8, r8)
100067ac:	20000d74 	.word	0x20000d74

100067b0 <__malloc_unlock>:
100067b0:	b510      	push	{r4, lr}
100067b2:	4802      	ldr	r0, [pc, #8]	; (100067bc <__malloc_unlock+0xc>)
100067b4:	f000 f976 	bl	10006aa4 <__retarget_lock_release_recursive>
100067b8:	bd10      	pop	{r4, pc}
100067ba:	46c0      	nop			; (mov r8, r8)
100067bc:	20000d74 	.word	0x20000d74

100067c0 <_sbrk_r>:
100067c0:	2300      	movs	r3, #0
100067c2:	b570      	push	{r4, r5, r6, lr}
100067c4:	4d06      	ldr	r5, [pc, #24]	; (100067e0 <_sbrk_r+0x20>)
100067c6:	0004      	movs	r4, r0
100067c8:	0008      	movs	r0, r1
100067ca:	602b      	str	r3, [r5, #0]
100067cc:	f7fa fd72 	bl	100012b4 <_sbrk>
100067d0:	1c43      	adds	r3, r0, #1
100067d2:	d000      	beq.n	100067d6 <_sbrk_r+0x16>
100067d4:	bd70      	pop	{r4, r5, r6, pc}
100067d6:	682b      	ldr	r3, [r5, #0]
100067d8:	2b00      	cmp	r3, #0
100067da:	d0fb      	beq.n	100067d4 <_sbrk_r+0x14>
100067dc:	6023      	str	r3, [r4, #0]
100067de:	e7f9      	b.n	100067d4 <_sbrk_r+0x14>
100067e0:	20000e28 	.word	0x20000e28

100067e4 <strlen>:
100067e4:	b510      	push	{r4, lr}
100067e6:	0783      	lsls	r3, r0, #30
100067e8:	d00a      	beq.n	10006800 <strlen+0x1c>
100067ea:	0003      	movs	r3, r0
100067ec:	2103      	movs	r1, #3
100067ee:	e002      	b.n	100067f6 <strlen+0x12>
100067f0:	3301      	adds	r3, #1
100067f2:	420b      	tst	r3, r1
100067f4:	d005      	beq.n	10006802 <strlen+0x1e>
100067f6:	781a      	ldrb	r2, [r3, #0]
100067f8:	2a00      	cmp	r2, #0
100067fa:	d1f9      	bne.n	100067f0 <strlen+0xc>
100067fc:	1a18      	subs	r0, r3, r0
100067fe:	bd10      	pop	{r4, pc}
10006800:	0003      	movs	r3, r0
10006802:	6819      	ldr	r1, [r3, #0]
10006804:	4a0c      	ldr	r2, [pc, #48]	; (10006838 <strlen+0x54>)
10006806:	4c0d      	ldr	r4, [pc, #52]	; (1000683c <strlen+0x58>)
10006808:	188a      	adds	r2, r1, r2
1000680a:	438a      	bics	r2, r1
1000680c:	4222      	tst	r2, r4
1000680e:	d10f      	bne.n	10006830 <strlen+0x4c>
10006810:	6859      	ldr	r1, [r3, #4]
10006812:	4a09      	ldr	r2, [pc, #36]	; (10006838 <strlen+0x54>)
10006814:	3304      	adds	r3, #4
10006816:	188a      	adds	r2, r1, r2
10006818:	438a      	bics	r2, r1
1000681a:	4222      	tst	r2, r4
1000681c:	d108      	bne.n	10006830 <strlen+0x4c>
1000681e:	6859      	ldr	r1, [r3, #4]
10006820:	4a05      	ldr	r2, [pc, #20]	; (10006838 <strlen+0x54>)
10006822:	3304      	adds	r3, #4
10006824:	188a      	adds	r2, r1, r2
10006826:	438a      	bics	r2, r1
10006828:	4222      	tst	r2, r4
1000682a:	d0f1      	beq.n	10006810 <strlen+0x2c>
1000682c:	e000      	b.n	10006830 <strlen+0x4c>
1000682e:	3301      	adds	r3, #1
10006830:	781a      	ldrb	r2, [r3, #0]
10006832:	2a00      	cmp	r2, #0
10006834:	d1fb      	bne.n	1000682e <strlen+0x4a>
10006836:	e7e1      	b.n	100067fc <strlen+0x18>
10006838:	fefefeff 	.word	0xfefefeff
1000683c:	80808080 	.word	0x80808080

10006840 <_malloc_trim_r>:
10006840:	b5f8      	push	{r3, r4, r5, r6, r7, lr}
10006842:	000c      	movs	r4, r1
10006844:	0005      	movs	r5, r0
10006846:	f7ff ffab 	bl	100067a0 <__malloc_lock>
1000684a:	4f20      	ldr	r7, [pc, #128]	; (100068cc <_malloc_trim_r+0x8c>)
1000684c:	68bb      	ldr	r3, [r7, #8]
1000684e:	685e      	ldr	r6, [r3, #4]
10006850:	2303      	movs	r3, #3
10006852:	439e      	bics	r6, r3
10006854:	4b1e      	ldr	r3, [pc, #120]	; (100068d0 <_malloc_trim_r+0x90>)
10006856:	1b34      	subs	r4, r6, r4
10006858:	469c      	mov	ip, r3
1000685a:	4464      	add	r4, ip
1000685c:	0b24      	lsrs	r4, r4, #12
1000685e:	3c01      	subs	r4, #1
10006860:	3311      	adds	r3, #17
10006862:	0324      	lsls	r4, r4, #12
10006864:	429c      	cmp	r4, r3
10006866:	db07      	blt.n	10006878 <_malloc_trim_r+0x38>
10006868:	2100      	movs	r1, #0
1000686a:	0028      	movs	r0, r5
1000686c:	f7ff ffa8 	bl	100067c0 <_sbrk_r>
10006870:	68bb      	ldr	r3, [r7, #8]
10006872:	199b      	adds	r3, r3, r6
10006874:	4298      	cmp	r0, r3
10006876:	d004      	beq.n	10006882 <_malloc_trim_r+0x42>
10006878:	0028      	movs	r0, r5
1000687a:	f7ff ff99 	bl	100067b0 <__malloc_unlock>
1000687e:	2000      	movs	r0, #0
10006880:	bdf8      	pop	{r3, r4, r5, r6, r7, pc}
10006882:	0028      	movs	r0, r5
10006884:	4261      	negs	r1, r4
10006886:	f7ff ff9b 	bl	100067c0 <_sbrk_r>
1000688a:	1c43      	adds	r3, r0, #1
1000688c:	d00d      	beq.n	100068aa <_malloc_trim_r+0x6a>
1000688e:	2201      	movs	r2, #1
10006890:	68bb      	ldr	r3, [r7, #8]
10006892:	1b36      	subs	r6, r6, r4
10006894:	4316      	orrs	r6, r2
10006896:	605e      	str	r6, [r3, #4]
10006898:	4b0e      	ldr	r3, [pc, #56]	; (100068d4 <_malloc_trim_r+0x94>)
1000689a:	0028      	movs	r0, r5
1000689c:	681a      	ldr	r2, [r3, #0]
1000689e:	1b14      	subs	r4, r2, r4
100068a0:	601c      	str	r4, [r3, #0]
100068a2:	f7ff ff85 	bl	100067b0 <__malloc_unlock>
100068a6:	2001      	movs	r0, #1
100068a8:	e7ea      	b.n	10006880 <_malloc_trim_r+0x40>
100068aa:	2100      	movs	r1, #0
100068ac:	0028      	movs	r0, r5
100068ae:	f7ff ff87 	bl	100067c0 <_sbrk_r>
100068b2:	68ba      	ldr	r2, [r7, #8]
100068b4:	1a83      	subs	r3, r0, r2
100068b6:	2b0f      	cmp	r3, #15
100068b8:	ddde      	ble.n	10006878 <_malloc_trim_r+0x38>
100068ba:	4907      	ldr	r1, [pc, #28]	; (100068d8 <_malloc_trim_r+0x98>)
100068bc:	6809      	ldr	r1, [r1, #0]
100068be:	1a40      	subs	r0, r0, r1
100068c0:	4904      	ldr	r1, [pc, #16]	; (100068d4 <_malloc_trim_r+0x94>)
100068c2:	6008      	str	r0, [r1, #0]
100068c4:	2101      	movs	r1, #1
100068c6:	430b      	orrs	r3, r1
100068c8:	6053      	str	r3, [r2, #4]
100068ca:	e7d5      	b.n	10006878 <_malloc_trim_r+0x38>
100068cc:	20000698 	.word	0x20000698
100068d0:	00000fef 	.word	0x00000fef
100068d4:	20000d78 	.word	0x20000d78
100068d8:	20000aa0 	.word	0x20000aa0

100068dc <_free_r>:
100068dc:	b5f0      	push	{r4, r5, r6, r7, lr}
100068de:	46c6      	mov	lr, r8
100068e0:	0005      	movs	r5, r0
100068e2:	000c      	movs	r4, r1
100068e4:	b500      	push	{lr}
100068e6:	2900      	cmp	r1, #0
100068e8:	d04f      	beq.n	1000698a <_free_r+0xae>
100068ea:	f7ff ff59 	bl	100067a0 <__malloc_lock>
100068ee:	0021      	movs	r1, r4
100068f0:	3908      	subs	r1, #8
100068f2:	684c      	ldr	r4, [r1, #4]
100068f4:	2601      	movs	r6, #1
100068f6:	0022      	movs	r2, r4
100068f8:	2003      	movs	r0, #3
100068fa:	43b2      	bics	r2, r6
100068fc:	188f      	adds	r7, r1, r2
100068fe:	687b      	ldr	r3, [r7, #4]
10006900:	4383      	bics	r3, r0
10006902:	4862      	ldr	r0, [pc, #392]	; (10006a8c <_free_r+0x1b0>)
10006904:	4698      	mov	r8, r3
10006906:	6883      	ldr	r3, [r0, #8]
10006908:	42bb      	cmp	r3, r7
1000690a:	d06a      	beq.n	100069e2 <_free_r+0x106>
1000690c:	4643      	mov	r3, r8
1000690e:	607b      	str	r3, [r7, #4]
10006910:	4226      	tst	r6, r4
10006912:	d11e      	bne.n	10006952 <_free_r+0x76>
10006914:	2308      	movs	r3, #8
10006916:	469c      	mov	ip, r3
10006918:	680c      	ldr	r4, [r1, #0]
1000691a:	4484      	add	ip, r0
1000691c:	1b09      	subs	r1, r1, r4
1000691e:	1912      	adds	r2, r2, r4
10006920:	688c      	ldr	r4, [r1, #8]
10006922:	4564      	cmp	r4, ip
10006924:	d04f      	beq.n	100069c6 <_free_r+0xea>
10006926:	68cb      	ldr	r3, [r1, #12]
10006928:	60e3      	str	r3, [r4, #12]
1000692a:	609c      	str	r4, [r3, #8]
1000692c:	4643      	mov	r3, r8
1000692e:	18fc      	adds	r4, r7, r3
10006930:	6864      	ldr	r4, [r4, #4]
10006932:	4234      	tst	r4, r6
10006934:	d111      	bne.n	1000695a <_free_r+0x7e>
10006936:	68bb      	ldr	r3, [r7, #8]
10006938:	4c55      	ldr	r4, [pc, #340]	; (10006a90 <_free_r+0x1b4>)
1000693a:	4442      	add	r2, r8
1000693c:	42a3      	cmp	r3, r4
1000693e:	d100      	bne.n	10006942 <_free_r+0x66>
10006940:	e07e      	b.n	10006a40 <_free_r+0x164>
10006942:	68fc      	ldr	r4, [r7, #12]
10006944:	60dc      	str	r4, [r3, #12]
10006946:	60a3      	str	r3, [r4, #8]
10006948:	2301      	movs	r3, #1
1000694a:	4313      	orrs	r3, r2
1000694c:	604b      	str	r3, [r1, #4]
1000694e:	508a      	str	r2, [r1, r2]
10006950:	e006      	b.n	10006960 <_free_r+0x84>
10006952:	18fc      	adds	r4, r7, r3
10006954:	6864      	ldr	r4, [r4, #4]
10006956:	4234      	tst	r4, r6
10006958:	d0ed      	beq.n	10006936 <_free_r+0x5a>
1000695a:	4316      	orrs	r6, r2
1000695c:	604e      	str	r6, [r1, #4]
1000695e:	603a      	str	r2, [r7, #0]
10006960:	2380      	movs	r3, #128	; 0x80
10006962:	009b      	lsls	r3, r3, #2
10006964:	429a      	cmp	r2, r3
10006966:	d213      	bcs.n	10006990 <_free_r+0xb4>
10006968:	0954      	lsrs	r4, r2, #5
1000696a:	08d3      	lsrs	r3, r2, #3
1000696c:	2201      	movs	r2, #1
1000696e:	40a2      	lsls	r2, r4
10006970:	6844      	ldr	r4, [r0, #4]
10006972:	00db      	lsls	r3, r3, #3
10006974:	4322      	orrs	r2, r4
10006976:	6042      	str	r2, [r0, #4]
10006978:	1818      	adds	r0, r3, r0
1000697a:	6883      	ldr	r3, [r0, #8]
1000697c:	60c8      	str	r0, [r1, #12]
1000697e:	608b      	str	r3, [r1, #8]
10006980:	6081      	str	r1, [r0, #8]
10006982:	60d9      	str	r1, [r3, #12]
10006984:	0028      	movs	r0, r5
10006986:	f7ff ff13 	bl	100067b0 <__malloc_unlock>
1000698a:	bc80      	pop	{r7}
1000698c:	46b8      	mov	r8, r7
1000698e:	bdf0      	pop	{r4, r5, r6, r7, pc}
10006990:	0a53      	lsrs	r3, r2, #9
10006992:	2b04      	cmp	r3, #4
10006994:	d83e      	bhi.n	10006a14 <_free_r+0x138>
10006996:	0994      	lsrs	r4, r2, #6
10006998:	0026      	movs	r6, r4
1000699a:	3439      	adds	r4, #57	; 0x39
1000699c:	3638      	adds	r6, #56	; 0x38
1000699e:	00e4      	lsls	r4, r4, #3
100069a0:	1904      	adds	r4, r0, r4
100069a2:	6823      	ldr	r3, [r4, #0]
100069a4:	3c08      	subs	r4, #8
100069a6:	2703      	movs	r7, #3
100069a8:	429c      	cmp	r4, r3
100069aa:	d042      	beq.n	10006a32 <_free_r+0x156>
100069ac:	6858      	ldr	r0, [r3, #4]
100069ae:	43b8      	bics	r0, r7
100069b0:	4290      	cmp	r0, r2
100069b2:	d902      	bls.n	100069ba <_free_r+0xde>
100069b4:	689b      	ldr	r3, [r3, #8]
100069b6:	429c      	cmp	r4, r3
100069b8:	d1f8      	bne.n	100069ac <_free_r+0xd0>
100069ba:	68dc      	ldr	r4, [r3, #12]
100069bc:	60cc      	str	r4, [r1, #12]
100069be:	608b      	str	r3, [r1, #8]
100069c0:	60a1      	str	r1, [r4, #8]
100069c2:	60d9      	str	r1, [r3, #12]
100069c4:	e7de      	b.n	10006984 <_free_r+0xa8>
100069c6:	4643      	mov	r3, r8
100069c8:	18f8      	adds	r0, r7, r3
100069ca:	6840      	ldr	r0, [r0, #4]
100069cc:	4230      	tst	r0, r6
100069ce:	d157      	bne.n	10006a80 <_free_r+0x1a4>
100069d0:	68fb      	ldr	r3, [r7, #12]
100069d2:	68b8      	ldr	r0, [r7, #8]
100069d4:	4442      	add	r2, r8
100069d6:	4316      	orrs	r6, r2
100069d8:	60c3      	str	r3, [r0, #12]
100069da:	6098      	str	r0, [r3, #8]
100069dc:	604e      	str	r6, [r1, #4]
100069de:	508a      	str	r2, [r1, r2]
100069e0:	e7d0      	b.n	10006984 <_free_r+0xa8>
100069e2:	0013      	movs	r3, r2
100069e4:	4443      	add	r3, r8
100069e6:	4226      	tst	r6, r4
100069e8:	d106      	bne.n	100069f8 <_free_r+0x11c>
100069ea:	680a      	ldr	r2, [r1, #0]
100069ec:	1a89      	subs	r1, r1, r2
100069ee:	688c      	ldr	r4, [r1, #8]
100069f0:	189b      	adds	r3, r3, r2
100069f2:	68ca      	ldr	r2, [r1, #12]
100069f4:	60e2      	str	r2, [r4, #12]
100069f6:	6094      	str	r4, [r2, #8]
100069f8:	2201      	movs	r2, #1
100069fa:	431a      	orrs	r2, r3
100069fc:	604a      	str	r2, [r1, #4]
100069fe:	4a25      	ldr	r2, [pc, #148]	; (10006a94 <_free_r+0x1b8>)
10006a00:	6081      	str	r1, [r0, #8]
10006a02:	6812      	ldr	r2, [r2, #0]
10006a04:	429a      	cmp	r2, r3
10006a06:	d8bd      	bhi.n	10006984 <_free_r+0xa8>
10006a08:	4b23      	ldr	r3, [pc, #140]	; (10006a98 <_free_r+0x1bc>)
10006a0a:	0028      	movs	r0, r5
10006a0c:	6819      	ldr	r1, [r3, #0]
10006a0e:	f7ff ff17 	bl	10006840 <_malloc_trim_r>
10006a12:	e7b7      	b.n	10006984 <_free_r+0xa8>
10006a14:	2b14      	cmp	r3, #20
10006a16:	d907      	bls.n	10006a28 <_free_r+0x14c>
10006a18:	2b54      	cmp	r3, #84	; 0x54
10006a1a:	d81a      	bhi.n	10006a52 <_free_r+0x176>
10006a1c:	0b14      	lsrs	r4, r2, #12
10006a1e:	0026      	movs	r6, r4
10006a20:	346f      	adds	r4, #111	; 0x6f
10006a22:	366e      	adds	r6, #110	; 0x6e
10006a24:	00e4      	lsls	r4, r4, #3
10006a26:	e7bb      	b.n	100069a0 <_free_r+0xc4>
10006a28:	001e      	movs	r6, r3
10006a2a:	335c      	adds	r3, #92	; 0x5c
10006a2c:	365b      	adds	r6, #91	; 0x5b
10006a2e:	00dc      	lsls	r4, r3, #3
10006a30:	e7b6      	b.n	100069a0 <_free_r+0xc4>
10006a32:	2201      	movs	r2, #1
10006a34:	10b6      	asrs	r6, r6, #2
10006a36:	40b2      	lsls	r2, r6
10006a38:	6846      	ldr	r6, [r0, #4]
10006a3a:	4332      	orrs	r2, r6
10006a3c:	6042      	str	r2, [r0, #4]
10006a3e:	e7bd      	b.n	100069bc <_free_r+0xe0>
10006a40:	60d9      	str	r1, [r3, #12]
10006a42:	6099      	str	r1, [r3, #8]
10006a44:	60cb      	str	r3, [r1, #12]
10006a46:	608b      	str	r3, [r1, #8]
10006a48:	2301      	movs	r3, #1
10006a4a:	4313      	orrs	r3, r2
10006a4c:	604b      	str	r3, [r1, #4]
10006a4e:	508a      	str	r2, [r1, r2]
10006a50:	e798      	b.n	10006984 <_free_r+0xa8>
10006a52:	24aa      	movs	r4, #170	; 0xaa
10006a54:	0064      	lsls	r4, r4, #1
10006a56:	42a3      	cmp	r3, r4
10006a58:	d805      	bhi.n	10006a66 <_free_r+0x18a>
10006a5a:	0bd4      	lsrs	r4, r2, #15
10006a5c:	0026      	movs	r6, r4
10006a5e:	3478      	adds	r4, #120	; 0x78
10006a60:	3677      	adds	r6, #119	; 0x77
10006a62:	00e4      	lsls	r4, r4, #3
10006a64:	e79c      	b.n	100069a0 <_free_r+0xc4>
10006a66:	4c0d      	ldr	r4, [pc, #52]	; (10006a9c <_free_r+0x1c0>)
10006a68:	42a3      	cmp	r3, r4
10006a6a:	d805      	bhi.n	10006a78 <_free_r+0x19c>
10006a6c:	0c94      	lsrs	r4, r2, #18
10006a6e:	0026      	movs	r6, r4
10006a70:	347d      	adds	r4, #125	; 0x7d
10006a72:	367c      	adds	r6, #124	; 0x7c
10006a74:	00e4      	lsls	r4, r4, #3
10006a76:	e793      	b.n	100069a0 <_free_r+0xc4>
10006a78:	24fe      	movs	r4, #254	; 0xfe
10006a7a:	267e      	movs	r6, #126	; 0x7e
10006a7c:	00a4      	lsls	r4, r4, #2
10006a7e:	e78f      	b.n	100069a0 <_free_r+0xc4>
10006a80:	0033      	movs	r3, r6
10006a82:	4313      	orrs	r3, r2
10006a84:	604b      	str	r3, [r1, #4]
10006a86:	603a      	str	r2, [r7, #0]
10006a88:	e77c      	b.n	10006984 <_free_r+0xa8>
10006a8a:	46c0      	nop			; (mov r8, r8)
10006a8c:	20000698 	.word	0x20000698
10006a90:	200006a0 	.word	0x200006a0
10006a94:	20000aa4 	.word	0x20000aa4
10006a98:	20000da8 	.word	0x20000da8
10006a9c:	00000554 	.word	0x00000554

10006aa0 <__retarget_lock_acquire_recursive>:
10006aa0:	4770      	bx	lr
10006aa2:	46c0      	nop			; (mov r8, r8)

10006aa4 <__retarget_lock_release_recursive>:
10006aa4:	4770      	bx	lr
10006aa6:	46c0      	nop			; (mov r8, r8)

10006aa8 <_fini>:
10006aa8:	b5f8      	push	{r3, r4, r5, r6, r7, lr}
10006aaa:	46c0      	nop			; (mov r8, r8)
10006aac:	0000      	movs	r0, r0
	...

10006ab0 <__mutex_exit_veneer>:
10006ab0:	b401      	push	{r0}
10006ab2:	4802      	ldr	r0, [pc, #8]	; (10006abc <__mutex_exit_veneer+0xc>)
10006ab4:	4684      	mov	ip, r0
10006ab6:	bc01      	pop	{r0}
10006ab8:	4760      	bx	ip
10006aba:	bf00      	nop
10006abc:	20000151 	.word	0x20000151

10006ac0 <____aeabi_ldiv0_veneer>:
10006ac0:	b401      	push	{r0}
10006ac2:	4802      	ldr	r0, [pc, #8]	; (10006acc <____aeabi_ldiv0_veneer+0xc>)
10006ac4:	4684      	mov	ip, r0
10006ac6:	bc01      	pop	{r0}
10006ac8:	4760      	bx	ip
10006aca:	bf00      	nop
10006acc:	2000019d 	.word	0x2000019d

10006ad0 <____aeabi_idiv0_veneer>:
10006ad0:	b401      	push	{r0}
10006ad2:	4802      	ldr	r0, [pc, #8]	; (10006adc <____aeabi_idiv0_veneer+0xc>)
10006ad4:	4684      	mov	ip, r0
10006ad6:	bc01      	pop	{r0}
10006ad8:	4760      	bx	ip
10006ada:	bf00      	nop
10006adc:	2000019d 	.word	0x2000019d

10006ae0 <__mutex_try_enter_veneer>:
10006ae0:	b401      	push	{r0}
10006ae2:	4802      	ldr	r0, [pc, #8]	; (10006aec <__mutex_try_enter_veneer+0xc>)
10006ae4:	4684      	mov	ip, r0
10006ae6:	bc01      	pop	{r0}
10006ae8:	4760      	bx	ip
10006aea:	bf00      	nop
10006aec:	20000109 	.word	0x20000109

10006af0 <__mutex_enter_blocking_veneer>:
10006af0:	b401      	push	{r0}
10006af2:	4802      	ldr	r0, [pc, #8]	; (10006afc <__mutex_enter_blocking_veneer+0xc>)
10006af4:	4684      	mov	ip, r0
10006af6:	bc01      	pop	{r0}
10006af8:	4760      	bx	ip
10006afa:	bf00      	nop
10006afc:	200000c1 	.word	0x200000c1

Disassembly of section .data:

200000c0 <mutex_enter_blocking>:
200000c0:	b510      	push	{r4, lr}
200000c2:	23d0      	movs	r3, #208	; 0xd0
200000c4:	061b      	lsls	r3, r3, #24
200000c6:	2400      	movs	r4, #0
200000c8:	571c      	ldrsb	r4, [r3, r4]
200000ca:	6802      	ldr	r2, [r0, #0]
200000cc:	f3ef 8110 	mrs	r1, PRIMASK
200000d0:	b672      	cpsid	i
200000d2:	6813      	ldr	r3, [r2, #0]
200000d4:	2b00      	cmp	r3, #0
200000d6:	d0fc      	beq.n	200000d2 <mutex_enter_blocking+0x12>
200000d8:	f3bf 8f5f 	dmb	sy
200000dc:	2304      	movs	r3, #4
200000de:	56c3      	ldrsb	r3, [r0, r3]
200000e0:	2b00      	cmp	r3, #0
200000e2:	db08      	blt.n	200000f6 <mutex_enter_blocking+0x36>
200000e4:	6803      	ldr	r3, [r0, #0]
200000e6:	f3bf 8f5f 	dmb	sy
200000ea:	2200      	movs	r2, #0
200000ec:	601a      	str	r2, [r3, #0]
200000ee:	f381 8810 	msr	PRIMASK, r1
200000f2:	bf20      	wfe
200000f4:	e7e9      	b.n	200000ca <mutex_enter_blocking+0xa>
200000f6:	7104      	strb	r4, [r0, #4]
200000f8:	6803      	ldr	r3, [r0, #0]
200000fa:	f3bf 8f5f 	dmb	sy
200000fe:	2200      	movs	r2, #0
20000100:	601a      	str	r2, [r3, #0]
20000102:	f381 8810 	msr	PRIMASK, r1
20000106:	bd10      	pop	{r4, pc}

20000108 <mutex_try_enter>:
20000108:	0003      	movs	r3, r0
2000010a:	6800      	ldr	r0, [r0, #0]
2000010c:	f3ef 8c10 	mrs	ip, PRIMASK
20000110:	b672      	cpsid	i
20000112:	6802      	ldr	r2, [r0, #0]
20000114:	2a00      	cmp	r2, #0
20000116:	d0fc      	beq.n	20000112 <mutex_try_enter+0xa>
20000118:	f3bf 8f5f 	dmb	sy
2000011c:	2204      	movs	r2, #4
2000011e:	569a      	ldrsb	r2, [r3, r2]
20000120:	2a00      	cmp	r2, #0
20000122:	db0b      	blt.n	2000013c <mutex_try_enter+0x34>
20000124:	2900      	cmp	r1, #0
20000126:	d010      	beq.n	2000014a <mutex_try_enter+0x42>
20000128:	600a      	str	r2, [r1, #0]
2000012a:	2000      	movs	r0, #0
2000012c:	681b      	ldr	r3, [r3, #0]
2000012e:	f3bf 8f5f 	dmb	sy
20000132:	2200      	movs	r2, #0
20000134:	601a      	str	r2, [r3, #0]
20000136:	f38c 8810 	msr	PRIMASK, ip
2000013a:	4770      	bx	lr
2000013c:	22d0      	movs	r2, #208	; 0xd0
2000013e:	0612      	lsls	r2, r2, #24
20000140:	7812      	ldrb	r2, [r2, #0]
20000142:	b252      	sxtb	r2, r2
20000144:	711a      	strb	r2, [r3, #4]
20000146:	2001      	movs	r0, #1
20000148:	e7f0      	b.n	2000012c <mutex_try_enter+0x24>
2000014a:	2000      	movs	r0, #0
2000014c:	e7ee      	b.n	2000012c <mutex_try_enter+0x24>
	...

20000150 <mutex_exit>:
20000150:	b510      	push	{r4, lr}
20000152:	6802      	ldr	r2, [r0, #0]
20000154:	f3ef 8110 	mrs	r1, PRIMASK
20000158:	b672      	cpsid	i
2000015a:	6813      	ldr	r3, [r2, #0]
2000015c:	2b00      	cmp	r3, #0
2000015e:	d0fc      	beq.n	2000015a <mutex_exit+0xa>
20000160:	f3bf 8f5f 	dmb	sy
20000164:	2304      	movs	r3, #4
20000166:	56c3      	ldrsb	r3, [r0, r3]
20000168:	2b00      	cmp	r3, #0
2000016a:	db0a      	blt.n	20000182 <mutex_exit+0x32>
2000016c:	23ff      	movs	r3, #255	; 0xff
2000016e:	7103      	strb	r3, [r0, #4]
20000170:	6803      	ldr	r3, [r0, #0]
20000172:	f3bf 8f5f 	dmb	sy
20000176:	2200      	movs	r2, #0
20000178:	601a      	str	r2, [r3, #0]
2000017a:	f381 8810 	msr	PRIMASK, r1
2000017e:	bf40      	sev
20000180:	bd10      	pop	{r4, pc}
20000182:	4b03      	ldr	r3, [pc, #12]	; (20000190 <mutex_exit+0x40>)
20000184:	4a03      	ldr	r2, [pc, #12]	; (20000194 <mutex_exit+0x44>)
20000186:	21a9      	movs	r1, #169	; 0xa9
20000188:	4803      	ldr	r0, [pc, #12]	; (20000198 <mutex_exit+0x48>)
2000018a:	f000 f809 	bl	200001a0 <____assert_func_veneer>
2000018e:	46c0      	nop			; (mov r8, r8)
20000190:	10006f0c 	.word	0x10006f0c
20000194:	10006f44 	.word	0x10006f44
20000198:	10006eb4 	.word	0x10006eb4

2000019c <__aeabi_idiv0>:
2000019c:	4770      	bx	lr
2000019e:	46c0      	nop			; (mov r8, r8)

200001a0 <____assert_func_veneer>:
200001a0:	b401      	push	{r0}
200001a2:	4802      	ldr	r0, [pc, #8]	; (200001ac <____assert_func_veneer+0xc>)
200001a4:	4684      	mov	ip, r0
200001a6:	bc01      	pop	{r0}
200001a8:	4760      	bx	ip
200001aa:	bf00      	nop
200001ac:	100012f5 	.word	0x100012f5

200001b0 <striped_spin_lock_num>:
200001b0:	00000010                                ....

200001b4 <default_alarm_pool>:
200001b4:	200001cc 00000000 20000ac8 20000de4     ... ....... ... 
	...

200001cc <default_alarm_pool_heap>:
200001cc:	20000df4 00000000 00000000 00000010     ... ............

200001dc <irq_handler_chain_slots>:
200001dc:	00000000 	.word	0x00000000
200001e0:	00010000 	.word	0x00010000
	...
200001ec:	00020000 	.word	0x00020000
	...
200001f8:	00030000 	.word	0x00030000
	...
20000204:	00ff0000 	.word	0x00ff0000
20000208:	00000000 	.word	0x00000000

2000020c <irq_handler_chain_first_slot>:
2000020c:	b500      	push	{lr}
2000020e:	6848      	ldr	r0, [r1, #4]
20000210:	3101      	adds	r1, #1
20000212:	468e      	mov	lr, r1
20000214:	4700      	bx	r0

20000216 <irq_handler_chain_remove_tail>:
20000216:	4670      	mov	r0, lr
20000218:	3809      	subs	r0, #9
2000021a:	4901      	ldr	r1, [pc, #4]	; (20000220 <irq_handler_chain_remove_tail+0xa>)
2000021c:	4788      	blx	r1
2000021e:	bd00      	pop	{pc}
20000220:	1000195d 	.word	0x1000195d
	...

20000230 <aeabi_bits_funcs>:
20000230:	00003350 	.word	0x00003350
20000234:	0000334c 	.word	0x0000334c
20000238:	00003354 	.word	0x00003354
2000023c:	00003352 	.word	0x00003352

20000240 <aeabi_bits_funcs_end>:
20000240:	0000534d 	.word	0x0000534d
20000244:	0000434d 	.word	0x0000434d
20000248:	00003453 	.word	0x00003453
2000024c:	00003443 	.word	0x00003443

20000250 <stdio_uart>:
20000250:	10003e65 00000000 10003ed9 00000000     e>.......>......
20000260:	00000100                                ....

20000264 <uxTopUsedPriority>:
20000264:	00000004                                ....

20000268 <uxCriticalNesting>:
20000268:	aaaaaaaa                                ....

2000026c <_impure_ptr>:
2000026c:	20000270                                p.. 

20000270 <impure_data>:
20000270:	00000000 2000055c 200005c4 2000062c     ....\.. ... ,.. 
	...
20000318:	00000001 00000000 abcd330e e66d1234     .........3..4.m.
20000328:	0005deec 0000000b 00000000 00000000     ................
	...

20000698 <__malloc_av_>:
	...
200006a0:	20000698 20000698 200006a0 200006a0     ... ... ... ... 
200006b0:	200006a8 200006a8 200006b0 200006b0     ... ... ... ... 
200006c0:	200006b8 200006b8 200006c0 200006c0     ... ... ... ... 
200006d0:	200006c8 200006c8 200006d0 200006d0     ... ... ... ... 
200006e0:	200006d8 200006d8 200006e0 200006e0     ... ... ... ... 
200006f0:	200006e8 200006e8 200006f0 200006f0     ... ... ... ... 
20000700:	200006f8 200006f8 20000700 20000700     ... ... ... ... 
20000710:	20000708 20000708 20000710 20000710     ... ... ... ... 
20000720:	20000718 20000718 20000720 20000720     ... ...  ..  .. 
20000730:	20000728 20000728 20000730 20000730     (.. (.. 0.. 0.. 
20000740:	20000738 20000738 20000740 20000740     8.. 8.. @.. @.. 
20000750:	20000748 20000748 20000750 20000750     H.. H.. P.. P.. 
20000760:	20000758 20000758 20000760 20000760     X.. X.. `.. `.. 
20000770:	20000768 20000768 20000770 20000770     h.. h.. p.. p.. 
20000780:	20000778 20000778 20000780 20000780     x.. x.. ... ... 
20000790:	20000788 20000788 20000790 20000790     ... ... ... ... 
200007a0:	20000798 20000798 200007a0 200007a0     ... ... ... ... 
200007b0:	200007a8 200007a8 200007b0 200007b0     ... ... ... ... 
200007c0:	200007b8 200007b8 200007c0 200007c0     ... ... ... ... 
200007d0:	200007c8 200007c8 200007d0 200007d0     ... ... ... ... 
200007e0:	200007d8 200007d8 200007e0 200007e0     ... ... ... ... 
200007f0:	200007e8 200007e8 200007f0 200007f0     ... ... ... ... 
20000800:	200007f8 200007f8 20000800 20000800     ... ... ... ... 
20000810:	20000808 20000808 20000810 20000810     ... ... ... ... 
20000820:	20000818 20000818 20000820 20000820     ... ...  ..  .. 
20000830:	20000828 20000828 20000830 20000830     (.. (.. 0.. 0.. 
20000840:	20000838 20000838 20000840 20000840     8.. 8.. @.. @.. 
20000850:	20000848 20000848 20000850 20000850     H.. H.. P.. P.. 
20000860:	20000858 20000858 20000860 20000860     X.. X.. `.. `.. 
20000870:	20000868 20000868 20000870 20000870     h.. h.. p.. p.. 
20000880:	20000878 20000878 20000880 20000880     x.. x.. ... ... 
20000890:	20000888 20000888 20000890 20000890     ... ... ... ... 
200008a0:	20000898 20000898 200008a0 200008a0     ... ... ... ... 
200008b0:	200008a8 200008a8 200008b0 200008b0     ... ... ... ... 
200008c0:	200008b8 200008b8 200008c0 200008c0     ... ... ... ... 
200008d0:	200008c8 200008c8 200008d0 200008d0     ... ... ... ... 
200008e0:	200008d8 200008d8 200008e0 200008e0     ... ... ... ... 
200008f0:	200008e8 200008e8 200008f0 200008f0     ... ... ... ... 
20000900:	200008f8 200008f8 20000900 20000900     ... ... ... ... 
20000910:	20000908 20000908 20000910 20000910     ... ... ... ... 
20000920:	20000918 20000918 20000920 20000920     ... ...  ..  .. 
20000930:	20000928 20000928 20000930 20000930     (.. (.. 0.. 0.. 
20000940:	20000938 20000938 20000940 20000940     8.. 8.. @.. @.. 
20000950:	20000948 20000948 20000950 20000950     H.. H.. P.. P.. 
20000960:	20000958 20000958 20000960 20000960     X.. X.. `.. `.. 
20000970:	20000968 20000968 20000970 20000970     h.. h.. p.. p.. 
20000980:	20000978 20000978 20000980 20000980     x.. x.. ... ... 
20000990:	20000988 20000988 20000990 20000990     ... ... ... ... 
200009a0:	20000998 20000998 200009a0 200009a0     ... ... ... ... 
200009b0:	200009a8 200009a8 200009b0 200009b0     ... ... ... ... 
200009c0:	200009b8 200009b8 200009c0 200009c0     ... ... ... ... 
200009d0:	200009c8 200009c8 200009d0 200009d0     ... ... ... ... 
200009e0:	200009d8 200009d8 200009e0 200009e0     ... ... ... ... 
200009f0:	200009e8 200009e8 200009f0 200009f0     ... ... ... ... 
20000a00:	200009f8 200009f8 20000a00 20000a00     ... ... ... ... 
20000a10:	20000a08 20000a08 20000a10 20000a10     ... ... ... ... 
20000a20:	20000a18 20000a18 20000a20 20000a20     ... ...  ..  .. 
20000a30:	20000a28 20000a28 20000a30 20000a30     (.. (.. 0.. 0.. 
20000a40:	20000a38 20000a38 20000a40 20000a40     8.. 8.. @.. @.. 
20000a50:	20000a48 20000a48 20000a50 20000a50     H.. H.. P.. P.. 
20000a60:	20000a58 20000a58 20000a60 20000a60     X.. X.. `.. `.. 
20000a70:	20000a68 20000a68 20000a70 20000a70     h.. h.. p.. p.. 
20000a80:	20000a78 20000a78 20000a80 20000a80     x.. x.. ... ... 
20000a90:	20000a88 20000a88 20000a90 20000a90     ... ... ... ... 

20000aa0 <__malloc_sbrk_base>:
20000aa0:	ffffffff                                ....

20000aa4 <__malloc_trim_threshold>:
20000aa4:	00020000                                ....

20000aa8 <print_mutex>:
	...

20000ab0 <__mutex_array_end>:
20000ab0:	10003b95 	.word	0x10003b95
20000ab4:	10002cf9 	.word	0x10002cf9
20000ab8:	10003409 	.word	0x10003409
20000abc:	10003a39 	.word	0x10003a39

20000ac0 <__frame_dummy_init_array_entry>:
20000ac0:	100002ed                                ....
